

Microchip MPLAB XC8 Assembler V2.50 build 20240725155939 
                                                                                               Mon Dec 15 16:21:14 2025

Microchip MPLAB XC8 C Compiler v2.50 (Free license) build 20240725155939 Og9 
     1                           	processor	18F4550
     2                           	fnconf	rparam,??,?,0
     3                           	pagewidth 120
     4                           	opt	flic
     5                           	psect	idataCOMRAM,global,class=CODE,space=0,delta=1,noexec
     6                           	psect	idataBANK0,global,class=CODE,space=0,delta=1,noexec
     7                           	psect	mediumconst,global,reloc=2,class=MEDIUMCONST,space=0,delta=1,noexec
     8                           	psect	nvCOMRAM,global,class=COMRAM,space=1,delta=1,lowdata,noexec
     9                           	psect	cinit,global,reloc=2,class=CODE,space=0,delta=1
    10                           	psect	bssCOMRAM,global,class=COMRAM,space=1,delta=1,lowdata,noexec
    11                           	psect	dataCOMRAM,global,class=COMRAM,space=1,delta=1,lowdata,noexec
    12                           	psect	dataBANK0,global,class=BANK0,space=1,delta=1,lowdata,noexec
    13                           	psect	cstackBANK0,global,class=BANK0,space=1,delta=1,lowdata,noexec
    14                           	psect	cstackCOMRAM,global,class=COMRAM,space=1,delta=1,lowdata,noexec
    15                           	psect	text0,global,reloc=2,class=CODE,space=0,delta=1
    16                           	psect	text1,global,reloc=2,class=CODE,space=0,delta=1
    17                           	psect	text2,global,reloc=2,class=CODE,space=0,delta=1
    18                           	psect	text3,global,reloc=2,class=CODE,space=0,delta=1
    19                           	psect	text4,global,reloc=2,class=CODE,space=0,delta=1,group=2
    20                           	psect	text5,global,reloc=2,class=CODE,space=0,delta=1
    21                           	psect	text6,global,reloc=2,class=CODE,space=0,delta=1
    22                           	psect	text7,global,reloc=2,class=CODE,space=0,delta=1
    23                           	psect	text8,global,reloc=2,class=CODE,space=0,delta=1
    24                           	psect	text9,global,reloc=2,class=CODE,space=0,delta=1
    25                           	psect	text10,global,reloc=2,class=CODE,space=0,delta=1
    26                           	psect	text11,global,reloc=2,class=CODE,space=0,delta=1,group=2
    27                           	psect	text12,global,reloc=2,class=CODE,space=0,delta=1,group=2
    28                           	psect	text13,global,reloc=2,class=CODE,space=0,delta=1
    29                           	psect	text14,global,reloc=2,class=CODE,space=0,delta=1
    30                           	psect	text15,global,reloc=2,class=CODE,space=0,delta=1
    31                           	psect	text16,global,reloc=2,class=CODE,space=0,delta=1
    32                           	psect	text17,global,reloc=2,class=CODE,space=0,delta=1
    33                           	psect	text18,global,reloc=2,class=CODE,space=0,delta=1
    34                           	psect	text19,global,reloc=2,class=CODE,space=0,delta=1
    35                           	psect	text20,global,reloc=2,class=CODE,space=0,delta=1
    36                           	psect	text21,global,reloc=2,class=CODE,space=0,delta=1
    37                           	psect	text22,global,reloc=2,class=CODE,space=0,delta=1
    38                           	psect	text23,global,reloc=2,class=CODE,space=0,delta=1
    39                           	psect	text24,global,reloc=2,class=CODE,space=0,delta=1
    40                           	psect	text25,global,reloc=2,class=CODE,space=0,delta=1
    41                           	psect	text26,global,reloc=2,class=CODE,space=0,delta=1
    42                           	psect	text27,global,reloc=2,class=CODE,space=0,delta=1
    43                           	psect	text28,global,reloc=2,class=CODE,space=0,delta=1
    44                           	psect	intcode,global,reloc=2,class=CODE,space=0,delta=1
    45                           	psect	intcode_body,global,reloc=2,class=CODE,space=0,delta=1
    46                           	psect	text30,global,reloc=2,class=CODE,space=0,delta=1
    47                           	psect	text31,global,reloc=2,class=CODE,space=0,delta=1
    48                           	psect	text32,global,reloc=2,class=CODE,space=0,delta=1
    49                           	psect	text33,global,reloc=2,class=CODE,space=0,delta=1,group=1
    50                           	psect	text34,global,reloc=2,class=CODE,space=0,delta=1
    51                           	psect	text35,global,reloc=2,class=CODE,space=0,delta=1
    52                           	psect	text36,global,reloc=2,class=CODE,space=0,delta=1,group=2
    53                           	psect	text37,global,reloc=2,class=CODE,space=0,delta=1,inline
    54                           	psect	text38,global,reloc=2,class=CODE,space=0,delta=1,group=2
    55                           	psect	text39,global,reloc=2,class=CODE,space=0,delta=1,group=2
    56                           	psect	text40,global,reloc=2,class=CODE,space=0,delta=1
    57                           	psect	text41,global,reloc=2,class=CODE,space=0,delta=1
    58                           	psect	text42,global,reloc=2,class=CODE,space=0,delta=1,inline
    59                           	psect	text43,global,reloc=2,class=CODE,space=0,delta=1
    60                           	psect	text44,global,reloc=2,class=CODE,space=0,delta=1
    61                           	psect	text45,global,reloc=2,class=CODE,space=0,delta=1
    62                           	psect	text46,global,reloc=2,class=CODE,space=0,delta=1
    63                           	psect	text47,global,reloc=2,class=CODE,space=0,delta=1
    64                           	psect	text48,global,reloc=2,class=CODE,space=0,delta=1
    65                           	psect	text49,global,reloc=2,class=CODE,space=0,delta=1
    66                           	psect	text50,global,reloc=2,class=CODE,space=0,delta=1
    67                           	psect	text51,global,reloc=2,class=CODE,space=0,delta=1
    68                           	psect	text52,global,reloc=2,class=CODE,space=0,delta=1
    69                           	psect	text53,global,reloc=2,class=CODE,space=0,delta=1
    70                           	psect	text54,global,reloc=2,class=CODE,space=0,delta=1
    71                           	psect	text55,global,reloc=2,class=CODE,space=0,delta=1
    72                           	psect	text56,global,reloc=2,class=CODE,space=0,delta=1
    73                           	psect	text57,global,reloc=2,class=CODE,space=0,delta=1
    74                           	psect	text58,global,reloc=2,class=CODE,space=0,delta=1
    75                           	psect	text59,global,reloc=2,class=CODE,space=0,delta=1
    76                           	psect	intsave_regs,global,class=BIGRAM,space=1,delta=1,noexec
    77                           	psect	rparam,global,class=COMRAM,space=1,delta=1,noexec
    78                           	psect	temp,global,ovrld,common,class=COMRAM,space=1,delta=1,lowdata
    79                           	psect	idloc,global,abs,ovrld,class=IDLOC,space=5,delta=1,noexec
    80                           	psect	config,global,abs,ovrld,class=CONFIG,space=4,delta=1,noexec
    81   000000                     
    82                           ; Generated 25/07/2024 GMT
    83                           ; 
    84                           ; Copyright © 2024, Microchip Technology Inc. and its subsidiaries ("Microchip")
    85                           ; All rights reserved.
    86                           ; 
    87                           ; This software is developed by Microchip Technology Inc. and its subsidiaries ("Microch
      +                          ip").
    88                           ; 
    89                           ; Redistribution and use in source and binary forms, with or without modification, are
    90                           ; permitted provided that the following conditions are met:
    91                           ; 
    92                           ;     1. Redistributions of source code must retain the above copyright notice, this lis
      +                          t of
    93                           ;        conditions and the following disclaimer.
    94                           ; 
    95                           ;     2. Redistributions in binary form must reproduce the above copyright notice, this 
      +                          list
    96                           ;        of conditions and the following disclaimer in the documentation and/or other
    97                           ;        materials provided with the distribution. Publication is not required when
    98                           ;        this file is used in an embedded application.
    99                           ; 
   100                           ;     3. Microchip's name may not be used to endorse or promote products derived from th
      +                          is
   101                           ;        software without specific prior written permission.
   102                           ; 
   103                           ; THIS SOFTWARE IS PROVIDED BY MICROCHIP "AS IS" AND ANY EXPRESS OR IMPLIED WARRANTIES,
   104                           ; INCLUDING, BUT NOT LIMITED TO, THE IMPLIED WARRANTIES OF MERCHANTABILITY AND FITNESS F
      +                          OR
   105                           ; PURPOSE ARE DISCLAIMED.  IN NO EVENT SHALL MICROCHIP BE LIABLE FOR ANY DIRECT, INDIREC
      +                          T,
   106                           ; INCIDENTAL, SPECIAL, EXEMPLARY, OR CONSEQUENTIAL DAMAGES (INCLUDING BUT NOT LIMITED TO
   107                           ; PROCUREMENT OF SUBSTITUTE GOODS OR SERVICES; LOSS OF USE, DATA OR PROFITS; OR BUSINESS
   108                           ; INTERRUPTION) HOWSOEVER CAUSED AND ON ANY THEORY OF LIABILITY, WHETHER IN CONTRACT, ST
      +                          RICT
   109                           ; LIABILITY, OR TORT (INCLUDING NEGLIGENCE OR OTHERWISE) ARISING IN ANY WAY OUT OF THE U
      +                          SE OF
   110                           ; THIS SOFTWARE, EVEN IF ADVISED OF THE POSSIBILITY OF SUCH DAMAGE.
   111                           ; 
   112                           ; 
   113                           ; Code-generator required, PIC18F4550 Definitions
   114                           ; 
   115                           ; SFR Addresses
   116   000FE0                     bsr             equ	4064
   117   000FE9                     fsr0            equ	4073
   118   000FEA                     fsr0h           equ	4074
   119   000FE9                     fsr0l           equ	4073
   120   000FE1                     fsr1            equ	4065
   121   000FE2                     fsr1h           equ	4066
   122   000FE1                     fsr1l           equ	4065
   123   000FD9                     fsr2            equ	4057
   124   000FDA                     fsr2h           equ	4058
   125   000FD9                     fsr2l           equ	4057
   126   000FEF                     indf0           equ	4079
   127   000FE7                     indf1           equ	4071
   128   000FDF                     indf2           equ	4063
   129   000FF2                     intcon          equ	4082
   130   000000                     nvmcon          equ	0
   131   000FF9                     pcl             equ	4089
   132   000FFA                     pclath          equ	4090
   133   000FFB                     pclatu          equ	4091
   134   000FEB                     plusw0          equ	4075
   135   000FE3                     plusw1          equ	4067
   136   000FDB                     plusw2          equ	4059
   137   000FED                     postdec0        equ	4077
   138   000FE5                     postdec1        equ	4069
   139   000FDD                     postdec2        equ	4061
   140   000FEE                     postinc0        equ	4078
   141   000FE6                     postinc1        equ	4070
   142   000FDE                     postinc2        equ	4062
   143   000FEC                     preinc0         equ	4076
   144   000FE4                     preinc1         equ	4068
   145   000FDC                     preinc2         equ	4060
   146   000FF3                     prod            equ	4083
   147   000FF4                     prodh           equ	4084
   148   000FF3                     prodl           equ	4083
   149   000FD8                     status          equ	4056
   150   000FF5                     tablat          equ	4085
   151   000FF6                     tblptr          equ	4086
   152   000FF7                     tblptrh         equ	4087
   153   000FF6                     tblptrl         equ	4086
   154   000FF8                     tblptru         equ	4088
   155   000FFD                     tosl            equ	4093
   156   000FE8                     wreg            equ	4072
   157   000F62                     SPPDATA         equ	3938	;# 
   158   000F63                     SPPCFG          equ	3939	;# 
   159   000F64                     SPPEPS          equ	3940	;# 
   160   000F65                     SPPCON          equ	3941	;# 
   161   000F66                     UFRM            equ	3942	;# 
   162   000F66                     UFRML           equ	3942	;# 
   163   000F67                     UFRMH           equ	3943	;# 
   164   000F68                     UIR             equ	3944	;# 
   165   000F69                     UIE             equ	3945	;# 
   166   000F6A                     UEIR            equ	3946	;# 
   167   000F6B                     UEIE            equ	3947	;# 
   168   000F6C                     USTAT           equ	3948	;# 
   169   000F6D                     UCON            equ	3949	;# 
   170   000F6E                     UADDR           equ	3950	;# 
   171   000F6F                     UCFG            equ	3951	;# 
   172   000F70                     UEP0            equ	3952	;# 
   173   000F71                     UEP1            equ	3953	;# 
   174   000F72                     UEP2            equ	3954	;# 
   175   000F73                     UEP3            equ	3955	;# 
   176   000F74                     UEP4            equ	3956	;# 
   177   000F75                     UEP5            equ	3957	;# 
   178   000F76                     UEP6            equ	3958	;# 
   179   000F77                     UEP7            equ	3959	;# 
   180   000F78                     UEP8            equ	3960	;# 
   181   000F79                     UEP9            equ	3961	;# 
   182   000F7A                     UEP10           equ	3962	;# 
   183   000F7B                     UEP11           equ	3963	;# 
   184   000F7C                     UEP12           equ	3964	;# 
   185   000F7D                     UEP13           equ	3965	;# 
   186   000F7E                     UEP14           equ	3966	;# 
   187   000F7F                     UEP15           equ	3967	;# 
   188   000F80                     PORTA           equ	3968	;# 
   189   000F81                     PORTB           equ	3969	;# 
   190   000F82                     PORTC           equ	3970	;# 
   191   000F83                     PORTD           equ	3971	;# 
   192   000F84                     PORTE           equ	3972	;# 
   193   000F89                     LATA            equ	3977	;# 
   194   000F8A                     LATB            equ	3978	;# 
   195   000F8B                     LATC            equ	3979	;# 
   196   000F8C                     LATD            equ	3980	;# 
   197   000F8D                     LATE            equ	3981	;# 
   198   000F92                     TRISA           equ	3986	;# 
   199   000F92                     DDRA            equ	3986	;# 
   200   000F93                     TRISB           equ	3987	;# 
   201   000F93                     DDRB            equ	3987	;# 
   202   000F94                     TRISC           equ	3988	;# 
   203   000F94                     DDRC            equ	3988	;# 
   204   000F95                     TRISD           equ	3989	;# 
   205   000F95                     DDRD            equ	3989	;# 
   206   000F96                     TRISE           equ	3990	;# 
   207   000F96                     DDRE            equ	3990	;# 
   208   000F9B                     OSCTUNE         equ	3995	;# 
   209   000F9D                     PIE1            equ	3997	;# 
   210   000F9E                     PIR1            equ	3998	;# 
   211   000F9F                     IPR1            equ	3999	;# 
   212   000FA0                     PIE2            equ	4000	;# 
   213   000FA1                     PIR2            equ	4001	;# 
   214   000FA2                     IPR2            equ	4002	;# 
   215   000FA6                     EECON1          equ	4006	;# 
   216   000FA7                     EECON2          equ	4007	;# 
   217   000FA8                     EEDATA          equ	4008	;# 
   218   000FA9                     EEADR           equ	4009	;# 
   219   000FAB                     RCSTA           equ	4011	;# 
   220   000FAB                     RCSTA1          equ	4011	;# 
   221   000FAC                     TXSTA           equ	4012	;# 
   222   000FAC                     TXSTA1          equ	4012	;# 
   223   000FAD                     TXREG           equ	4013	;# 
   224   000FAD                     TXREG1          equ	4013	;# 
   225   000FAE                     RCREG           equ	4014	;# 
   226   000FAE                     RCREG1          equ	4014	;# 
   227   000FAF                     SPBRG           equ	4015	;# 
   228   000FAF                     SPBRG1          equ	4015	;# 
   229   000FB0                     SPBRGH          equ	4016	;# 
   230   000FB1                     T3CON           equ	4017	;# 
   231   000FB2                     TMR3            equ	4018	;# 
   232   000FB2                     TMR3L           equ	4018	;# 
   233   000FB3                     TMR3H           equ	4019	;# 
   234   000FB4                     CMCON           equ	4020	;# 
   235   000FB5                     CVRCON          equ	4021	;# 
   236   000FB6                     ECCP1AS         equ	4022	;# 
   237   000FB6                     CCP1AS          equ	4022	;# 
   238   000FB7                     ECCP1DEL        equ	4023	;# 
   239   000FB7                     CCP1DEL         equ	4023	;# 
   240   000FB8                     BAUDCON         equ	4024	;# 
   241   000FB8                     BAUDCTL         equ	4024	;# 
   242   000FBA                     CCP2CON         equ	4026	;# 
   243   000FBB                     CCPR2           equ	4027	;# 
   244   000FBB                     CCPR2L          equ	4027	;# 
   245   000FBC                     CCPR2H          equ	4028	;# 
   246   000FBD                     CCP1CON         equ	4029	;# 
   247   000FBD                     ECCP1CON        equ	4029	;# 
   248   000FBE                     CCPR1           equ	4030	;# 
   249   000FBE                     CCPR1L          equ	4030	;# 
   250   000FBF                     CCPR1H          equ	4031	;# 
   251   000FC0                     ADCON2          equ	4032	;# 
   252   000FC1                     ADCON1          equ	4033	;# 
   253   000FC2                     ADCON0          equ	4034	;# 
   254   000FC3                     ADRES           equ	4035	;# 
   255   000FC3                     ADRESL          equ	4035	;# 
   256   000FC4                     ADRESH          equ	4036	;# 
   257   000FC5                     SSPCON2         equ	4037	;# 
   258   000FC6                     SSPCON1         equ	4038	;# 
   259   000FC7                     SSPSTAT         equ	4039	;# 
   260   000FC8                     SSPADD          equ	4040	;# 
   261   000FC9                     SSPBUF          equ	4041	;# 
   262   000FCA                     T2CON           equ	4042	;# 
   263   000FCB                     PR2             equ	4043	;# 
   264   000FCB                     MEMCON          equ	4043	;# 
   265   000FCC                     TMR2            equ	4044	;# 
   266   000FCD                     T1CON           equ	4045	;# 
   267   000FCE                     TMR1            equ	4046	;# 
   268   000FCE                     TMR1L           equ	4046	;# 
   269   000FCF                     TMR1H           equ	4047	;# 
   270   000FD0                     RCON            equ	4048	;# 
   271   000FD1                     WDTCON          equ	4049	;# 
   272   000FD2                     HLVDCON         equ	4050	;# 
   273   000FD2                     LVDCON          equ	4050	;# 
   274   000FD3                     OSCCON          equ	4051	;# 
   275   000FD5                     T0CON           equ	4053	;# 
   276   000FD6                     TMR0            equ	4054	;# 
   277   000FD6                     TMR0L           equ	4054	;# 
   278   000FD7                     TMR0H           equ	4055	;# 
   279   000FD8                     STATUS          equ	4056	;# 
   280   000FD9                     FSR2            equ	4057	;# 
   281   000FD9                     FSR2L           equ	4057	;# 
   282   000FDA                     FSR2H           equ	4058	;# 
   283   000FDB                     PLUSW2          equ	4059	;# 
   284   000FDC                     PREINC2         equ	4060	;# 
   285   000FDD                     POSTDEC2        equ	4061	;# 
   286   000FDE                     POSTINC2        equ	4062	;# 
   287   000FDF                     INDF2           equ	4063	;# 
   288   000FE0                     BSR             equ	4064	;# 
   289   000FE1                     FSR1            equ	4065	;# 
   290   000FE1                     FSR1L           equ	4065	;# 
   291   000FE2                     FSR1H           equ	4066	;# 
   292   000FE3                     PLUSW1          equ	4067	;# 
   293   000FE4                     PREINC1         equ	4068	;# 
   294   000FE5                     POSTDEC1        equ	4069	;# 
   295   000FE6                     POSTINC1        equ	4070	;# 
   296   000FE7                     INDF1           equ	4071	;# 
   297   000FE8                     WREG            equ	4072	;# 
   298   000FE9                     FSR0            equ	4073	;# 
   299   000FE9                     FSR0L           equ	4073	;# 
   300   000FEA                     FSR0H           equ	4074	;# 
   301   000FEB                     PLUSW0          equ	4075	;# 
   302   000FEC                     PREINC0         equ	4076	;# 
   303   000FED                     POSTDEC0        equ	4077	;# 
   304   000FEE                     POSTINC0        equ	4078	;# 
   305   000FEF                     INDF0           equ	4079	;# 
   306   000FF0                     INTCON3         equ	4080	;# 
   307   000FF1                     INTCON2         equ	4081	;# 
   308   000FF2                     INTCON          equ	4082	;# 
   309   000FF3                     PROD            equ	4083	;# 
   310   000FF3                     PRODL           equ	4083	;# 
   311   000FF4                     PRODH           equ	4084	;# 
   312   000FF5                     TABLAT          equ	4085	;# 
   313   000FF6                     TBLPTR          equ	4086	;# 
   314   000FF6                     TBLPTRL         equ	4086	;# 
   315   000FF7                     TBLPTRH         equ	4087	;# 
   316   000FF8                     TBLPTRU         equ	4088	;# 
   317   000FF9                     PCLAT           equ	4089	;# 
   318   000FF9                     PC              equ	4089	;# 
   319   000FF9                     PCL             equ	4089	;# 
   320   000FFA                     PCLATH          equ	4090	;# 
   321   000FFB                     PCLATU          equ	4091	;# 
   322   000FFC                     STKPTR          equ	4092	;# 
   323   000FFD                     TOS             equ	4093	;# 
   324   000FFD                     TOSL            equ	4093	;# 
   325   000FFE                     TOSH            equ	4094	;# 
   326   000FFF                     TOSU            equ	4095	;# 
   327                           
   328                           	psect	idataCOMRAM
   329   0018C2                     __pidataCOMRAM:
   330                           	callstack 0
   331                           
   332                           ;initializer for _interfaz
   333   0018C2  08                 	db	8
   334                           
   335                           ;initializer for _Estrella
   336   0018C3  04                 	db	4
   337   0018C4  0E                 	db	14
   338   0018C5  1F                 	db	31
   339   0018C6  0E                 	db	14
   340   0018C7  1F                 	db	31
   341   0018C8  0E                 	db	14
   342   0018C9  04                 	db	4
   343   0018CA  00                 	db	0
   344                           
   345                           	psect	idataBANK0
   346   0018CB                     __pidataBANK0:
   347                           	callstack 0
   348                           
   349                           ;initializer for _RayaAlPiso
   350   0018CB  00                 	db	0
   351   0018CC  00                 	db	0
   352   0018CD  00                 	db	0
   353   0018CE  00                 	db	0
   354   0018CF  00                 	db	0
   355   0018D0  00                 	db	0
   356   0018D1  00                 	db	0
   357   0018D2  1F                 	db	31
   358                           
   359                           	psect	mediumconst
   360   007E6C                     __pmediumconst:
   361                           	callstack 0
   362   007E6C  00                 	db	0
   363   007E6D                     _dpowers:
   364                           	callstack 0
   365   007E6D  0001               	dw	1
   366   007E6F  000A               	dw	10
   367   007E71  0064               	dw	100
   368   007E73  03E8               	dw	1000
   369   007E75  2710               	dw	10000
   370   007E77                     __end_of_dpowers:
   371                           	callstack 0
   372   007E77                     STR_22:
   373   007E77  4C                 	db	76	;'L'
   374   007E78  61                 	db	97	;'a'
   375   007E79  20                 	db	32
   376   007E7A  64                 	db	100	;'d'
   377   007E7B  69                 	db	105	;'i'
   378   007E7C  73                 	db	115	;'s'
   379   007E7D  74                 	db	116	;'t'
   380   007E7E  61                 	db	97	;'a'
   381   007E7F  6E                 	db	110	;'n'
   382   007E80  63                 	db	99	;'c'
   383   007E81  69                 	db	105	;'i'
   384   007E82  61                 	db	97	;'a'
   385   007E83  20                 	db	32
   386   007E84  6D                 	db	109	;'m'
   387   007E85  65                 	db	101	;'e'
   388   007E86  64                 	db	100	;'d'
   389   007E87  69                 	db	105	;'i'
   390   007E88  64                 	db	100	;'d'
   391   007E89  61                 	db	97	;'a'
   392   007E8A  20                 	db	32
   393   007E8B  65                 	db	101	;'e'
   394   007E8C  73                 	db	115	;'s'
   395   007E8D  3A                 	db	58	;':'
   396   007E8E  20                 	db	32
   397   007E8F  25                 	db	37
   398   007E90  64                 	db	100	;'d'
   399   007E91  20                 	db	32
   400   007E92  63                 	db	99	;'c'
   401   007E93  6D                 	db	109	;'m'
   402   007E94  0D                 	db	13
   403   007E95  0A                 	db	10
   404   007E96  00                 	db	0
   405   007E97                     STR_20:
   406   007E97  56                 	db	86	;'V'
   407   007E98  61                 	db	97	;'a'
   408   007E99  6C                 	db	108	;'l'
   409   007E9A  6F                 	db	111	;'o'
   410   007E9B  72                 	db	114	;'r'
   411   007E9C  20                 	db	32
   412   007E9D  64                 	db	100	;'d'
   413   007E9E  65                 	db	101	;'e'
   414   007E9F  20                 	db	32
   415   007EA0  50                 	db	80	;'P'
   416   007EA1  57                 	db	87	;'W'
   417   007EA2  4D                 	db	77	;'M'
   418   007EA3  3A                 	db	58	;':'
   419   007EA4  20                 	db	32
   420   007EA5  25                 	db	37
   421   007EA6  64                 	db	100	;'d'
   422   007EA7  25                 	db	37
   423   007EA8  25                 	db	37
   424   007EA9  0D                 	db	13
   425   007EAA  0A                 	db	10
   426   007EAB  00                 	db	0
   427   007EAC                     STR_21:
   428   007EAC  46                 	db	70	;'F'
   429   007EAD  61                 	db	97	;'a'
   430   007EAE  6C                 	db	108	;'l'
   431   007EAF  6C                 	db	108	;'l'
   432   007EB0  61                 	db	97	;'a'
   433   007EB1  20                 	db	32
   434   007EB2  65                 	db	101	;'e'
   435   007EB3  6E                 	db	110	;'n'
   436   007EB4  20                 	db	32
   437   007EB5  65                 	db	101	;'e'
   438   007EB6  6C                 	db	108	;'l'
   439   007EB7  20                 	db	32
   440   007EB8  73                 	db	115	;'s'
   441   007EB9  65                 	db	101	;'e'
   442   007EBA  6E                 	db	110	;'n'
   443   007EBB  73                 	db	115	;'s'
   444   007EBC  6F                 	db	111	;'o'
   445   007EBD  72                 	db	114	;'r'
   446   007EBE  0D                 	db	13
   447   007EBF  0A                 	db	10
   448   007EC0  00                 	db	0
   449   007EC1                     STR_19:
   450   007EC1  56                 	db	86	;'V'
   451   007EC2  61                 	db	97	;'a'
   452   007EC3  6C                 	db	108	;'l'
   453   007EC4  6F                 	db	111	;'o'
   454   007EC5  72                 	db	114	;'r'
   455   007EC6  20                 	db	32
   456   007EC7  64                 	db	100	;'d'
   457   007EC8  65                 	db	101	;'e'
   458   007EC9  6C                 	db	108	;'l'
   459   007ECA  20                 	db	32
   460   007ECB  41                 	db	65	;'A'
   461   007ECC  44                 	db	68	;'D'
   462   007ECD  43                 	db	67	;'C'
   463   007ECE  3A                 	db	58	;':'
   464   007ECF  25                 	db	37
   465   007ED0  64                 	db	100	;'d'
   466   007ED1  0D                 	db	13
   467   007ED2  0A                 	db	10
   468   007ED3  00                 	db	0
   469   007ED4                     STR_27:
   470   007ED4  50                 	db	80	;'P'
   471   007ED5  69                 	db	105	;'i'
   472   007ED6  65                 	db	101	;'e'
   473   007ED7  7A                 	db	122	;'z'
   474   007ED8  61                 	db	97	;'a'
   475   007ED9  73                 	db	115	;'s'
   476   007EDA  20                 	db	32
   477   007EDB  61                 	db	97	;'a'
   478   007EDC  20                 	db	32
   479   007EDD  63                 	db	99	;'c'
   480   007EDE  6F                 	db	111	;'o'
   481   007EDF  6E                 	db	110	;'n'
   482   007EE0  74                 	db	116	;'t'
   483   007EE1  61                 	db	97	;'a'
   484   007EE2  72                 	db	114	;'r'
   485   007EE3  3A                 	db	58	;':'
   486   007EE4  00                 	db	0
   487   007EE5                     STR_15:
   488   007EE5  43                 	db	67	;'C'
   489   007EE6  75                 	db	117	;'u'
   490   007EE7  65                 	db	101	;'e'
   491   007EE8  6E                 	db	110	;'n'
   492   007EE9  74                 	db	116	;'t'
   493   007EEA  61                 	db	97	;'a'
   494   007EEB  20                 	db	32
   495   007EEC  43                 	db	67	;'C'
   496   007EED  75                 	db	117	;'u'
   497   007EEE  6D                 	db	109	;'m'
   498   007EEF  70                 	db	112	;'p'
   499   007EF0  6C                 	db	108	;'l'
   500   007EF1  69                 	db	105	;'i'
   501   007EF2  64                 	db	100	;'d'
   502   007EF3  61                 	db	97	;'a'
   503   007EF4  00                 	db	0
   504   007EF5                     STR_3:
   505   007EF5  43                 	db	67	;'C'
   506   007EF6  6F                 	db	111	;'o'
   507   007EF7  6E                 	db	110	;'n'
   508   007EF8  74                 	db	116	;'t'
   509   007EF9  69                 	db	105	;'i'
   510   007EFA  6E                 	db	110	;'n'
   511   007EFB  75                 	db	117	;'u'
   512   007EFC  61                 	db	97	;'a'
   513   007EFD  72                 	db	114	;'r'
   514   007EFE  20                 	db	32
   515   007EFF  64                 	db	100	;'d'
   516   007F00  65                 	db	101	;'e'
   517   007F01  73                 	db	115	;'s'
   518   007F02  64                 	db	100	;'d'
   519   007F03  65                 	db	101	;'e'
   520   007F04  00                 	db	0
   521   007F05                     STR_25:
   522   007F05  20                 	db	32
   523   007F06  20                 	db	32
   524   007F07  20                 	db	32
   525   007F08  42                 	db	66	;'B'
   526   007F09  69                 	db	105	;'i'
   527   007F0A  65                 	db	101	;'e'
   528   007F0B  6E                 	db	110	;'n'
   529   007F0C  76                 	db	118	;'v'
   530   007F0D  65                 	db	101	;'e'
   531   007F0E  6E                 	db	110	;'n'
   532   007F0F  69                 	db	105	;'i'
   533   007F10  64                 	db	100	;'d'
   534   007F11  6F                 	db	111	;'o'
   535   007F12  20                 	db	32
   536   007F13  00                 	db	0
   537   007F14                     STR_16:
   538   007F14  20                 	db	32
   539   007F15  20                 	db	32
   540   007F16  20                 	db	32
   541   007F17  50                 	db	80	;'P'
   542   007F18  72                 	db	114	;'r'
   543   007F19  65                 	db	101	;'e'
   544   007F1A  73                 	db	115	;'s'
   545   007F1B  69                 	db	105	;'i'
   546   007F1C  6F                 	db	111	;'o'
   547   007F1D  6E                 	db	110	;'n'
   548   007F1E  65                 	db	101	;'e'
   549   007F1F  20                 	db	32
   550   007F20  4F                 	db	79	;'O'
   551   007F21  4B                 	db	75	;'K'
   552   007F22  00                 	db	0
   553   007F23                     STR_30:
   554   007F23  56                 	db	86	;'V'
   555   007F24  61                 	db	97	;'a'
   556   007F25  6C                 	db	108	;'l'
   557   007F26  6F                 	db	111	;'o'
   558   007F27  72                 	db	114	;'r'
   559   007F28  20                 	db	32
   560   007F29  6D                 	db	109	;'m'
   561   007F2A  69                 	db	105	;'i'
   562   007F2B  6E                 	db	110	;'n'
   563   007F2C  3A                 	db	58	;':'
   564   007F2D  20                 	db	32
   565   007F2E  30                 	db	48	;'0'
   566   007F2F  31                 	db	49	;'1'
   567   007F30  00                 	db	0
   568   007F31                     STR_29:
   569   007F31  56                 	db	86	;'V'
   570   007F32  61                 	db	97	;'a'
   571   007F33  6C                 	db	108	;'l'
   572   007F34  6F                 	db	111	;'o'
   573   007F35  72                 	db	114	;'r'
   574   007F36  20                 	db	32
   575   007F37  6D                 	db	109	;'m'
   576   007F38  61                 	db	97	;'a'
   577   007F39  78                 	db	120	;'x'
   578   007F3A  3A                 	db	58	;':'
   579   007F3B  20                 	db	32
   580   007F3C  35                 	db	53	;'5'
   581   007F3D  39                 	db	57	;'9'
   582   007F3E  00                 	db	0
   583   007F3F                     STR_18:
   584   007F3F  20                 	db	32
   585   007F40  20                 	db	32
   586   007F41  20                 	db	32
   587   007F42  45                 	db	69	;'E'
   588   007F43  4D                 	db	77	;'M'
   589   007F44  45                 	db	69	;'E'
   590   007F45  52                 	db	82	;'R'
   591   007F46  47                 	db	71	;'G'
   592   007F47  45                 	db	69	;'E'
   593   007F48  4E                 	db	78	;'N'
   594   007F49  43                 	db	67	;'C'
   595   007F4A  49                 	db	73	;'I'
   596   007F4B  41                 	db	65	;'A'
   597   007F4C  00                 	db	0
   598   007F4D                     STR_28:
   599   007F4D  20                 	db	32
   600   007F4E  20                 	db	32
   601   007F4F  20                 	db	32
   602   007F50  20                 	db	32
   603   007F51  20                 	db	32
   604   007F52  21                 	db	33
   605   007F53  45                 	db	69	;'E'
   606   007F54  72                 	db	114	;'r'
   607   007F55  72                 	db	114	;'r'
   608   007F56  6F                 	db	111	;'o'
   609   007F57  72                 	db	114	;'r'
   610   007F58  21                 	db	33
   611   007F59  00                 	db	0
   612   007F5A                     STR_2:
   613   007F5A  20                 	db	32
   614   007F5B  20                 	db	32
   615   007F5C  20                 	db	32
   616   007F5D  20                 	db	32
   617   007F5E  20                 	db	32
   618   007F5F  45                 	db	69	;'E'
   619   007F60  4E                 	db	78	;'N'
   620   007F61  45                 	db	69	;'E'
   621   007F62  52                 	db	82	;'R'
   622   007F63  47                 	db	71	;'G'
   623   007F64  49                 	db	73	;'I'
   624   007F65  41                 	db	65	;'A'
   625   007F66  00                 	db	0
   626   007F67                     STR_17:
   627   007F67  20                 	db	32
   628   007F68  20                 	db	32
   629   007F69  20                 	db	32
   630   007F6A  50                 	db	80	;'P'
   631   007F6B  41                 	db	65	;'A'
   632   007F6C  52                 	db	82	;'R'
   633   007F6D  41                 	db	65	;'A'
   634   007F6E  44                 	db	68	;'D'
   635   007F6F  41                 	db	65	;'A'
   636   007F70  20                 	db	32
   637   007F71  44                 	db	68	;'D'
   638   007F72  45                 	db	69	;'E'
   639   007F73  00                 	db	0
   640   007F74                     STR_1:
   641   007F74  20                 	db	32
   642   007F75  20                 	db	32
   643   007F76  20                 	db	32
   644   007F77  20                 	db	32
   645   007F78  46                 	db	70	;'F'
   646   007F79  41                 	db	65	;'A'
   647   007F7A  4C                 	db	76	;'L'
   648   007F7B  4C                 	db	76	;'L'
   649   007F7C  41                 	db	65	;'A'
   650   007F7D  20                 	db	32
   651   007F7E  44                 	db	68	;'D'
   652   007F7F  45                 	db	69	;'E'
   653   007F80  00                 	db	0
   654   007F81                     STR_11:
   655   007F81  20                 	db	32
   656   007F82  20                 	db	32
   657   007F83  20                 	db	32
   658   007F84  20                 	db	32
   659   007F85  52                 	db	82	;'R'
   660   007F86  45                 	db	69	;'E'
   661   007F87  53                 	db	83	;'S'
   662   007F88  45                 	db	69	;'E'
   663   007F89  54                 	db	84	;'T'
   664   007F8A  20                 	db	32
   665   007F8B  44                 	db	68	;'D'
   666   007F8C  45                 	db	69	;'E'
   667   007F8D  00                 	db	0
   668   007F8E                     STR_12:
   669   007F8E  20                 	db	32
   670   007F8F  20                 	db	32
   671   007F90  20                 	db	32
   672   007F91  20                 	db	32
   673   007F92  20                 	db	32
   674   007F93  55                 	db	85	;'U'
   675   007F94  53                 	db	83	;'S'
   676   007F95  55                 	db	85	;'U'
   677   007F96  41                 	db	65	;'A'
   678   007F97  52                 	db	82	;'R'
   679   007F98  49                 	db	73	;'I'
   680   007F99  4F                 	db	79	;'O'
   681   007F9A  00                 	db	0
   682   007F9B                     STR_4:
   683   007F9B  20                 	db	32
   684   007F9C  20                 	db	32
   685   007F9D  20                 	db	32
   686   007F9E  63                 	db	99	;'c'
   687   007F9F  75                 	db	117	;'u'
   688   007FA0  65                 	db	101	;'e'
   689   007FA1  6E                 	db	110	;'n'
   690   007FA2  74                 	db	116	;'t'
   691   007FA3  61                 	db	97	;'a'
   692   007FA4  3A                 	db	58	;':'
   693   007FA5  20                 	db	32
   694   007FA6  00                 	db	0
   695   007FA7                     STR_13:
   696   007FA7  46                 	db	70	;'F'
   697   007FA8  61                 	db	97	;'a'
   698   007FA9  6C                 	db	108	;'l'
   699   007FAA  74                 	db	116	;'t'
   700   007FAB  61                 	db	97	;'a'
   701   007FAC  6E                 	db	110	;'n'
   702   007FAD  74                 	db	116	;'t'
   703   007FAE  65                 	db	101	;'e'
   704   007FAF  73                 	db	115	;'s'
   705   007FB0  3A                 	db	58	;':'
   706   007FB1  20                 	db	32
   707   007FB2  00                 	db	0
   708   007FB3                     STR_6:
   709   007FB3  53                 	db	83	;'S'
   710   007FB4  65                 	db	101	;'e'
   711   007FB5  6C                 	db	108	;'l'
   712   007FB6  65                 	db	101	;'e'
   713   007FB7  63                 	db	99	;'c'
   714   007FB8  63                 	db	99	;'c'
   715   007FB9  69                 	db	105	;'i'
   716   007FBA  6F                 	db	111	;'o'
   717   007FBB  6E                 	db	110	;'n'
   718   007FBC  65                 	db	101	;'e'
   719   007FBD  3A                 	db	58	;':'
   720   007FBE  00                 	db	0
   721   007FBF                     STR_5:
   722   007FBF  31                 	db	49	;'1'
   723   007FC0  3D                 	db	61	;'='
   724   007FC1  53                 	db	83	;'S'
   725   007FC2  49                 	db	73	;'I'
   726   007FC3  20                 	db	32
   727   007FC4  20                 	db	32
   728   007FC5  20                 	db	32
   729   007FC6  32                 	db	50	;'2'
   730   007FC7  3D                 	db	61	;'='
   731   007FC8  4E                 	db	78	;'N'
   732   007FC9  4F                 	db	79	;'O'
   733   007FCA  00                 	db	0
   734   007FCB                     STR_26:
   735   007FCB  20                 	db	32
   736   007FCC  20                 	db	32
   737   007FCD  20                 	db	32
   738   007FCE  20                 	db	32
   739   007FCF  55                 	db	85	;'U'
   740   007FD0  73                 	db	115	;'s'
   741   007FD1  75                 	db	117	;'u'
   742   007FD2  61                 	db	97	;'a'
   743   007FD3  72                 	db	114	;'r'
   744   007FD4  69                 	db	105	;'i'
   745   007FD5  6F                 	db	111	;'o'
   746   007FD6  00                 	db	0
   747   007FD7                     STR_14:
   748   007FD7  4F                 	db	79	;'O'
   749   007FD8  62                 	db	98	;'b'
   750   007FD9  6A                 	db	106	;'j'
   751   007FDA  65                 	db	101	;'e'
   752   007FDB  74                 	db	116	;'t'
   753   007FDC  69                 	db	105	;'i'
   754   007FDD  76                 	db	118	;'v'
   755   007FDE  6F                 	db	111	;'o'
   756   007FDF  3A                 	db	58	;':'
   757   007FE0  20                 	db	32
   758   007FE1  00                 	db	0
   759   007FE2                     STR_10:
   760   007FE2  72                 	db	114	;'r'
   761   007FE3  65                 	db	101	;'e'
   762   007FE4  69                 	db	105	;'i'
   763   007FE5  6E                 	db	110	;'n'
   764   007FE6  69                 	db	105	;'i'
   765   007FE7  63                 	db	99	;'c'
   766   007FE8  69                 	db	105	;'i'
   767   007FE9  61                 	db	97	;'a'
   768   007FEA  64                 	db	100	;'d'
   769   007FEB  61                 	db	97	;'a'
   770   007FEC  00                 	db	0
   771   007FED                     STR_8:
   772   007FED  72                 	db	114	;'r'
   773   007FEE  65                 	db	101	;'e'
   774   007FEF  73                 	db	115	;'s'
   775   007FF0  74                 	db	116	;'t'
   776   007FF1  61                 	db	97	;'a'
   777   007FF2  75                 	db	117	;'u'
   778   007FF3  72                 	db	114	;'r'
   779   007FF4  61                 	db	97	;'a'
   780   007FF5  64                 	db	100	;'d'
   781   007FF6  61                 	db	97	;'a'
   782   007FF7  00                 	db	0
   783   007FF8                     STR_7:
   784   007FF8  43                 	db	67	;'C'
   785   007FF9  75                 	db	117	;'u'
   786   007FFA  65                 	db	101	;'e'
   787   007FFB  6E                 	db	110	;'n'
   788   007FFC  74                 	db	116	;'t'
   789   007FFD  61                 	db	97	;'a'
   790   007FFE  00                 	db	0
   791   007FF8                     STR_9           equ	STR_7
   792   007F67                     STR_23          equ	STR_17
   793   007F3F                     STR_24          equ	STR_18
   794   007FFF  00                 	db	0	; dummy byte at the end
   795   000002                     __activetblptr  equ	2
   796                           
   797                           	psect	nvCOMRAM
   798   000051                     __pnvCOMRAM:
   799                           	callstack 0
   800   000051                     _Pulsado:
   801                           	callstack 0
   802   000051                     	ds	1
   803   007D31                     _WR             set	32049
   804   007D32                     _WREN           set	32050
   805   007D30                     _RD             set	32048
   806   007D36                     _CFGS           set	32054
   807   007D37                     _EEPGD          set	32055
   808   007C11                     _RC1            set	31761
   809   007C10                     _RC0            set	31760
   810   007D08                     _CCP2IF         set	32008
   811   007CF0                     _TMR1IF         set	31984
   812   007D61                     _TRMT           set	32097
   813   007E11                     _GO_DONE        set	32273
   814   007E10                     _ADON           set	32272
   815   007C0F                     _RB7            set	31759
   816   007C0E                     _RB6            set	31758
   817   007C0D                     _RB5            set	31757
   818   007C0C                     _RB4            set	31756
   819   007E68                     _TMR1ON         set	32360
   820   007CF5                     _RCIF           set	31989
   821   007E81                     _POR            set	32385
   822   007CED                     _RCIE           set	31981
   823   007F97                     _GIE            set	32663
   824   007F96                     _PEIE           set	32662
   825   007F93                     _RBIE           set	32659
   826   007F90                     _RBIF           set	32656
   827   007F8F                     _RBPU           set	32655
   828   007EAF                     _TMR0ON         set	32431
   829   007F95                     _TMR0IE         set	32661
   830   007F92                     _TMR0IF         set	32658
   831   007C95                     _TRISA5         set	31893
   832   007CA7                     _TRISC7         set	31911
   833   007CA6                     _TRISC6         set	31910
   834   007C94                     _TRISA4         set	31892
   835   007C4B                     _LATA3          set	31819
   836   007C93                     _TRISA3         set	31891
   837   007C4A                     _LATA2          set	31818
   838   007C92                     _TRISA2         set	31890
   839   007C49                     _LATA1          set	31817
   840   007C91                     _TRISA1         set	31889
   841   007C58                     _LATC0          set	31832
   842   007CA1                     _TRISC1         set	31905
   843   007CA0                     _TRISC0         set	31904
   844   007C4E                     _LATA6          set	31822
   845   007C96                     _TRISA6         set	31894
   846   007CA2                     _TRISC2         set	31906
   847   007C4D                     _LATA5          set	31821
   848   007C4C                     _LATA4          set	31820
   849   000FBB                     _CCPR2          set	4027
   850   000FCE                     _TMR1           set	4046
   851   000FC3                     _ADRES          set	4035
   852   000FD6                     _TMR0           set	4054
   853   000FA7                     _EECON2         set	4007
   854   000FA8                     _EEDATA         set	4008
   855   000FA9                     _EEADR          set	4009
   856   000FBA                     _CCP2CON        set	4026
   857   000FAD                     _TXREG          set	4013
   858   000F81                     _PORTB          set	3969
   859   000FAE                     _RCREG          set	4014
   860   000FAB                     _RCSTAbits      set	4011
   861   000F8A                     _LATB           set	3978
   862   000F93                     _TRISB          set	3987
   863   000FD5                     _T0CON          set	4053
   864   000FAF                     _SPBRG          set	4015
   865   000FB0                     _SPBRGH         set	4016
   866   000FB8                     _BAUDCON        set	4024
   867   000FAB                     _RCSTA          set	4011
   868   000FAC                     _TXSTA          set	4012
   869   000F95                     _TRISD          set	3989
   870   000F8D                     _LATE           set	3981
   871   000F96                     _TRISE          set	3990
   872   000FCD                     _T1CON          set	4045
   873   000FC0                     _ADCON2         set	4032
   874   000FC2                     _ADCON0         set	4034
   875   000FCA                     _T2CONbits      set	4042
   876   000FCC                     _TMR2           set	4044
   877   000FBD                     _CCP1CON        set	4029
   878   000FCA                     _T2CON          set	4042
   879   000FCB                     _PR2            set	4043
   880   000FC1                     _ADCON1         set	4033
   881   000FD3                     _OSCCON         set	4051
   882   000FBD                     _CCP1CONbits    set	4029
   883   000FBE                     _CCPR1L         set	4030
   884   000F8C                     _LATD           set	3980
   885                           
   886                           ; #config settings
   887                           
   888                           	psect	cinit
   889   001198                     __pcinit:
   890                           	callstack 0
   891   001198                     start_initialization:
   892                           	callstack 0
   893   001198                     __initialization:
   894                           	callstack 0
   895                           
   896                           ; Initialize objects allocated to BANK0 (8 bytes)
   897                           ; load TBLPTR registers with __pidataBANK0
   898   001198  0ECB               	movlw	low __pidataBANK0
   899   00119A  6EF6               	movwf	tblptrl,c
   900   00119C  0E18               	movlw	high __pidataBANK0
   901   00119E  6EF7               	movwf	tblptrh,c
   902   0011A0  0E00               	movlw	low (__pidataBANK0 shr (0+16))
   903   0011A2  6EF8               	movwf	tblptru,c
   904   0011A4  EE00  F073         	lfsr	0,__pdataBANK0
   905   0011A8  EE10 F008          	lfsr	1,8
   906   0011AC                     copy_data0:
   907   0011AC  0009               	tblrd		*+
   908   0011AE  CFF5 FFEE          	movff	tablat,postinc0
   909   0011B2  50E5               	movf	postdec1,w,c
   910   0011B4  50E1               	movf	fsr1l,w,c
   911   0011B6  E1FA               	bnz	copy_data0
   912                           
   913                           ; Initialize objects allocated to COMRAM (9 bytes)
   914                           ; load TBLPTR registers with __pidataCOMRAM
   915   0011B8  0EC2               	movlw	low __pidataCOMRAM
   916   0011BA  6EF6               	movwf	tblptrl,c
   917   0011BC  0E18               	movlw	high __pidataCOMRAM
   918   0011BE  6EF7               	movwf	tblptrh,c
   919   0011C0  0E00               	movlw	low (__pidataCOMRAM shr (0+16))
   920   0011C2  6EF8               	movwf	tblptru,c
   921   0011C4  EE00  F048         	lfsr	0,__pdataCOMRAM
   922   0011C8  EE10 F009          	lfsr	1,9
   923   0011CC                     copy_data1:
   924   0011CC  0009               	tblrd		*+
   925   0011CE  CFF5 FFEE          	movff	tablat,postinc0
   926   0011D2  50E5               	movf	postdec1,w,c
   927   0011D4  50E1               	movf	fsr1l,w,c
   928   0011D6  E1FA               	bnz	copy_data1
   929                           
   930                           ; Clear objects allocated to COMRAM (31 bytes)
   931   0011D8  EE00  F029         	lfsr	0,__pbssCOMRAM
   932   0011DC  0E1F               	movlw	31
   933   0011DE                     clear_0:
   934   0011DE  6AEE               	clrf	postinc0,c
   935   0011E0  06E8               	decf	wreg,f,c
   936   0011E2  E1FD               	bnz	clear_0
   937   0011E4                     end_of_initialization:
   938                           	callstack 0
   939   0011E4                     __end_of__initialization:
   940                           	callstack 0
   941   0011E4  9052               	bcf	int$flags,0,c	;clear compiler interrupt flag (level 1)
   942   0011E6  9252               	bcf	int$flags,1,c	;clear compiler interrupt flag (level 2)
   943   0011E8  0E00               	movlw	low (__Lmediumconst shr (0+16))
   944   0011EA  6EF8               	movwf	tblptru,c
   945   0011EC  0100               	movlb	0
   946   0011EE  EF09  F000         	goto	_main	;jump to C main() function
   947                           
   948                           	psect	bssCOMRAM
   949   000029                     __pbssCOMRAM:
   950                           	callstack 0
   951   000029                     _objetivoGuardado:
   952                           	callstack 0
   953   000029                     	ds	2
   954   00002B                     _valorGuardado:
   955                           	callstack 0
   956   00002B                     	ds	2
   957   00002D                     _anchoPulso:
   958                           	callstack 0
   959   00002D                     	ds	2
   960   00002F                     _valorADC2:
   961                           	callstack 0
   962   00002F                     	ds	2
   963   000031                     _valorADC:
   964                           	callstack 0
   965   000031                     	ds	2
   966   000033                     _Objetivo:
   967                           	callstack 0
   968   000033                     	ds	2
   969   000035                     _contadorRGB:
   970                           	callstack 0
   971   000035                     	ds	2
   972   000037                     _contador:
   973                           	callstack 0
   974   000037                     	ds	2
   975   000039                     _Supercontador:
   976                           	callstack 0
   977   000039                     	ds	2
   978   00003B                     _pwm_duty_perc:
   979                           	callstack 0
   980   00003B                     	ds	1
   981   00003C                     _control_manual_pwm:
   982                           	callstack 0
   983   00003C                     	ds	1
   984   00003D                     _modoReversa:
   985                           	callstack 0
   986   00003D                     	ds	1
   987   00003E                     _porcentajeADC:
   988                           	callstack 0
   989   00003E                     	ds	1
   990   00003F                     _ctimeout:
   991                           	callstack 0
   992   00003F                     	ds	1
   993   000040                     _etimeout:
   994                           	callstack 0
   995   000040                     	ds	1
   996   000041                     _d:
   997                           	callstack 0
   998   000041                     	ds	1
   999   000042                     _datoSerial:
  1000                           	callstack 0
  1001   000042                     	ds	1
  1002   000043                     _Inactividad:
  1003                           	callstack 0
  1004   000043                     	ds	1
  1005   000044                     _Tecla:
  1006                           	callstack 0
  1007   000044                     	ds	1
  1008   000045                     _salir:
  1009                           	callstack 0
  1010   000045                     	ds	1
  1011   000046                     _editor:
  1012                           	callstack 0
  1013   000046                     	ds	1
  1014   000047                     _posicion:
  1015                           	callstack 0
  1016   000047                     	ds	1
  1017                           
  1018                           	psect	dataCOMRAM
  1019   000048                     __pdataCOMRAM:
  1020                           	callstack 0
  1021   000048                     _interfaz:
  1022                           	callstack 0
  1023   000048                     	ds	1
  1024   000049                     _Estrella:
  1025                           	callstack 0
  1026   000049                     	ds	8
  1027                           
  1028                           	psect	dataBANK0
  1029   000073                     __pdataBANK0:
  1030                           	callstack 0
  1031   000073                     _RayaAlPiso:
  1032                           	callstack 0
  1033   000073                     	ds	8
  1034                           
  1035                           	psect	cstackBANK0
  1036   000060                     __pcstackBANK0:
  1037                           	callstack 0
  1038   000060                     ?___lwdiv:
  1039                           	callstack 0
  1040   000060                     ConfiguraLCD@a:
  1041                           	callstack 0
  1042   000060                     EEPROM_Read@address:
  1043                           	callstack 0
  1044   000060                     EEPROM_Write@data:
  1045                           	callstack 0
  1046   000060                     ___lbmod@divisor:
  1047                           	callstack 0
  1048   000060                     ___lwdiv@dividend:
  1049                           	callstack 0
  1050   000060                     ??_RetardoLCD:
  1051   000060                     
  1052                           ; 1 bytes @ 0x0
  1053   000060                     	ds	1
  1054   000061                     ?_LeerContador:
  1055                           	callstack 0
  1056   000061                     ?_LeerObjetivo:
  1057                           	callstack 0
  1058   000061                     RetardoLCD@a:
  1059                           	callstack 0
  1060   000061                     EEPROM_Write@address:
  1061                           	callstack 0
  1062   000061                     ___lbmod@dividend:
  1063                           	callstack 0
  1064   000061                     
  1065                           ; 1 bytes @ 0x1
  1066   000061                     	ds	1
  1067   000062                     ___lbmod@counter:
  1068                           	callstack 0
  1069   000062                     GuardarContador@valor:
  1070                           	callstack 0
  1071   000062                     ___lwdiv@divisor:
  1072                           	callstack 0
  1073   000062                     ??_EnviaDato:
  1074                           
  1075                           ; 1 bytes @ 0x2
  1076   000062                     	ds	1
  1077   000063                     EnviaDato@a:
  1078                           	callstack 0
  1079   000063                     ___lbmod@rem:
  1080                           	callstack 0
  1081   000063                     ??_LeerContador:
  1082   000063                     ??_LeerObjetivo:
  1083                           
  1084                           ; 1 bytes @ 0x3
  1085   000063                     	ds	1
  1086   000064                     EscribeLCD_c@a:
  1087                           	callstack 0
  1088   000064                     DireccionaLCD@a:
  1089                           	callstack 0
  1090   000064                     ___lbdiv@divisor:
  1091                           	callstack 0
  1092   000064                     ___lwdiv@counter:
  1093                           	callstack 0
  1094   000064                     GuardarContador@objetivo:
  1095                           	callstack 0
  1096   000064                     
  1097                           ; 1 bytes @ 0x4
  1098   000064                     	ds	1
  1099   000065                     ComandoLCD@a:
  1100                           	callstack 0
  1101   000065                     CrearCaracter@arreglo:
  1102                           	callstack 0
  1103   000065                     ___lbdiv@dividend:
  1104                           	callstack 0
  1105   000065                     MensajeLCD_Var@a:
  1106                           	callstack 0
  1107   000065                     ___lwdiv@quotient:
  1108                           	callstack 0
  1109   000065                     
  1110                           ; 1 bytes @ 0x5
  1111   000065                     	ds	1
  1112   000066                     CrearCaracter@posicionCGRAM:
  1113                           	callstack 0
  1114   000066                     ___lbdiv@counter:
  1115                           	callstack 0
  1116   000066                     
  1117                           ; 1 bytes @ 0x6
  1118   000066                     	ds	1
  1119   000067                     MedirDistancia@aux:
  1120                           	callstack 0
  1121   000067                     ___lbdiv@quotient:
  1122                           	callstack 0
  1123   000067                     CrearCaracter@i:
  1124                           	callstack 0
  1125   000067                     ??_MensajeLCD_Var:
  1126   000067                     
  1127                           ; 1 bytes @ 0x7
  1128   000067                     	ds	1
  1129   000068                     EscribeLCD_n8@b:
  1130                           	callstack 0
  1131                           
  1132                           ; 1 bytes @ 0x8
  1133   000068                     	ds	1
  1134   000069                     EscribeLCD_n8@centena:
  1135                           	callstack 0
  1136   000069                     MensajeLCD_Var@i:
  1137                           	callstack 0
  1138   000069                     
  1139                           ; 1 bytes @ 0x9
  1140   000069                     	ds	1
  1141   00006A                     EscribeLCD_n8@decena:
  1142                           	callstack 0
  1143                           
  1144                           ; 1 bytes @ 0xA
  1145   00006A                     	ds	1
  1146   00006B                     EscribeLCD_n8@unidad:
  1147                           	callstack 0
  1148   00006B                     ??_Bienvenida:
  1149   00006B                     ??_PreguntaAlUsuario:
  1150                           
  1151                           ; 1 bytes @ 0xB
  1152   00006B                     	ds	1
  1153   00006C                     EscribeLCD_n8@a:
  1154                           	callstack 0
  1155                           
  1156                           ; 1 bytes @ 0xC
  1157   00006C                     	ds	1
  1158   00006D                     Bienvenida@i:
  1159                           	callstack 0
  1160                           
  1161                           ; 2 bytes @ 0xD
  1162   00006D                     	ds	2
  1163   00006F                     ??_main:
  1164                           
  1165                           ; 1 bytes @ 0xF
  1166   00006F                     	ds	4
  1167                           
  1168                           	psect	cstackCOMRAM
  1169   000001                     __pcstackCOMRAM:
  1170                           	callstack 0
  1171   000001                     ?_Conversion:
  1172                           	callstack 0
  1173   000001                     ?i2___lwdiv:
  1174                           	callstack 0
  1175   000001                     ?___lmul:
  1176                           	callstack 0
  1177   000001                     putch@data:
  1178                           	callstack 0
  1179   000001                     i2EEPROM_Write@data:
  1180                           	callstack 0
  1181   000001                     i2___lbmod@divisor:
  1182                           	callstack 0
  1183   000001                     PWM_Set10bit@duty10:
  1184                           	callstack 0
  1185   000001                     i2___lwdiv@dividend:
  1186                           	callstack 0
  1187   000001                     ___lmul@multiplier:
  1188                           	callstack 0
  1189   000001                     ??i2_RetardoLCD:
  1190                           
  1191                           ; 1 bytes @ 0x0
  1192   000001                     	ds	1
  1193   000002                     i2RetardoLCD@a:
  1194                           	callstack 0
  1195   000002                     i2EEPROM_Write@address:
  1196                           	callstack 0
  1197   000002                     i2___lbmod@dividend:
  1198                           	callstack 0
  1199   000002                     
  1200                           ; 1 bytes @ 0x1
  1201   000002                     	ds	1
  1202   000003                     Conversion@canal:
  1203                           	callstack 0
  1204   000003                     i2___lbmod@counter:
  1205                           	callstack 0
  1206   000003                     i2GuardarContador@valor:
  1207                           	callstack 0
  1208   000003                     i2___lwdiv@divisor:
  1209                           	callstack 0
  1210   000003                     ??_PWM_Set10bit:
  1211   000003                     ??i2_EnviaDato:
  1212                           
  1213                           ; 1 bytes @ 0x2
  1214   000003                     	ds	1
  1215   000004                     i2EnviaDato@a:
  1216                           	callstack 0
  1217   000004                     i2___lbmod@rem:
  1218                           	callstack 0
  1219                           
  1220                           ; 1 bytes @ 0x3
  1221   000004                     	ds	1
  1222   000005                     i2EscribeLCD_c@a:
  1223                           	callstack 0
  1224   000005                     i2DireccionaLCD@a:
  1225                           	callstack 0
  1226   000005                     i2___lbdiv@divisor:
  1227                           	callstack 0
  1228   000005                     i2GuardarContador@objetivo:
  1229                           	callstack 0
  1230   000005                     i2___lwdiv@quotient:
  1231                           	callstack 0
  1232   000005                     ___lmul@multiplicand:
  1233                           	callstack 0
  1234   000005                     
  1235                           ; 1 bytes @ 0x4
  1236   000005                     	ds	1
  1237   000006                     i2ComandoLCD@a:
  1238                           	callstack 0
  1239   000006                     i2___lbdiv@dividend:
  1240                           	callstack 0
  1241   000006                     i2MensajeLCD_Var@a:
  1242                           	callstack 0
  1243   000006                     
  1244                           ; 1 bytes @ 0x5
  1245   000006                     	ds	1
  1246   000007                     i2___lbdiv@counter:
  1247                           	callstack 0
  1248   000007                     i2___lwdiv@counter:
  1249                           	callstack 0
  1250   000007                     
  1251                           ; 1 bytes @ 0x6
  1252   000007                     	ds	1
  1253   000008                     ?___lwmod:
  1254                           	callstack 0
  1255   000008                     i2___lbdiv@quotient:
  1256                           	callstack 0
  1257   000008                     ___lwmod@dividend:
  1258                           	callstack 0
  1259   000008                     ??i2_MensajeLCD_Var:
  1260                           
  1261                           ; 1 bytes @ 0x7
  1262   000008                     	ds	1
  1263   000009                     i2EscribeLCD_n8@b:
  1264                           	callstack 0
  1265   000009                     ___lmul@product:
  1266                           	callstack 0
  1267   000009                     
  1268                           ; 1 bytes @ 0x8
  1269   000009                     	ds	1
  1270   00000A                     i2EscribeLCD_n8@centena:
  1271                           	callstack 0
  1272   00000A                     ___lwmod@divisor:
  1273                           	callstack 0
  1274   00000A                     i2MensajeLCD_Var@i:
  1275                           	callstack 0
  1276   00000A                     
  1277                           ; 1 bytes @ 0x9
  1278   00000A                     	ds	1
  1279   00000B                     i2EscribeLCD_n8@decena:
  1280                           	callstack 0
  1281                           
  1282                           ; 1 bytes @ 0xA
  1283   00000B                     	ds	1
  1284   00000C                     ___lwmod@counter:
  1285                           	callstack 0
  1286   00000C                     i2EscribeLCD_n8@unidad:
  1287                           	callstack 0
  1288   00000C                     
  1289                           ; 1 bytes @ 0xB
  1290   00000C                     	ds	1
  1291   00000D                     ?_printf:
  1292                           	callstack 0
  1293   00000D                     ?___lldiv:
  1294                           	callstack 0
  1295   00000D                     i2EscribeLCD_n8@a:
  1296                           	callstack 0
  1297   00000D                     printf@f:
  1298                           	callstack 0
  1299   00000D                     ___lldiv@dividend:
  1300                           	callstack 0
  1301                           
  1302                           ; 4 bytes @ 0xC
  1303   00000D                     	ds	1
  1304   00000E                     ??_ConfigPregunta:
  1305                           
  1306                           ; 1 bytes @ 0xD
  1307   00000E                     	ds	3
  1308   000011                     ___lldiv@divisor:
  1309                           	callstack 0
  1310   000011                     ??_printf:
  1311                           
  1312                           ; 1 bytes @ 0x10
  1313   000011                     	ds	1
  1314   000012                     printf@ap:
  1315                           	callstack 0
  1316                           
  1317                           ; 1 bytes @ 0x11
  1318   000012                     	ds	1
  1319   000013                     printf@flag:
  1320                           	callstack 0
  1321                           
  1322                           ; 1 bytes @ 0x12
  1323   000013                     	ds	1
  1324   000014                     printf@prec:
  1325                           	callstack 0
  1326                           
  1327                           ; 1 bytes @ 0x13
  1328   000014                     	ds	1
  1329   000015                     printf@val:
  1330                           	callstack 0
  1331   000015                     ___lldiv@quotient:
  1332                           	callstack 0
  1333   000015                     
  1334                           ; 1 bytes @ 0x14
  1335   000015                     	ds	2
  1336   000017                     printf@c:
  1337                           	callstack 0
  1338                           
  1339                           ; 1 bytes @ 0x16
  1340   000017                     	ds	2
  1341   000019                     ___lldiv@counter:
  1342                           	callstack 0
  1343                           
  1344                           ; 1 bytes @ 0x18
  1345   000019                     	ds	1
  1346   00001A                     PWM_SetPercent@val_reg:
  1347                           	callstack 0
  1348   00001A                     
  1349                           ; 1 bytes @ 0x19
  1350   00001A                     	ds	2
  1351   00001C                     PWM_SetPercent@perc:
  1352                           	callstack 0
  1353                           
  1354                           ; 1 bytes @ 0x1B
  1355   00001C                     	ds	1
  1356   00001D                     ??_ISR:
  1357                           
  1358                           ; 1 bytes @ 0x1C
  1359   00001D                     	ds	12
  1360                           
  1361 ;;
  1362 ;;Main: autosize = 0, tempsize = 4, incstack = 0, save=0
  1363 ;;
  1364 ;; *************** function _main *****************
  1365 ;; Defined at:
  1366 ;;		line 97 in file "Lab6.c"
  1367 ;; Parameters:    Size  Location     Type
  1368 ;;		None
  1369 ;; Auto vars:     Size  Location     Type
  1370 ;;		None
  1371 ;; Return value:  Size  Location     Type
  1372 ;;                  1    wreg      void 
  1373 ;; Registers used:
  1374 ;;		wreg, fsr2l, fsr2h, status,2, status,0, tblptrl, tblptrh, tblptru, prodl, prodh, cstack
  1375 ;; Tracked objects:
  1376 ;;		On entry : 0/0
  1377 ;;		On exit  : 0/0
  1378 ;;		Unchanged: 0/0
  1379 ;; Data sizes:     COMRAM   BANK0   BANK1   BANK2   BANK3   BANK4   BANK5   BANK6   BANK7
  1380 ;;      Params:         0       0       0       0       0       0       0       0       0
  1381 ;;      Locals:         0       0       0       0       0       0       0       0       0
  1382 ;;      Temps:          0       4       0       0       0       0       0       0       0
  1383 ;;      Totals:         0       4       0       0       0       0       0       0       0
  1384 ;;Total ram usage:        4 bytes
  1385 ;; Hardware stack levels required when called: 15
  1386 ;; This function calls:
  1387 ;;		_Bienvenida
  1388 ;;		_BorraLCD
  1389 ;;		_ConfigVariables
  1390 ;;		_DireccionaLCD
  1391 ;;		_EEPROM_Write
  1392 ;;		_EscribeLCD_n8
  1393 ;;		_GuardarContador
  1394 ;;		_LeerContador
  1395 ;;		_LeerObjetivo
  1396 ;;		_MedirDistancia
  1397 ;;		_MensajeLCD_Var
  1398 ;;		_OcultarCursor
  1399 ;;		_PreguntaAlUsuario
  1400 ;;		___lwdiv
  1401 ;; This function is called by:
  1402 ;;		Startup code after reset
  1403 ;; This function uses a non-reentrant model
  1404 ;;
  1405                           
  1406                           	psect	text0
  1407   000012                     __ptext0:
  1408                           	callstack 0
  1409   000012                     _main:
  1410                           	callstack 16
  1411                           
  1412                           ;Lab6.c: 99: ConfigVariables();
  1413                           
  1414                           ;incstack = 0
  1415   000012  ECAE  F00A         	call	_ConfigVariables	;wreg free
  1416                           
  1417                           ;Lab6.c: 100: editor=0;
  1418   000016  6A46               	clrf	_editor^0,c
  1419                           
  1420                           ;Lab6.c: 101: datoSerial=0;
  1421   000018  6A42               	clrf	_datoSerial^0,c
  1422                           
  1423                           ;Lab6.c: 104: OSCCON = 0b01000000;
  1424   00001A  0E40               	movlw	64
  1425   00001C  6ED3               	movwf	211,c	;volatile
  1426                           
  1427                           ;Lab6.c: 106: ADCON1=0b001110;
  1428   00001E  0E0E               	movlw	14
  1429   000020  6EC1               	movwf	193,c	;volatile
  1430                           
  1431                           ;Lab6.c: 109: TRISC2=0;
  1432   000022  9494               	bcf	3988,2,c	;volatile
  1433                           
  1434                           ;Lab6.c: 110: PR2=249;
  1435   000024  0EF9               	movlw	249
  1436   000026  6ECB               	movwf	203,c	;volatile
  1437                           
  1438                           ;Lab6.c: 111: CCPR1L = 125;
  1439   000028  0E7D               	movlw	125
  1440   00002A  6EBE               	movwf	190,c	;volatile
  1441                           
  1442                           ;Lab6.c: 112: T2CON=0b00000000;
  1443   00002C  6ACA               	clrf	202,c	;volatile
  1444                           
  1445                           ;Lab6.c: 113: CCP1CON =0b00001100;
  1446   00002E  0E0C               	movlw	12
  1447   000030  6EBD               	movwf	189,c	;volatile
  1448                           
  1449                           ;Lab6.c: 114: TMR2=0;
  1450   000032  6ACC               	clrf	204,c	;volatile
  1451                           
  1452                           ;Lab6.c: 115: T2CONbits.TMR2ON=1;
  1453   000034  84CA               	bsf	202,2,c	;volatile
  1454                           
  1455                           ;Lab6.c: 118: TRISA6 = 0;
  1456   000036  9C92               	bcf	3986,6,c	;volatile
  1457                           
  1458                           ;Lab6.c: 119: LATA6 = 0;
  1459   000038  9C89               	bcf	3977,6,c	;volatile
  1460                           
  1461                           ;Lab6.c: 120: modoReversa = 0;
  1462   00003A  6A3D               	clrf	_modoReversa^0,c
  1463                           
  1464                           ;Lab6.c: 122: ADCON0=0b00000001;
  1465   00003C  0E01               	movlw	1
  1466   00003E  6EC2               	movwf	194,c	;volatile
  1467                           
  1468                           ;Lab6.c: 123: ADCON2=0b10001000;
  1469   000040  0E88               	movlw	136
  1470   000042  6EC0               	movwf	192,c	;volatile
  1471                           
  1472                           ;Lab6.c: 125: TRISC0=0;
  1473   000044  9094               	bcf	3988,0,c	;volatile
  1474                           
  1475                           ;Lab6.c: 126: TRISC1=1;
  1476   000046  8294               	bsf	3988,1,c	;volatile
  1477                           
  1478                           ;Lab6.c: 127: LATC0=0;
  1479   000048  908B               	bcf	3979,0,c	;volatile
  1480                           
  1481                           ;Lab6.c: 128: T1CON=0b10010000;
  1482   00004A  0E90               	movlw	144
  1483   00004C  6ECD               	movwf	205,c	;volatile
  1484                           
  1485                           ;Lab6.c: 130: TRISE=0;
  1486   00004E  6A96               	clrf	150,c	;volatile
  1487                           
  1488                           ;Lab6.c: 131: LATE=0b00000111;
  1489   000050  0E07               	movlw	7
  1490   000052  6E8D               	movwf	141,c	;volatile
  1491                           
  1492                           ;Lab6.c: 133: TRISD=0;
  1493   000054  6A95               	clrf	149,c	;volatile
  1494                           
  1495                           ;Lab6.c: 134: LATD=contador;
  1496   000056  C037  FF8C         	movff	_contador,3980	;volatile
  1497                           
  1498                           ;Lab6.c: 136: TRISA1=0;
  1499   00005A  9292               	bcf	3986,1,c	;volatile
  1500                           
  1501                           ;Lab6.c: 137: LATA1=0;
  1502   00005C  9289               	bcf	3977,1,c	;volatile
  1503                           
  1504                           ;Lab6.c: 139: TRISA2=0;
  1505   00005E  9492               	bcf	3986,2,c	;volatile
  1506                           
  1507                           ;Lab6.c: 140: LATA2=0;
  1508   000060  9489               	bcf	3977,2,c	;volatile
  1509                           
  1510                           ;Lab6.c: 142: TRISA3=0;
  1511   000062  9692               	bcf	3986,3,c	;volatile
  1512                           
  1513                           ;Lab6.c: 143: LATA3=0;
  1514   000064  9689               	bcf	3977,3,c	;volatile
  1515                           
  1516                           ;Lab6.c: 144: TRISA4=0;
  1517   000066  9892               	bcf	3986,4,c	;volatile
  1518                           
  1519                           ;Lab6.c: 147: TRISC6=0;
  1520   000068  9C94               	bcf	3988,6,c	;volatile
  1521                           
  1522                           ;Lab6.c: 148: TRISC7=1;
  1523   00006A  8E94               	bsf	3988,7,c	;volatile
  1524                           
  1525                           ;Lab6.c: 149: TXSTA=0b00100100;
  1526   00006C  0E24               	movlw	36
  1527   00006E  6EAC               	movwf	172,c	;volatile
  1528                           
  1529                           ;Lab6.c: 150: RCSTA = 0b10010000;
  1530   000070  0E90               	movlw	144
  1531   000072  6EAB               	movwf	171,c	;volatile
  1532                           
  1533                           ;Lab6.c: 151: BAUDCON=0b00001000;
  1534   000074  0E08               	movlw	8
  1535   000076  6EB8               	movwf	184,c	;volatile
  1536                           
  1537                           ;Lab6.c: 152: SPBRGH = 0;
  1538   000078  6AB0               	clrf	176,c	;volatile
  1539                           
  1540                           ;Lab6.c: 153: SPBRG=25;
  1541   00007A  0E19               	movlw	25
  1542   00007C  6EAF               	movwf	175,c	;volatile
  1543                           
  1544                           ;Lab6.c: 155: TRISC1=1;
  1545   00007E  8294               	bsf	3988,1,c	;volatile
  1546                           
  1547                           ;Lab6.c: 157: TRISA5=0;
  1548   000080  9A92               	bcf	3986,5,c	;volatile
  1549                           
  1550                           ;Lab6.c: 158: LATA5=1;
  1551   000082  8A89               	bsf	3977,5,c	;volatile
  1552                           
  1553                           ;Lab6.c: 161: T0CON=0b00000001;
  1554   000084  0E01               	movlw	1
  1555   000086  6ED5               	movwf	213,c	;volatile
  1556                           
  1557                           ;Lab6.c: 162: TMR0=3036;
  1558   000088  0E0B               	movlw	11
  1559   00008A  6ED7               	movwf	215,c	;volatile
  1560   00008C  0EDC               	movlw	220
  1561   00008E  6ED6               	movwf	214,c	;volatile
  1562                           
  1563                           ;Lab6.c: 163: TMR0IF=0;
  1564   000090  94F2               	bcf	4082,2,c	;volatile
  1565                           
  1566                           ;Lab6.c: 164: TMR0IE=1;
  1567   000092  8AF2               	bsf	4082,5,c	;volatile
  1568                           
  1569                           ;Lab6.c: 165: TMR0ON=1;
  1570   000094  8ED5               	bsf	4053,7,c	;volatile
  1571                           
  1572                           ;Lab6.c: 168: T1CON=0b10000000;
  1573   000096  0E80               	movlw	128
  1574   000098  6ECD               	movwf	205,c	;volatile
  1575                           
  1576                           ;Lab6.c: 171: TRISB=0b11110000;
  1577   00009A  0EF0               	movlw	240
  1578   00009C  6E93               	movwf	147,c	;volatile
  1579                           
  1580                           ;Lab6.c: 172: LATB=0b00000000;
  1581   00009E  6A8A               	clrf	138,c	;volatile
  1582                           
  1583                           ;Lab6.c: 173: RBPU=0;
  1584   0000A0  9EF1               	bcf	4081,7,c	;volatile
  1585                           
  1586                           ;Lab6.c: 174: _delay((unsigned long)((100)*(1000000/4000.0)));
  1587   0000A2  0E21               	movlw	33
  1588   0000A4  0100               	movlb	0	; () banked
  1589   0000A6  6F6F               	movwf	??_main& (0+255),b
  1590   0000A8  0E76               	movlw	118
  1591   0000AA                     u3857:
  1592   0000AA  2EE8               	decfsz	wreg,f,c
  1593   0000AC  D7FE               	bra	u3857
  1594   0000AE  2F6F               	decfsz	??_main& (0+255),f,b
  1595   0000B0  D7FC               	bra	u3857
  1596   0000B2  0000               	nop	
  1597                           
  1598                           ;Lab6.c: 175: RBIF=0;
  1599   0000B4  90F2               	bcf	4082,0,c	;volatile
  1600                           
  1601                           ;Lab6.c: 176: RBIE=1;
  1602   0000B6  86F2               	bsf	4082,3,c	;volatile
  1603                           
  1604                           ;Lab6.c: 178: PEIE=1;
  1605   0000B8  8CF2               	bsf	4082,6,c	;volatile
  1606                           
  1607                           ;Lab6.c: 179: GIE=1;
  1608   0000BA  8EF2               	bsf	4082,7,c	;volatile
  1609                           
  1610                           ;Lab6.c: 180: RCIE=1;
  1611   0000BC  8A9D               	bsf	3997,5,c	;volatile
  1612                           
  1613                           ;Lab6.c: 182: LATA3=1;
  1614   0000BE  8689               	bsf	3977,3,c	;volatile
  1615                           
  1616                           ;Lab6.c: 183: Bienvenida();
  1617   0000C0  EC1D  F007         	call	_Bienvenida	;wreg free
  1618                           
  1619                           ; BSR set to: 0
  1620                           ;Lab6.c: 185: if(POR==0){
  1621   0000C4  B2D0               	btfsc	4048,1,c	;volatile
  1622   0000C6  D11E               	goto	l5062
  1623                           
  1624                           ; BSR set to: 0
  1625                           ;Lab6.c: 186: Inactividad=0;
  1626   0000C8  6A43               	clrf	_Inactividad^0,c
  1627                           
  1628                           ;Lab6.c: 187: POR=1;
  1629   0000CA  82D0               	bsf	4048,1,c	;volatile
  1630                           
  1631                           ; BSR set to: 0
  1632                           ;Lab6.c: 188: valorGuardado = LeerContador();
  1633   0000CC  EC33  F00C         	call	_LeerContador	;wreg free
  1634   0000D0  C061  F02B         	movff	?_LeerContador,_valorGuardado
  1635   0000D4  C062  F02C         	movff	?_LeerContador+1,_valorGuardado+1
  1636                           
  1637                           ;Lab6.c: 189: objetivoGuardado = LeerObjetivo();
  1638   0000D8  EC2A  F00C         	call	_LeerObjetivo	;wreg free
  1639   0000DC  C061  F029         	movff	?_LeerObjetivo,_objetivoGuardado
  1640   0000E0  C062  F02A         	movff	?_LeerObjetivo+1,_objetivoGuardado+1
  1641                           
  1642                           ;Lab6.c: 191: BorraLCD();
  1643   0000E4  EC02  F00C         	call	_BorraLCD	;wreg free
  1644                           
  1645                           ;Lab6.c: 192: OcultarCursor();
  1646   0000E8  EC6E  F00C         	call	_OcultarCursor	;wreg free
  1647                           
  1648                           ;Lab6.c: 193: MensajeLCD_Var("    FALLA DE");
  1649   0000EC  0E74               	movlw	low STR_1
  1650   0000EE  0100               	movlb	0	; () banked
  1651   0000F0  6F65               	movwf	MensajeLCD_Var@a& (0+255),b
  1652   0000F2  0E7F               	movlw	high STR_1
  1653   0000F4  6F66               	movwf	(MensajeLCD_Var@a+1)& (0+255),b
  1654   0000F6  ECF9  F009         	call	_MensajeLCD_Var	;wreg free
  1655                           
  1656                           ; BSR set to: 0
  1657                           ;Lab6.c: 194: DireccionaLCD(0xC0);
  1658   0000FA  0EC0               	movlw	192
  1659   0000FC  ECC9  F00B         	call	_DireccionaLCD
  1660                           
  1661                           ;Lab6.c: 195: MensajeLCD_Var("     ENERGIA");
  1662   000100  0E5A               	movlw	low STR_2
  1663   000102  0100               	movlb	0	; () banked
  1664   000104  6F65               	movwf	MensajeLCD_Var@a& (0+255),b
  1665   000106  0E7F               	movlw	high STR_2
  1666   000108  6F66               	movwf	(MensajeLCD_Var@a+1)& (0+255),b
  1667   00010A  ECF9  F009         	call	_MensajeLCD_Var	;wreg free
  1668                           
  1669                           ; BSR set to: 0
  1670                           ;Lab6.c: 196: _delay((unsigned long)((2000)*(1000000/4000.0)));
  1671   00010E  0E03               	movlw	3
  1672   000110  0100               	movlb	0	; () banked
  1673   000112  6F70               	movwf	(??_main+1)& (0+255),b
  1674   000114  0E8A               	movlw	138
  1675   000116  6F6F               	movwf	??_main& (0+255),b
  1676   000118  0E55               	movlw	85
  1677   00011A                     u3867:
  1678   00011A  2EE8               	decfsz	wreg,f,c
  1679   00011C  D7FE               	bra	u3867
  1680   00011E  2F6F               	decfsz	??_main& (0+255),f,b
  1681   000120  D7FC               	bra	u3867
  1682   000122  2F70               	decfsz	(??_main+1)& (0+255),f,b
  1683   000124  D7FA               	bra	u3867
  1684   000126  D000               	nop2	
  1685                           
  1686                           ;Lab6.c: 198: if(valorGuardado > 0 && valorGuardado <= 59 && objetivoGuardado > 0){
  1687   000128  502B               	movf	_valorGuardado^0,w,c
  1688   00012A  102C               	iorwf	(_valorGuardado+1)^0,w,c
  1689   00012C  B4D8               	btfsc	status,2,c
  1690   00012E  D11A               	goto	l5076
  1691   000130  502C               	movf	(_valorGuardado+1)^0,w,c
  1692   000132  E103               	bnz	u3571
  1693   000134  0E3C               	movlw	60
  1694   000136  5C2B               	subwf	_valorGuardado^0,w,c
  1695   000138  B0D8               	btfsc	status,0,c
  1696   00013A                     u3571:
  1697   00013A  D114               	goto	l5076
  1698   00013C  5029               	movf	_objetivoGuardado^0,w,c
  1699   00013E  102A               	iorwf	(_objetivoGuardado+1)^0,w,c
  1700   000140  B4D8               	btfsc	status,2,c
  1701   000142  D110               	goto	l5076
  1702                           
  1703                           ;Lab6.c: 199: Inactividad=0;
  1704   000144  6A43               	clrf	_Inactividad^0,c
  1705                           
  1706                           ;Lab6.c: 200: BorraLCD();
  1707   000146  EC02  F00C         	call	_BorraLCD	;wreg free
  1708                           
  1709                           ;Lab6.c: 201: MensajeLCD_Var("Continuar desde");
  1710   00014A  0EF5               	movlw	low STR_3
  1711   00014C  0100               	movlb	0	; () banked
  1712   00014E  6F65               	movwf	MensajeLCD_Var@a& (0+255),b
  1713   000150  0E7E               	movlw	high STR_3
  1714   000152  6F66               	movwf	(MensajeLCD_Var@a+1)& (0+255),b
  1715   000154  ECF9  F009         	call	_MensajeLCD_Var	;wreg free
  1716                           
  1717                           ; BSR set to: 0
  1718                           ;Lab6.c: 202: DireccionaLCD(0xC0);
  1719   000158  0EC0               	movlw	192
  1720   00015A  ECC9  F00B         	call	_DireccionaLCD
  1721                           
  1722                           ;Lab6.c: 203: MensajeLCD_Var("   cuenta: ");
  1723   00015E  0E9B               	movlw	low STR_4
  1724   000160  0100               	movlb	0	; () banked
  1725   000162  6F65               	movwf	MensajeLCD_Var@a& (0+255),b
  1726   000164  0E7F               	movlw	high STR_4
  1727   000166  6F66               	movwf	(MensajeLCD_Var@a+1)& (0+255),b
  1728   000168  ECF9  F009         	call	_MensajeLCD_Var	;wreg free
  1729                           
  1730                           ; BSR set to: 0
  1731                           ;Lab6.c: 204: EscribeLCD_n8(valorGuardado, 2);
  1732   00016C  0E02               	movlw	2
  1733   00016E  6F68               	movwf	EscribeLCD_n8@b& (0+255),b
  1734   000170  502B               	movf	_valorGuardado^0,w,c
  1735   000172  ECBD  F005         	call	_EscribeLCD_n8
  1736                           
  1737                           ;Lab6.c: 205: _delay((unsigned long)((5000)*(1000000/4000.0)));
  1738   000176  0E07               	movlw	7
  1739   000178  0100               	movlb	0	; () banked
  1740   00017A  6F70               	movwf	(??_main+1)& (0+255),b
  1741   00017C  0E58               	movlw	88
  1742   00017E  6F6F               	movwf	??_main& (0+255),b
  1743   000180  0E59               	movlw	89
  1744   000182                     u3877:
  1745   000182  2EE8               	decfsz	wreg,f,c
  1746   000184  D7FE               	bra	u3877
  1747   000186  2F6F               	decfsz	??_main& (0+255),f,b
  1748   000188  D7FC               	bra	u3877
  1749   00018A  2F70               	decfsz	(??_main+1)& (0+255),f,b
  1750   00018C  D7FA               	bra	u3877
  1751   00018E  D000               	nop2	
  1752                           
  1753                           ;Lab6.c: 207: BorraLCD();
  1754   000190  EC02  F00C         	call	_BorraLCD	;wreg free
  1755                           
  1756                           ;Lab6.c: 208: MensajeLCD_Var("1=SI   2=NO");
  1757   000194  0EBF               	movlw	low STR_5
  1758   000196  0100               	movlb	0	; () banked
  1759   000198  6F65               	movwf	MensajeLCD_Var@a& (0+255),b
  1760   00019A  0E7F               	movlw	high STR_5
  1761   00019C  6F66               	movwf	(MensajeLCD_Var@a+1)& (0+255),b
  1762   00019E  ECF9  F009         	call	_MensajeLCD_Var	;wreg free
  1763                           
  1764                           ; BSR set to: 0
  1765                           ;Lab6.c: 209: DireccionaLCD(0xC0);
  1766   0001A2  0EC0               	movlw	192
  1767   0001A4  ECC9  F00B         	call	_DireccionaLCD
  1768                           
  1769                           ;Lab6.c: 210: MensajeLCD_Var("Seleccione:");
  1770   0001A8  0EB3               	movlw	low STR_6
  1771   0001AA  0100               	movlb	0	; () banked
  1772   0001AC  6F65               	movwf	MensajeLCD_Var@a& (0+255),b
  1773   0001AE  0E7F               	movlw	high STR_6
  1774   0001B0  6F66               	movwf	(MensajeLCD_Var@a+1)& (0+255),b
  1775   0001B2  ECF9  F009         	call	_MensajeLCD_Var	;wreg free
  1776                           
  1777                           ; BSR set to: 0
  1778                           ;Lab6.c: 212: Tecla = '\0';
  1779   0001B6  6A44               	clrf	_Tecla^0,c
  1780   0001B8                     l5002:
  1781   0001B8  0444               	decf	_Tecla^0,w,c
  1782   0001BA  B4D8               	btfsc	status,2,c
  1783   0001BC  D004               	goto	u3600
  1784   0001BE  0E02               	movlw	2
  1785   0001C0  1844               	xorwf	_Tecla^0,w,c
  1786   0001C2  A4D8               	btfss	status,2,c
  1787   0001C4  D7F9               	goto	l5002
  1788   0001C6                     u3600:
  1789                           
  1790                           ;Lab6.c: 215: if(Tecla == 1){
  1791   0001C6  0444               	decf	_Tecla^0,w,c
  1792   0001C8  A4D8               	btfss	status,2,c
  1793   0001CA  D07A               	goto	l5052
  1794                           
  1795                           ;Lab6.c: 216: Supercontador = valorGuardado;
  1796   0001CC  C02B  F039         	movff	_valorGuardado,_Supercontador
  1797   0001D0  C02C  F03A         	movff	_valorGuardado+1,_Supercontador+1
  1798                           
  1799                           ;Lab6.c: 217: Objetivo = objetivoGuardado;
  1800   0001D4  C029  F033         	movff	_objetivoGuardado,_Objetivo
  1801   0001D8  C02A  F034         	movff	_objetivoGuardado+1,_Objetivo+1
  1802                           
  1803                           ;Lab6.c: 219: contadorRGB = Supercontador / 10;
  1804   0001DC  C039  F060         	movff	_Supercontador,___lwdiv@dividend
  1805   0001E0  C03A  F061         	movff	_Supercontador+1,___lwdiv@dividend+1
  1806   0001E4  0E00               	movlw	0
  1807   0001E6  0100               	movlb	0	; () banked
  1808   0001E8  6F63               	movwf	(___lwdiv@divisor+1)& (0+255),b
  1809   0001EA  0E0A               	movlw	10
  1810   0001EC  6F62               	movwf	___lwdiv@divisor& (0+255),b
  1811   0001EE  ECA7  F009         	call	___lwdiv	;wreg free
  1812   0001F2  C060  F035         	movff	?___lwdiv,_contadorRGB
  1813   0001F6  C061  F036         	movff	?___lwdiv+1,_contadorRGB+1
  1814                           
  1815                           ; BSR set to: 0
  1816                           ;Lab6.c: 220: contador = Supercontador - (contadorRGB * 10);
  1817   0001FA  0EF6               	movlw	246
  1818   0001FC  6F6F               	movwf	??_main& (0+255),b
  1819   0001FE  0EFF               	movlw	255
  1820   000200  6F70               	movwf	(??_main+1)& (0+255),b
  1821   000202  516F               	movf	??_main& (0+255),w,b
  1822   000204  0235               	mulwf	_contadorRGB^0,c
  1823   000206  CFF3 F071          	movff	prodl,??_main+2
  1824   00020A  CFF4 F072          	movff	prodh,??_main+3
  1825   00020E  0236               	mulwf	(_contadorRGB+1)^0,c
  1826   000210  50F3               	movf	prodl,w,c
  1827   000212  2772               	addwf	(??_main+3)& (0+255),f,b
  1828   000214  5170               	movf	(??_main+1)& (0+255),w,b
  1829   000216  0235               	mulwf	_contadorRGB^0,c
  1830   000218  50F3               	movf	prodl,w,c
  1831   00021A  2772               	addwf	(??_main+3)& (0+255),f,b
  1832   00021C  5039               	movf	_Supercontador^0,w,c
  1833   00021E  2571               	addwf	(??_main+2)& (0+255),w,b
  1834   000220  6E37               	movwf	_contador^0,c
  1835   000222  503A               	movf	(_Supercontador+1)^0,w,c
  1836   000224  2172               	addwfc	(??_main+3)& (0+255),w,b
  1837   000226  6E38               	movwf	(_contador+1)^0,c
  1838                           
  1839                           ; BSR set to: 0
  1840                           ;Lab6.c: 222: LATD = contador;
  1841   000228  C037  FF8C         	movff	_contador,3980	;volatile
  1842                           
  1843                           ; BSR set to: 0
  1844                           ;Lab6.c: 224: if(contadorRGB==0) LATE=0b00000001;
  1845   00022C  5035               	movf	_contadorRGB^0,w,c
  1846   00022E  1036               	iorwf	(_contadorRGB+1)^0,w,c
  1847   000230  A4D8               	btfss	status,2,c
  1848   000232  D002               	goto	l5020
  1849                           
  1850                           ; BSR set to: 0
  1851   000234  0E01               	movlw	1
  1852   000236  D01A               	goto	L4
  1853   000238                     l5020:
  1854                           
  1855                           ; BSR set to: 0
  1856                           ;Lab6.c: 225: else if(contadorRGB==1) LATE=0b00000101;
  1857   000238  0435               	decf	_contadorRGB^0,w,c
  1858   00023A  1036               	iorwf	(_contadorRGB+1)^0,w,c
  1859   00023C  A4D8               	btfss	status,2,c
  1860   00023E  D002               	goto	l5024
  1861                           
  1862                           ; BSR set to: 0
  1863   000240  0E05               	movlw	5
  1864   000242  D014               	goto	L4
  1865   000244                     l5024:
  1866                           
  1867                           ; BSR set to: 0
  1868                           ;Lab6.c: 226: else if(contadorRGB==2) LATE=0b00000100;
  1869   000244  0E02               	movlw	2
  1870   000246  1835               	xorwf	_contadorRGB^0,w,c
  1871   000248  1036               	iorwf	(_contadorRGB+1)^0,w,c
  1872   00024A  A4D8               	btfss	status,2,c
  1873   00024C  D002               	goto	l5028
  1874                           
  1875                           ; BSR set to: 0
  1876   00024E  0E04               	movlw	4
  1877   000250  D00D               	goto	L4
  1878   000252                     l5028:
  1879                           
  1880                           ; BSR set to: 0
  1881                           ;Lab6.c: 227: else if(contadorRGB==3) LATE=0b00000110;
  1882   000252  0E03               	movlw	3
  1883   000254  1835               	xorwf	_contadorRGB^0,w,c
  1884   000256  1036               	iorwf	(_contadorRGB+1)^0,w,c
  1885   000258  A4D8               	btfss	status,2,c
  1886   00025A  D002               	goto	l5032
  1887                           
  1888                           ; BSR set to: 0
  1889   00025C  0E06               	movlw	6
  1890   00025E  D006               	goto	L4
  1891   000260                     l5032:
  1892                           
  1893                           ; BSR set to: 0
  1894                           ;Lab6.c: 228: else if(contadorRGB==4) LATE=0b00000010;
  1895   000260  0E04               	movlw	4
  1896   000262  1835               	xorwf	_contadorRGB^0,w,c
  1897   000264  1036               	iorwf	(_contadorRGB+1)^0,w,c
  1898   000266  A4D8               	btfss	status,2,c
  1899   000268  D003               	goto	l5036
  1900                           
  1901                           ; BSR set to: 0
  1902   00026A  0E02               	movlw	2
  1903   00026C                     L4:
  1904   00026C  6E8D               	movwf	141,c	;volatile
  1905   00026E  D005               	goto	l391
  1906   000270                     l5036:
  1907                           
  1908                           ; BSR set to: 0
  1909                           ;Lab6.c: 229: else if(contadorRGB==5) LATE=0b00000000;
  1910   000270  0E05               	movlw	5
  1911   000272  1835               	xorwf	_contadorRGB^0,w,c
  1912   000274  1036               	iorwf	(_contadorRGB+1)^0,w,c
  1913   000276  B4D8               	btfsc	status,2,c
  1914                           
  1915                           ; BSR set to: 0
  1916   000278  6A8D               	clrf	141,c	;volatile
  1917   00027A                     l391:
  1918                           
  1919                           ; BSR set to: 0
  1920                           ;Lab6.c: 231: BorraLCD();
  1921                           
  1922                           ; BSR set to: 0
  1923   00027A  EC02  F00C         	call	_BorraLCD	;wreg free
  1924                           
  1925                           ;Lab6.c: 232: MensajeLCD_Var("Cuenta");
  1926   00027E  0EF8               	movlw	low STR_7
  1927   000280  0100               	movlb	0	; () banked
  1928   000282  6F65               	movwf	MensajeLCD_Var@a& (0+255),b
  1929   000284  0E7F               	movlw	high STR_7
  1930   000286  6F66               	movwf	(MensajeLCD_Var@a+1)& (0+255),b
  1931   000288  ECF9  F009         	call	_MensajeLCD_Var	;wreg free
  1932                           
  1933                           ; BSR set to: 0
  1934                           ;Lab6.c: 233: DireccionaLCD(0xC0);
  1935   00028C  0EC0               	movlw	192
  1936   00028E  ECC9  F00B         	call	_DireccionaLCD
  1937                           
  1938                           ;Lab6.c: 234: MensajeLCD_Var("restaurada");
  1939   000292  0EED               	movlw	low STR_8
  1940   000294  0100               	movlb	0	; () banked
  1941   000296  6F65               	movwf	MensajeLCD_Var@a& (0+255),b
  1942   000298  0E7F               	movlw	high STR_8
  1943   00029A  6F66               	movwf	(MensajeLCD_Var@a+1)& (0+255),b
  1944   00029C  ECF9  F009         	call	_MensajeLCD_Var	;wreg free
  1945                           
  1946                           ; BSR set to: 0
  1947                           ;Lab6.c: 235: _delay((unsigned long)((1500)*(1000000/4000.0)));
  1948   0002A0  0E02               	movlw	2
  1949   0002A2  0100               	movlb	0	; () banked
  1950   0002A4  6F70               	movwf	(??_main+1)& (0+255),b
  1951   0002A6  0EE7               	movlw	231
  1952   0002A8  6F6F               	movwf	??_main& (0+255),b
  1953   0002AA  0E00               	movlw	0
  1954   0002AC                     u3887:
  1955   0002AC  2EE8               	decfsz	wreg,f,c
  1956   0002AE  D7FE               	bra	u3887
  1957   0002B0  2F6F               	decfsz	??_main& (0+255),f,b
  1958   0002B2  D7FC               	bra	u3887
  1959   0002B4  2F70               	decfsz	(??_main+1)& (0+255),f,b
  1960   0002B6  D7FA               	bra	u3887
  1961   0002B8  0000               	nop	
  1962                           
  1963                           ;Lab6.c: 236: BorraLCD();
  1964   0002BA  EC02  F00C         	call	_BorraLCD	;wreg free
  1965                           
  1966                           ;Lab6.c: 238: goto inicio_conteo;
  1967   0002BE  D062               	goto	l5082
  1968   0002C0                     l5052:
  1969                           
  1970                           ;Lab6.c: 241: ConfigVariables();
  1971   0002C0  ECAE  F00A         	call	_ConfigVariables	;wreg free
  1972                           
  1973                           ;Lab6.c: 242: EEPROM_Write(0b00000000, 0b00000000);
  1974   0002C4  0E00               	movlw	0
  1975   0002C6  0100               	movlb	0	; () banked
  1976   0002C8  6F60               	movwf	EEPROM_Write@data& (0+255),b
  1977   0002CA  0E00               	movlw	0
  1978   0002CC  EC65  F00B         	call	_EEPROM_Write
  1979                           
  1980                           ;Lab6.c: 243: EEPROM_Write(0b00000001, 0b00000000);
  1981   0002D0  0E00               	movlw	0
  1982   0002D2  0100               	movlb	0	; () banked
  1983   0002D4  6F60               	movwf	EEPROM_Write@data& (0+255),b
  1984   0002D6  0E01               	movlw	1
  1985   0002D8  EC65  F00B         	call	_EEPROM_Write
  1986                           
  1987                           ;Lab6.c: 244: BorraLCD();
  1988   0002DC  EC02  F00C         	call	_BorraLCD	;wreg free
  1989                           
  1990                           ;Lab6.c: 245: MensajeLCD_Var("Cuenta");
  1991   0002E0  0EF8               	movlw	low STR_7
  1992   0002E2  0100               	movlb	0	; () banked
  1993   0002E4  6F65               	movwf	MensajeLCD_Var@a& (0+255),b
  1994   0002E6  0E7F               	movlw	high STR_7
  1995   0002E8  6F66               	movwf	(MensajeLCD_Var@a+1)& (0+255),b
  1996   0002EA  ECF9  F009         	call	_MensajeLCD_Var	;wreg free
  1997                           
  1998                           ; BSR set to: 0
  1999                           ;Lab6.c: 246: DireccionaLCD(0xC0);
  2000   0002EE  0EC0               	movlw	192
  2001   0002F0  ECC9  F00B         	call	_DireccionaLCD
  2002                           
  2003                           ;Lab6.c: 247: MensajeLCD_Var("reiniciada");
  2004   0002F4  0EE2               	movlw	low STR_10
  2005   0002F6  0100               	movlb	0	; () banked
  2006   0002F8  6F65               	movwf	MensajeLCD_Var@a& (0+255),b
  2007   0002FA  0E7F               	movlw	high STR_10
  2008   0002FC  6F66               	movwf	(MensajeLCD_Var@a+1)& (0+255),b
  2009   0002FE  ECF9  F009         	call	_MensajeLCD_Var	;wreg free
  2010   000302  D030               	goto	l5076
  2011   000304                     l5062:
  2012                           
  2013                           ; BSR set to: 0
  2014                           ;Lab6.c: 252: BorraLCD();
  2015   000304  EC02  F00C         	call	_BorraLCD	;wreg free
  2016                           
  2017                           ;Lab6.c: 253: OcultarCursor();
  2018   000308  EC6E  F00C         	call	_OcultarCursor	;wreg free
  2019                           
  2020                           ;Lab6.c: 254: MensajeLCD_Var("    RESET DE");
  2021   00030C  0E81               	movlw	low STR_11
  2022   00030E  0100               	movlb	0	; () banked
  2023   000310  6F65               	movwf	MensajeLCD_Var@a& (0+255),b
  2024   000312  0E7F               	movlw	high STR_11
  2025   000314  6F66               	movwf	(MensajeLCD_Var@a+1)& (0+255),b
  2026   000316  ECF9  F009         	call	_MensajeLCD_Var	;wreg free
  2027                           
  2028                           ; BSR set to: 0
  2029                           ;Lab6.c: 255: DireccionaLCD(0xC0);
  2030   00031A  0EC0               	movlw	192
  2031   00031C  ECC9  F00B         	call	_DireccionaLCD
  2032                           
  2033                           ;Lab6.c: 256: MensajeLCD_Var("     USUARIO");
  2034   000320  0E8E               	movlw	low STR_12
  2035   000322  0100               	movlb	0	; () banked
  2036   000324  6F65               	movwf	MensajeLCD_Var@a& (0+255),b
  2037   000326  0E7F               	movlw	high STR_12
  2038   000328  6F66               	movwf	(MensajeLCD_Var@a+1)& (0+255),b
  2039   00032A  ECF9  F009         	call	_MensajeLCD_Var	;wreg free
  2040                           
  2041                           ; BSR set to: 0
  2042                           ;Lab6.c: 257: _delay((unsigned long)((1000)*(1000000/4000.0)));
  2043   00032E  0E02               	movlw	2
  2044   000330  0100               	movlb	0	; () banked
  2045   000332  6F70               	movwf	(??_main+1)& (0+255),b
  2046   000334  0E45               	movlw	69
  2047   000336  6F6F               	movwf	??_main& (0+255),b
  2048   000338  0EA9               	movlw	169
  2049   00033A                     u3897:
  2050   00033A  2EE8               	decfsz	wreg,f,c
  2051   00033C  D7FE               	bra	u3897
  2052   00033E  2F6F               	decfsz	??_main& (0+255),f,b
  2053   000340  D7FC               	bra	u3897
  2054   000342  2F70               	decfsz	(??_main+1)& (0+255),f,b
  2055   000344  D7FA               	bra	u3897
  2056   000346  D000               	nop2	
  2057                           
  2058                           ;Lab6.c: 259: ConfigVariables();
  2059   000348  ECAE  F00A         	call	_ConfigVariables	;wreg free
  2060                           
  2061                           ;Lab6.c: 260: EEPROM_Write(0b00000000, 0b00000000);
  2062   00034C  0E00               	movlw	0
  2063   00034E  0100               	movlb	0	; () banked
  2064   000350  6F60               	movwf	EEPROM_Write@data& (0+255),b
  2065   000352  0E00               	movlw	0
  2066   000354  EC65  F00B         	call	_EEPROM_Write
  2067                           
  2068                           ;Lab6.c: 261: EEPROM_Write(0b00000001, 0b00000000);
  2069   000358  0E00               	movlw	0
  2070   00035A  0100               	movlb	0	; () banked
  2071   00035C  6F60               	movwf	EEPROM_Write@data& (0+255),b
  2072   00035E  0E01               	movlw	1
  2073   000360  EC65  F00B         	call	_EEPROM_Write
  2074   000364                     l5076:
  2075                           
  2076                           ;Lab6.c: 262: };Lab6.c: 264: _delay((unsigned long)((1000)*(1000000/4000.0)));
  2077   000364  0E02               	movlw	2
  2078   000366  0100               	movlb	0	; () banked
  2079   000368  6F70               	movwf	(??_main+1)& (0+255),b
  2080   00036A  0E45               	movlw	69
  2081   00036C  6F6F               	movwf	??_main& (0+255),b
  2082   00036E  0EA9               	movlw	169
  2083   000370                     u3907:
  2084   000370  2EE8               	decfsz	wreg,f,c
  2085   000372  D7FE               	bra	u3907
  2086   000374  2F6F               	decfsz	??_main& (0+255),f,b
  2087   000376  D7FC               	bra	u3907
  2088   000378  2F70               	decfsz	(??_main+1)& (0+255),f,b
  2089   00037A  D7FA               	bra	u3907
  2090   00037C  D000               	nop2	
  2091                           
  2092                           ;Lab6.c: 265: LATA3=0;
  2093   00037E  9689               	bcf	3977,3,c	;volatile
  2094   000380                     l5080:
  2095                           
  2096                           ;Lab6.c: 268: PreguntaAlUsuario();
  2097   000380  EC34  F006         	call	_PreguntaAlUsuario	;wreg free
  2098   000384                     l5082:
  2099                           
  2100                           ;Lab6.c: 272: OcultarCursor();
  2101   000384  EC6E  F00C         	call	_OcultarCursor	;wreg free
  2102                           
  2103                           ;Lab6.c: 273: MensajeLCD_Var("Faltantes: ");
  2104   000388  0EA7               	movlw	low STR_13
  2105   00038A  0100               	movlb	0	; () banked
  2106   00038C  6F65               	movwf	MensajeLCD_Var@a& (0+255),b
  2107   00038E  0E7F               	movlw	high STR_13
  2108   000390  6F66               	movwf	(MensajeLCD_Var@a+1)& (0+255),b
  2109   000392  ECF9  F009         	call	_MensajeLCD_Var	;wreg free
  2110                           
  2111                           ; BSR set to: 0
  2112                           ;Lab6.c: 274: EscribeLCD_n8(Objetivo-Supercontador,2);
  2113   000396  0E02               	movlw	2
  2114   000398  6F68               	movwf	EscribeLCD_n8@b& (0+255),b
  2115   00039A  5039               	movf	_Supercontador^0,w,c
  2116   00039C  5C33               	subwf	_Objetivo^0,w,c
  2117   00039E  ECBD  F005         	call	_EscribeLCD_n8
  2118                           
  2119                           ;Lab6.c: 275: DireccionaLCD(0xC0);
  2120   0003A2  0EC0               	movlw	192
  2121   0003A4  ECC9  F00B         	call	_DireccionaLCD
  2122                           
  2123                           ;Lab6.c: 276: MensajeLCD_Var("Objetivo: ");
  2124   0003A8  0ED7               	movlw	low STR_14
  2125   0003AA  0100               	movlb	0	; () banked
  2126   0003AC  6F65               	movwf	MensajeLCD_Var@a& (0+255),b
  2127   0003AE  0E7F               	movlw	high STR_14
  2128   0003B0  6F66               	movwf	(MensajeLCD_Var@a+1)& (0+255),b
  2129   0003B2  ECF9  F009         	call	_MensajeLCD_Var	;wreg free
  2130                           
  2131                           ; BSR set to: 0
  2132                           ;Lab6.c: 277: EscribeLCD_n8(Objetivo,2);
  2133   0003B6  0E02               	movlw	2
  2134   0003B8  6F68               	movwf	EscribeLCD_n8@b& (0+255),b
  2135   0003BA  5033               	movf	_Objetivo^0,w,c
  2136   0003BC  ECBD  F005         	call	_EscribeLCD_n8
  2137                           
  2138                           ;Lab6.c: 278: salir=1;
  2139   0003C0  0E01               	movlw	1
  2140   0003C2  6E45               	movwf	_salir^0,c
  2141                           
  2142                           ;Lab6.c: 280: while (salir==1){
  2143   0003C4  D0CA               	goto	l5198
  2144   0003C6                     l5096:
  2145                           
  2146                           ;Lab6.c: 281: _delay((unsigned long)((100)*(1000000/4000.0)));
  2147   0003C6  0E21               	movlw	33
  2148   0003C8  0100               	movlb	0	; () banked
  2149   0003CA  6F6F               	movwf	??_main& (0+255),b
  2150   0003CC  0E76               	movlw	118
  2151   0003CE                     u3917:
  2152   0003CE  2EE8               	decfsz	wreg,f,c
  2153   0003D0  D7FE               	bra	u3917
  2154   0003D2  2F6F               	decfsz	??_main& (0+255),f,b
  2155   0003D4  D7FC               	bra	u3917
  2156   0003D6  0000               	nop	
  2157                           
  2158                           ;Lab6.c: 282: d=MedirDistancia();
  2159   0003D8  EC00  F008         	call	_MedirDistancia	;wreg free
  2160   0003DC  6E41               	movwf	_d^0,c
  2161                           
  2162                           ;Lab6.c: 284: if(Supercontador==Objetivo){
  2163   0003DE  5033               	movf	_Objetivo^0,w,c
  2164   0003E0  1839               	xorwf	_Supercontador^0,w,c
  2165   0003E2  E12E               	bnz	l5124
  2166   0003E4  5034               	movf	(_Objetivo+1)^0,w,c
  2167   0003E6  183A               	xorwf	(_Supercontador+1)^0,w,c
  2168   0003E8  A4D8               	btfss	status,2,c
  2169   0003EA  D02A               	goto	l5124
  2170                           
  2171                           ;Lab6.c: 285: LATA2=1; _delay((unsigned long)((1000)*(1000000/4000.0))); LATA2=0;
  2172   0003EC  8489               	bsf	3977,2,c	;volatile
  2173   0003EE  0E02               	movlw	2
  2174   0003F0  0100               	movlb	0	; () banked
  2175   0003F2  6F70               	movwf	(??_main+1)& (0+255),b
  2176   0003F4  0E45               	movlw	69
  2177   0003F6  6F6F               	movwf	??_main& (0+255),b
  2178   0003F8  0EA9               	movlw	169
  2179   0003FA                     u3927:
  2180   0003FA  2EE8               	decfsz	wreg,f,c
  2181   0003FC  D7FE               	bra	u3927
  2182   0003FE  2F6F               	decfsz	??_main& (0+255),f,b
  2183   000400  D7FC               	bra	u3927
  2184   000402  2F70               	decfsz	(??_main+1)& (0+255),f,b
  2185   000404  D7FA               	bra	u3927
  2186   000406  D000               	nop2	
  2187   000408  9489               	bcf	3977,2,c	;volatile
  2188                           
  2189                           ;Lab6.c: 287: BorraLCD();
  2190   00040A  EC02  F00C         	call	_BorraLCD	;wreg free
  2191                           
  2192                           ;Lab6.c: 288: MensajeLCD_Var("Cuenta Cumplida");
  2193   00040E  0EE5               	movlw	low STR_15
  2194   000410  0100               	movlb	0	; () banked
  2195   000412  6F65               	movwf	MensajeLCD_Var@a& (0+255),b
  2196   000414  0E7E               	movlw	high STR_15
  2197   000416  6F66               	movwf	(MensajeLCD_Var@a+1)& (0+255),b
  2198   000418  ECF9  F009         	call	_MensajeLCD_Var	;wreg free
  2199                           
  2200                           ; BSR set to: 0
  2201                           ;Lab6.c: 289: DireccionaLCD(0xC0);
  2202   00041C  0EC0               	movlw	192
  2203   00041E  ECC9  F00B         	call	_DireccionaLCD
  2204                           
  2205                           ;Lab6.c: 290: MensajeLCD_Var("   Presione OK");
  2206   000422  0E14               	movlw	low STR_16
  2207   000424  0100               	movlb	0	; () banked
  2208   000426  6F65               	movwf	MensajeLCD_Var@a& (0+255),b
  2209   000428  0E7F               	movlw	high STR_16
  2210   00042A  6F66               	movwf	(MensajeLCD_Var@a+1)& (0+255),b
  2211   00042C  ECF9  F009         	call	_MensajeLCD_Var	;wreg free
  2212                           
  2213                           ; BSR set to: 0
  2214                           ;Lab6.c: 292: salir = 0;
  2215   000430  6A45               	clrf	_salir^0,c
  2216                           
  2217                           ; BSR set to: 0
  2218                           ;Lab6.c: 293: Tecla='\0';
  2219   000432  6A44               	clrf	_Tecla^0,c
  2220   000434                     l5120:
  2221   000434  0E2A               	movlw	42
  2222   000436  1844               	xorwf	_Tecla^0,w,c
  2223   000438  A4D8               	btfss	status,2,c
  2224   00043A  D7FC               	goto	l5120
  2225                           
  2226                           ;Lab6.c: 295: ConfigVariables();
  2227   00043C  ECAE  F00A         	call	_ConfigVariables	;wreg free
  2228   000440                     l5124:
  2229                           
  2230                           ;Lab6.c: 296: };Lab6.c: 298: if((d>4 && d<9) && Supercontador!=Objetivo){
  2231   000440  0E04               	movlw	4
  2232   000442  6441               	cpfsgt	_d^0,c
  2233   000444  D00C               	goto	l5132
  2234   000446  0E09               	movlw	9
  2235   000448  6041               	cpfslt	_d^0,c
  2236   00044A  D009               	goto	l5132
  2237   00044C  5033               	movf	_Objetivo^0,w,c
  2238   00044E  1839               	xorwf	_Supercontador^0,w,c
  2239   000450  E104               	bnz	u3720
  2240   000452  5034               	movf	(_Objetivo+1)^0,w,c
  2241   000454  183A               	xorwf	(_Supercontador+1)^0,w,c
  2242   000456  B4D8               	btfsc	status,2,c
  2243   000458  D002               	goto	l5132
  2244   00045A                     u3720:
  2245                           
  2246                           ;Lab6.c: 299: Inactividad=0;
  2247   00045A  6A43               	clrf	_Inactividad^0,c
  2248                           
  2249                           ;Lab6.c: 300: Pulsado=0;
  2250   00045C  6A51               	clrf	_Pulsado^0,c
  2251   00045E                     l5132:
  2252                           
  2253                           ;Lab6.c: 301: };Lab6.c: 303: if(Pulsado==0){
  2254   00045E  5051               	movf	_Pulsado^0,w,c
  2255   000460  A4D8               	btfss	status,2,c
  2256   000462  D07B               	goto	l5198
  2257                           
  2258                           ;Lab6.c: 304: if((d<4 || d>9)){
  2259   000464  0E03               	movlw	3
  2260   000466  6441               	cpfsgt	_d^0,c
  2261   000468  D003               	goto	u3750
  2262   00046A  0E09               	movlw	9
  2263   00046C  6441               	cpfsgt	_d^0,c
  2264   00046E  D075               	goto	l5198
  2265   000470                     u3750:
  2266                           
  2267                           ;Lab6.c: 305: Pulsado=1;
  2268   000470  0E01               	movlw	1
  2269   000472  6E51               	movwf	_Pulsado^0,c
  2270                           
  2271                           ;Lab6.c: 306: contador++;
  2272   000474  4A37               	infsnz	_contador^0,f,c
  2273   000476  2A38               	incf	(_contador+1)^0,f,c
  2274                           
  2275                           ;Lab6.c: 307: Supercontador++;
  2276   000478  4A39               	infsnz	_Supercontador^0,f,c
  2277   00047A  2A3A               	incf	(_Supercontador+1)^0,f,c
  2278                           
  2279                           ;Lab6.c: 308: GuardarContador(Supercontador, Objetivo);
  2280   00047C  C039  F062         	movff	_Supercontador,GuardarContador@valor
  2281   000480  C03A  F063         	movff	_Supercontador+1,GuardarContador@valor+1
  2282   000484  C033  F064         	movff	_Objetivo,GuardarContador@objetivo
  2283   000488  C034  F065         	movff	_Objetivo+1,GuardarContador@objetivo+1
  2284   00048C  ECD6  F00B         	call	_GuardarContador	;wreg free
  2285                           
  2286                           ;Lab6.c: 310: if (contador==10){
  2287   000490  0E0A               	movlw	10
  2288   000492  1837               	xorwf	_contador^0,w,c
  2289   000494  1038               	iorwf	(_contador+1)^0,w,c
  2290   000496  A4D8               	btfss	status,2,c
  2291   000498  D025               	goto	l5168
  2292                           
  2293                           ;Lab6.c: 311: LATA2=1; _delay((unsigned long)((300)*(1000000/4000.0))); LATA2=0;
  2294   00049A  8489               	bsf	3977,2,c	;volatile
  2295   00049C  0E62               	movlw	98
  2296   00049E  0100               	movlb	0	; () banked
  2297   0004A0  6F6F               	movwf	??_main& (0+255),b
  2298   0004A2  0E65               	movlw	101
  2299   0004A4                     u3937:
  2300   0004A4  2EE8               	decfsz	wreg,f,c
  2301   0004A6  D7FE               	bra	u3937
  2302   0004A8  2F6F               	decfsz	??_main& (0+255),f,b
  2303   0004AA  D7FC               	bra	u3937
  2304   0004AC  D000               	nop2	
  2305   0004AE  9489               	bcf	3977,2,c	;volatile
  2306                           
  2307                           ;Lab6.c: 312: contador=0;
  2308   0004B0  0E00               	movlw	0
  2309   0004B2  6E38               	movwf	(_contador+1)^0,c
  2310   0004B4  0E00               	movlw	0
  2311   0004B6  6E37               	movwf	_contador^0,c
  2312                           
  2313                           ;Lab6.c: 313: contadorRGB++;
  2314   0004B8  4A35               	infsnz	_contadorRGB^0,f,c
  2315   0004BA  2A36               	incf	(_contadorRGB+1)^0,f,c
  2316                           
  2317                           ;Lab6.c: 314: if (contadorRGB==6){
  2318   0004BC  0E06               	movlw	6
  2319   0004BE  1835               	xorwf	_contadorRGB^0,w,c
  2320   0004C0  1036               	iorwf	(_contadorRGB+1)^0,w,c
  2321   0004C2  A4D8               	btfss	status,2,c
  2322   0004C4  D00F               	goto	l5168
  2323                           
  2324                           ;Lab6.c: 315: LATA2=1; _delay((unsigned long)((300)*(1000000/4000.0))); LATA2=0;
  2325   0004C6  8489               	bsf	3977,2,c	;volatile
  2326   0004C8  0E62               	movlw	98
  2327   0004CA  0100               	movlb	0	; () banked
  2328   0004CC  6F6F               	movwf	??_main& (0+255),b
  2329   0004CE  0E65               	movlw	101
  2330   0004D0                     u3947:
  2331   0004D0  2EE8               	decfsz	wreg,f,c
  2332   0004D2  D7FE               	bra	u3947
  2333   0004D4  2F6F               	decfsz	??_main& (0+255),f,b
  2334   0004D6  D7FC               	bra	u3947
  2335   0004D8  D000               	nop2	
  2336   0004DA  9489               	bcf	3977,2,c	;volatile
  2337                           
  2338                           ;Lab6.c: 316: contadorRGB=0;
  2339   0004DC  0E00               	movlw	0
  2340   0004DE  6E36               	movwf	(_contadorRGB+1)^0,c
  2341   0004E0  0E00               	movlw	0
  2342   0004E2  6E35               	movwf	_contadorRGB^0,c
  2343   0004E4                     l5168:
  2344                           
  2345                           ;Lab6.c: 317: };Lab6.c: 318: };Lab6.c: 320: if(contadorRGB==0) LATE=0b00000010;
  2346   0004E4  5035               	movf	_contadorRGB^0,w,c
  2347   0004E6  1036               	iorwf	(_contadorRGB+1)^0,w,c
  2348   0004E8  A4D8               	btfss	status,2,c
  2349   0004EA  D002               	goto	l5172
  2350   0004EC  0E02               	movlw	2
  2351   0004EE  D01A               	goto	L8
  2352   0004F0                     l5172:
  2353                           
  2354                           ;Lab6.c: 321: else if(contadorRGB==1) LATE=0b00000011;
  2355   0004F0  0435               	decf	_contadorRGB^0,w,c
  2356   0004F2  1036               	iorwf	(_contadorRGB+1)^0,w,c
  2357   0004F4  A4D8               	btfss	status,2,c
  2358   0004F6  D002               	goto	l5176
  2359   0004F8  0E03               	movlw	3
  2360   0004FA  D014               	goto	L8
  2361   0004FC                     l5176:
  2362                           
  2363                           ;Lab6.c: 322: else if(contadorRGB==2) LATE=0b00000001;
  2364   0004FC  0E02               	movlw	2
  2365   0004FE  1835               	xorwf	_contadorRGB^0,w,c
  2366   000500  1036               	iorwf	(_contadorRGB+1)^0,w,c
  2367   000502  A4D8               	btfss	status,2,c
  2368   000504  D002               	goto	l5180
  2369   000506  0E01               	movlw	1
  2370   000508  D00D               	goto	L8
  2371   00050A                     l5180:
  2372                           
  2373                           ;Lab6.c: 323: else if(contadorRGB==3) LATE=0b00000101;
  2374   00050A  0E03               	movlw	3
  2375   00050C  1835               	xorwf	_contadorRGB^0,w,c
  2376   00050E  1036               	iorwf	(_contadorRGB+1)^0,w,c
  2377   000510  A4D8               	btfss	status,2,c
  2378   000512  D002               	goto	l5184
  2379   000514  0E05               	movlw	5
  2380   000516  D006               	goto	L8
  2381   000518                     l5184:
  2382                           
  2383                           ;Lab6.c: 324: else if(contadorRGB==4) LATE=0b00000100;
  2384   000518  0E04               	movlw	4
  2385   00051A  1835               	xorwf	_contadorRGB^0,w,c
  2386   00051C  1036               	iorwf	(_contadorRGB+1)^0,w,c
  2387   00051E  A4D8               	btfss	status,2,c
  2388   000520  D003               	goto	l5188
  2389   000522  0E04               	movlw	4
  2390   000524                     L8:
  2391   000524  6E8D               	movwf	141,c	;volatile
  2392   000526  D005               	goto	l419
  2393   000528                     l5188:
  2394                           
  2395                           ;Lab6.c: 325: else if(contadorRGB==5) LATE=0b00000000;
  2396   000528  0E05               	movlw	5
  2397   00052A  1835               	xorwf	_contadorRGB^0,w,c
  2398   00052C  1036               	iorwf	(_contadorRGB+1)^0,w,c
  2399   00052E  B4D8               	btfsc	status,2,c
  2400   000530  6A8D               	clrf	141,c	;volatile
  2401   000532                     l419:
  2402                           
  2403                           ;Lab6.c: 327: DireccionaLCD(0x8B);
  2404   000532  0E8B               	movlw	139
  2405   000534  ECC9  F00B         	call	_DireccionaLCD
  2406                           
  2407                           ;Lab6.c: 328: EscribeLCD_n8(Objetivo-Supercontador,2);
  2408   000538  0E02               	movlw	2
  2409   00053A  0100               	movlb	0	; () banked
  2410   00053C  6F68               	movwf	EscribeLCD_n8@b& (0+255),b
  2411   00053E  5039               	movf	_Supercontador^0,w,c
  2412   000540  5C33               	subwf	_Objetivo^0,w,c
  2413   000542  ECBD  F005         	call	_EscribeLCD_n8
  2414                           
  2415                           ;Lab6.c: 330: LATD=contador;
  2416   000546  C037  FF8C         	movff	_contador,3980	;volatile
  2417                           
  2418                           ;Lab6.c: 331: _delay((unsigned long)((500)*(1000000/4000.0)));
  2419   00054A  0EA3               	movlw	163
  2420   00054C  0100               	movlb	0	; () banked
  2421   00054E  6F6F               	movwf	??_main& (0+255),b
  2422   000550  0E55               	movlw	85
  2423   000552                     u3957:
  2424   000552  2EE8               	decfsz	wreg,f,c
  2425   000554  D7FE               	bra	u3957
  2426   000556  2F6F               	decfsz	??_main& (0+255),f,b
  2427   000558  D7FC               	bra	u3957
  2428   00055A                     l5198:
  2429   00055A  0445               	decf	_salir^0,w,c
  2430   00055C  B4D8               	btfsc	status,2,c
  2431   00055E  D733               	goto	l5096
  2432                           
  2433                           ;Lab6.c: 332: };Lab6.c: 333: };Lab6.c: 334: };Lab6.c: 336: LATE=0b00000001;
  2434   000560  0E01               	movlw	1
  2435   000562  6E8D               	movwf	141,c	;volatile
  2436                           
  2437                           ;Lab6.c: 337: LATD=contador;
  2438   000564  C037  FF8C         	movff	_contador,3980	;volatile
  2439   000568  D70B               	goto	l5080
  2440   00056A                     __end_of_main:
  2441                           	callstack 0
  2442                           
  2443 ;; *************** function _PreguntaAlUsuario *****************
  2444 ;; Defined at:
  2445 ;;		line 598 in file "Lab6.c"
  2446 ;; Parameters:    Size  Location     Type
  2447 ;;		None
  2448 ;; Auto vars:     Size  Location     Type
  2449 ;;		None
  2450 ;; Return value:  Size  Location     Type
  2451 ;;                  1    wreg      void 
  2452 ;; Registers used:
  2453 ;;		wreg, fsr2l, fsr2h, status,2, status,0, tblptrl, tblptrh, tblptru, prodl, prodh, cstack
  2454 ;; Tracked objects:
  2455 ;;		On entry : 0/0
  2456 ;;		On exit  : 0/0
  2457 ;;		Unchanged: 0/0
  2458 ;; Data sizes:     COMRAM   BANK0   BANK1   BANK2   BANK3   BANK4   BANK5   BANK6   BANK7
  2459 ;;      Params:         0       0       0       0       0       0       0       0       0
  2460 ;;      Locals:         0       0       0       0       0       0       0       0       0
  2461 ;;      Temps:          0       2       0       0       0       0       0       0       0
  2462 ;;      Totals:         0       2       0       0       0       0       0       0       0
  2463 ;;Total ram usage:        2 bytes
  2464 ;; Hardware stack levels used: 1
  2465 ;; Hardware stack levels required when called: 14
  2466 ;; This function calls:
  2467 ;;		_BorraLCD
  2468 ;;		_CrearCaracter
  2469 ;;		_DireccionaLCD
  2470 ;;		_EscribeLCD_c
  2471 ;;		_MensajeLCD_Var
  2472 ;;		_MostrarCursor
  2473 ;;		_OcultarCursor
  2474 ;; This function is called by:
  2475 ;;		_main
  2476 ;; This function uses a non-reentrant model
  2477 ;;
  2478                           
  2479                           	psect	text1
  2480   000C68                     __ptext1:
  2481                           	callstack 0
  2482   000C68                     _PreguntaAlUsuario:
  2483                           	callstack 16
  2484                           
  2485                           ;Lab6.c: 600: CrearCaracter(RayaAlPiso, 1);
  2486                           
  2487                           ;incstack = 0
  2488                           ;Lab6.c: 599: while(1){
  2489   000C68  0E73               	movlw	low _RayaAlPiso
  2490   000C6A  0100               	movlb	0	; () banked
  2491   000C6C  6F65               	movwf	CrearCaracter@arreglo& (0+255),b
  2492   000C6E  0E01               	movlw	1
  2493   000C70  6F66               	movwf	CrearCaracter@posicionCGRAM& (0+255),b
  2494   000C72  EC6D  F008         	call	_CrearCaracter	;wreg free
  2495                           
  2496                           ;Lab6.c: 601: posicion=0;
  2497   000C76  6A47               	clrf	_posicion^0,c
  2498                           
  2499                           ;Lab6.c: 602: BorraLCD();
  2500   000C78  EC02  F00C         	call	_BorraLCD	;wreg free
  2501                           
  2502                           ;Lab6.c: 603: MensajeLCD_Var("Piezas a contar:");
  2503   000C7C  0ED4               	movlw	low STR_27
  2504   000C7E  0100               	movlb	0	; () banked
  2505   000C80  6F65               	movwf	MensajeLCD_Var@a& (0+255),b
  2506   000C82  0E7E               	movlw	high STR_27
  2507   000C84  6F66               	movwf	(MensajeLCD_Var@a+1)& (0+255),b
  2508   000C86  ECF9  F009         	call	_MensajeLCD_Var	;wreg free
  2509                           
  2510                           ; BSR set to: 0
  2511                           ;Lab6.c: 604: DireccionaLCD(0xC7);
  2512   000C8A  0EC7               	movlw	199
  2513   000C8C  ECC9  F00B         	call	_DireccionaLCD
  2514                           
  2515                           ;Lab6.c: 605: EscribeLCD_c(1);
  2516   000C90  0E01               	movlw	1
  2517   000C92  ECBC  F00B         	call	_EscribeLCD_c
  2518                           
  2519                           ;Lab6.c: 606: EscribeLCD_c(1);
  2520   000C96  0E01               	movlw	1
  2521   000C98  ECBC  F00B         	call	_EscribeLCD_c
  2522                           
  2523                           ;Lab6.c: 607: DireccionaLCD(0xC7);
  2524   000C9C  0EC7               	movlw	199
  2525   000C9E  ECC9  F00B         	call	_DireccionaLCD
  2526                           
  2527                           ;Lab6.c: 608: MostrarCursor();
  2528   000CA2  EC6A  F00C         	call	_MostrarCursor	;wreg free
  2529                           
  2530                           ;Lab6.c: 610: editor=1;
  2531   000CA6  0E01               	movlw	1
  2532   000CA8  6E46               	movwf	_editor^0,c
  2533   000CAA                     l4774:
  2534   000CAA  0E2A               	movlw	42
  2535   000CAC  1844               	xorwf	_Tecla^0,w,c
  2536   000CAE  A4D8               	btfss	status,2,c
  2537   000CB0  D7FC               	goto	l4774
  2538                           
  2539                           ;Lab6.c: 613: if((Objetivo>59)||(Objetivo==0)){
  2540   000CB2  5034               	movf	(_Objetivo+1)^0,w,c
  2541   000CB4  E108               	bnz	l560
  2542   000CB6  0E3C               	movlw	60
  2543   000CB8  5C33               	subwf	_Objetivo^0,w,c
  2544   000CBA  B0D8               	btfsc	status,0,c
  2545   000CBC  D004               	goto	u3470
  2546   000CBE  5033               	movf	_Objetivo^0,w,c
  2547   000CC0  1034               	iorwf	(_Objetivo+1)^0,w,c
  2548   000CC2  A4D8               	btfss	status,2,c
  2549   000CC4  D041               	goto	l558
  2550   000CC6                     u3470:
  2551   000CC6                     l560:
  2552                           
  2553                           ;Lab6.c: 614: editor=0;
  2554   000CC6  6A46               	clrf	_editor^0,c
  2555                           
  2556                           ;Lab6.c: 615: Tecla='\0';
  2557   000CC8  6A44               	clrf	_Tecla^0,c
  2558                           
  2559                           ;Lab6.c: 616: Objetivo=0;
  2560   000CCA  0E00               	movlw	0
  2561   000CCC  6E34               	movwf	(_Objetivo+1)^0,c
  2562   000CCE  0E00               	movlw	0
  2563   000CD0  6E33               	movwf	_Objetivo^0,c
  2564                           
  2565                           ;Lab6.c: 617: BorraLCD();
  2566   000CD2  EC02  F00C         	call	_BorraLCD	;wreg free
  2567                           
  2568                           ;Lab6.c: 618: OcultarCursor();
  2569   000CD6  EC6E  F00C         	call	_OcultarCursor	;wreg free
  2570                           
  2571                           ;Lab6.c: 619: MensajeLCD_Var("     !Error!");
  2572   000CDA  0E4D               	movlw	low STR_28
  2573   000CDC  0100               	movlb	0	; () banked
  2574   000CDE  6F65               	movwf	MensajeLCD_Var@a& (0+255),b
  2575   000CE0  0E7F               	movlw	high STR_28
  2576   000CE2  6F66               	movwf	(MensajeLCD_Var@a+1)& (0+255),b
  2577   000CE4  ECF9  F009         	call	_MensajeLCD_Var	;wreg free
  2578                           
  2579                           ; BSR set to: 0
  2580                           ;Lab6.c: 620: _delay((unsigned long)((1000)*(1000000/4000.0)));
  2581   000CE8  0E02               	movlw	2
  2582   000CEA  0100               	movlb	0	; () banked
  2583   000CEC  6F6C               	movwf	(??_PreguntaAlUsuario+1)& (0+255),b
  2584   000CEE  0E45               	movlw	69
  2585   000CF0  6F6B               	movwf	??_PreguntaAlUsuario& (0+255),b
  2586   000CF2  0EA9               	movlw	169
  2587   000CF4                     u3967:
  2588   000CF4  2EE8               	decfsz	wreg,f,c
  2589   000CF6  D7FE               	bra	u3967
  2590   000CF8  2F6B               	decfsz	??_PreguntaAlUsuario& (0+255),f,b
  2591   000CFA  D7FC               	bra	u3967
  2592   000CFC  2F6C               	decfsz	(??_PreguntaAlUsuario+1)& (0+255),f,b
  2593   000CFE  D7FA               	bra	u3967
  2594   000D00  D000               	nop2	
  2595                           
  2596                           ;Lab6.c: 621: BorraLCD();
  2597   000D02  EC02  F00C         	call	_BorraLCD	;wreg free
  2598                           
  2599                           ;Lab6.c: 622: MensajeLCD_Var("Valor max: 59");
  2600   000D06  0E31               	movlw	low STR_29
  2601   000D08  0100               	movlb	0	; () banked
  2602   000D0A  6F65               	movwf	MensajeLCD_Var@a& (0+255),b
  2603   000D0C  0E7F               	movlw	high STR_29
  2604   000D0E  6F66               	movwf	(MensajeLCD_Var@a+1)& (0+255),b
  2605   000D10  ECF9  F009         	call	_MensajeLCD_Var	;wreg free
  2606                           
  2607                           ; BSR set to: 0
  2608                           ;Lab6.c: 623: DireccionaLCD(0xC0);
  2609   000D14  0EC0               	movlw	192
  2610   000D16  ECC9  F00B         	call	_DireccionaLCD
  2611                           
  2612                           ;Lab6.c: 624: MensajeLCD_Var("Valor min: 01");
  2613   000D1A  0E23               	movlw	low STR_30
  2614   000D1C  0100               	movlb	0	; () banked
  2615   000D1E  6F65               	movwf	MensajeLCD_Var@a& (0+255),b
  2616   000D20  0E7F               	movlw	high STR_30
  2617   000D22  6F66               	movwf	(MensajeLCD_Var@a+1)& (0+255),b
  2618   000D24  ECF9  F009         	call	_MensajeLCD_Var	;wreg free
  2619                           
  2620                           ; BSR set to: 0
  2621                           ;Lab6.c: 625: _delay((unsigned long)((2000)*(1000000/4000.0)));
  2622   000D28  0E03               	movlw	3
  2623   000D2A  0100               	movlb	0	; () banked
  2624   000D2C  6F6C               	movwf	(??_PreguntaAlUsuario+1)& (0+255),b
  2625   000D2E  0E8A               	movlw	138
  2626   000D30  6F6B               	movwf	??_PreguntaAlUsuario& (0+255),b
  2627   000D32  0E55               	movlw	85
  2628   000D34                     u3977:
  2629   000D34  2EE8               	decfsz	wreg,f,c
  2630   000D36  D7FE               	bra	u3977
  2631   000D38  2F6B               	decfsz	??_PreguntaAlUsuario& (0+255),f,b
  2632   000D3A  D7FC               	bra	u3977
  2633   000D3C  2F6C               	decfsz	(??_PreguntaAlUsuario+1)& (0+255),f,b
  2634   000D3E  D7FA               	bra	u3977
  2635   000D40  D000               	nop2	
  2636                           
  2637                           ;Lab6.c: 626: BorraLCD();
  2638   000D42  EC02  F00C         	call	_BorraLCD	;wreg free
  2639                           
  2640                           ;Lab6.c: 627: }else{
  2641   000D46  D790               	goto	__ptext1
  2642   000D48                     l558:
  2643                           
  2644                           ;Lab6.c: 628: editor=0;
  2645   000D48  6A46               	clrf	_editor^0,c
  2646                           
  2647                           ;Lab6.c: 629: posicion='0';
  2648   000D4A  0E30               	movlw	48
  2649   000D4C  6E47               	movwf	_posicion^0,c
  2650                           
  2651                           ;Lab6.c: 630: BorraLCD();
  2652   000D4E  EC02  F00C         	call	_BorraLCD	;wreg free
  2653                           
  2654                           ;Lab6.c: 631: break;
  2655   000D52  0012               	return		;funcret
  2656   000D54                     __end_of_PreguntaAlUsuario:
  2657                           	callstack 0
  2658                           
  2659 ;; *************** function _MostrarCursor *****************
  2660 ;; Defined at:
  2661 ;;		line 326 in file "LibLCDXC8.h"
  2662 ;; Parameters:    Size  Location     Type
  2663 ;;		None
  2664 ;; Auto vars:     Size  Location     Type
  2665 ;;		None
  2666 ;; Return value:  Size  Location     Type
  2667 ;;                  1    wreg      void 
  2668 ;; Registers used:
  2669 ;;		wreg, status,2, status,0, cstack
  2670 ;; Tracked objects:
  2671 ;;		On entry : 0/0
  2672 ;;		On exit  : 0/0
  2673 ;;		Unchanged: 0/0
  2674 ;; Data sizes:     COMRAM   BANK0   BANK1   BANK2   BANK3   BANK4   BANK5   BANK6   BANK7
  2675 ;;      Params:         0       0       0       0       0       0       0       0       0
  2676 ;;      Locals:         0       0       0       0       0       0       0       0       0
  2677 ;;      Temps:          0       0       0       0       0       0       0       0       0
  2678 ;;      Totals:         0       0       0       0       0       0       0       0       0
  2679 ;;Total ram usage:        0 bytes
  2680 ;; Hardware stack levels used: 1
  2681 ;; Hardware stack levels required when called: 13
  2682 ;; This function calls:
  2683 ;;		_ComandoLCD
  2684 ;; This function is called by:
  2685 ;;		_PreguntaAlUsuario
  2686 ;; This function uses a non-reentrant model
  2687 ;;
  2688                           
  2689                           	psect	text2
  2690   0018D4                     __ptext2:
  2691                           	callstack 0
  2692   0018D4                     _MostrarCursor:
  2693                           	callstack 16
  2694                           
  2695                           ;LibLCDXC8.h: 327: ComandoLCD(0xF);
  2696                           
  2697                           ;incstack = 0
  2698   0018D4  0E0F               	movlw	15
  2699   0018D6  EC05  F00B         	call	_ComandoLCD
  2700   0018DA  0012               	return		;funcret
  2701   0018DC                     __end_of_MostrarCursor:
  2702                           	callstack 0
  2703                           
  2704 ;; *************** function _MedirDistancia *****************
  2705 ;; Defined at:
  2706 ;;		line 673 in file "Lab6.c"
  2707 ;; Parameters:    Size  Location     Type
  2708 ;;		None
  2709 ;; Auto vars:     Size  Location     Type
  2710 ;;  aux             1    7[BANK0 ] unsigned char 
  2711 ;; Return value:  Size  Location     Type
  2712 ;;                  1    wreg      unsigned char 
  2713 ;; Registers used:
  2714 ;;		wreg, status,2, status,0, cstack
  2715 ;; Tracked objects:
  2716 ;;		On entry : 0/0
  2717 ;;		On exit  : 0/0
  2718 ;;		Unchanged: 0/0
  2719 ;; Data sizes:     COMRAM   BANK0   BANK1   BANK2   BANK3   BANK4   BANK5   BANK6   BANK7
  2720 ;;      Params:         0       0       0       0       0       0       0       0       0
  2721 ;;      Locals:         0       1       0       0       0       0       0       0       0
  2722 ;;      Temps:          0       0       0       0       0       0       0       0       0
  2723 ;;      Totals:         0       1       0       0       0       0       0       0       0
  2724 ;;Total ram usage:        1 bytes
  2725 ;; Hardware stack levels used: 1
  2726 ;; Hardware stack levels required when called: 9
  2727 ;; This function calls:
  2728 ;;		___lwdiv
  2729 ;; This function is called by:
  2730 ;;		_main
  2731 ;; This function uses a non-reentrant model
  2732 ;;
  2733                           
  2734                           	psect	text3
  2735   001000                     __ptext3:
  2736                           	callstack 0
  2737   001000                     _MedirDistancia:
  2738                           	callstack 21
  2739                           
  2740                           ;Lab6.c: 676: CCP2CON=0b00000100;
  2741                           
  2742                           ;incstack = 0
  2743   001000  0E04               	movlw	4
  2744   001002  6EBA               	movwf	186,c	;volatile
  2745                           
  2746                           ;Lab6.c: 677: TMR1=0;
  2747   001004  0E00               	movlw	0
  2748   001006  6ECF               	movwf	207,c	;volatile
  2749   001008  0E00               	movlw	0
  2750   00100A  6ECE               	movwf	206,c	;volatile
  2751                           
  2752                           ;Lab6.c: 678: TMR1IF=0;
  2753   00100C  909E               	bcf	3998,0,c	;volatile
  2754                           
  2755                           ;Lab6.c: 679: CCP2IF=0;
  2756   00100E  90A1               	bcf	4001,0,c	;volatile
  2757                           
  2758                           ;Lab6.c: 681: RC0=1;
  2759   001010  8082               	bsf	3970,0,c	;volatile
  2760                           
  2761                           ;Lab6.c: 682: _delay((unsigned long)((10)*(1000000/4000000.0)));
  2762   001012  D000               	nop2		;2 cycle nop
  2763                           
  2764                           ;Lab6.c: 683: RC0=0;
  2765   001014  9082               	bcf	3970,0,c	;volatile
  2766                           
  2767                           ;Lab6.c: 685: etimeout=1;
  2768   001016  0E01               	movlw	1
  2769   001018  6E40               	movwf	_etimeout^0,c
  2770   00101A                     l589:
  2771   00101A  B282               	btfsc	3970,1,c	;volatile
  2772   00101C  D003               	goto	u3490
  2773   00101E  0440               	decf	_etimeout^0,w,c
  2774   001020  B4D8               	btfsc	status,2,c
  2775   001022  D7FB               	goto	l589
  2776   001024                     u3490:
  2777                           
  2778                           ;Lab6.c: 687: if(etimeout==0){
  2779   001024  5040               	movf	_etimeout^0,w,c
  2780   001026  A4D8               	btfss	status,2,c
  2781   001028  D002               	goto	l594
  2782                           
  2783                           ;Lab6.c: 688: return 0;
  2784   00102A  0E00               	movlw	0
  2785   00102C  0012               	return	
  2786   00102E                     l594:
  2787                           
  2788                           ;Lab6.c: 689: };Lab6.c: 691: TMR1ON=1;
  2789   00102E  80CD               	bsf	4045,0,c	;volatile
  2790   001030                     l596:
  2791   001030  B0A1               	btfsc	4001,0,c	;volatile
  2792   001032  D002               	goto	u3520
  2793   001034  A09E               	btfss	3998,0,c	;volatile
  2794   001036  D7FC               	goto	l596
  2795   001038                     u3520:
  2796                           
  2797                           ;Lab6.c: 693: TMR1ON=0;
  2798   001038  90CD               	bcf	4045,0,c	;volatile
  2799                           
  2800                           ;Lab6.c: 695: if(TMR1IF==1)
  2801   00103A  A09E               	btfss	3998,0,c	;volatile
  2802   00103C  D003               	goto	l4832
  2803                           
  2804                           ;Lab6.c: 696: aux=255;
  2805   00103E  0100               	movlb	0	; () banked
  2806   001040  6967               	setf	MedirDistancia@aux& (0+255),b
  2807   001042  D017               	goto	l4838
  2808   001044                     l4832:
  2809                           
  2810                           ;Lab6.c: 697: else{;Lab6.c: 698: if(CCPR2>=3556)
  2811   001044  0EE4               	movlw	228
  2812   001046  5CBB               	subwf	187,w,c	;volatile
  2813   001048  0E0D               	movlw	13
  2814   00104A  58BC               	subwfb	188,w,c	;volatile
  2815   00104C  A0D8               	btfss	status,0,c
  2816   00104E  D004               	goto	l4836
  2817                           
  2818                           ;Lab6.c: 699: CCPR2=3556;
  2819   001050  0E0D               	movlw	13
  2820   001052  6EBC               	movwf	188,c	;volatile
  2821   001054  0EE4               	movlw	228
  2822   001056  6EBB               	movwf	187,c	;volatile
  2823   001058                     l4836:
  2824                           
  2825                           ;Lab6.c: 700: aux=CCPR2/14;
  2826   001058  CFBB F060          	movff	4027,___lwdiv@dividend	;volatile
  2827   00105C  CFBC F061          	movff	4028,___lwdiv@dividend+1	;volatile
  2828   001060  0E00               	movlw	0
  2829   001062  0100               	movlb	0	; () banked
  2830   001064  6F63               	movwf	(___lwdiv@divisor+1)& (0+255),b
  2831   001066  0E0E               	movlw	14
  2832   001068  6F62               	movwf	___lwdiv@divisor& (0+255),b
  2833   00106A  ECA7  F009         	call	___lwdiv	;wreg free
  2834   00106E  5160               	movf	?___lwdiv& (0+255),w,b
  2835   001070  6F67               	movwf	MedirDistancia@aux& (0+255),b
  2836   001072                     l4838:
  2837                           
  2838                           ; BSR set to: 0
  2839                           ;Lab6.c: 701: };Lab6.c: 703: return aux;
  2840   001072  5167               	movf	MedirDistancia@aux& (0+255),w,b
  2841   001074  0012               	return		;funcret
  2842   001076                     __end_of_MedirDistancia:
  2843                           	callstack 0
  2844                           
  2845 ;; *************** function ___lwdiv *****************
  2846 ;; Defined at:
  2847 ;;		line 7 in file "C:\Program Files\Microchip\xc8\v2.50\pic\sources\c90\common\lwdiv.c"
  2848 ;; Parameters:    Size  Location     Type
  2849 ;;  dividend        2    0[BANK0 ] unsigned int 
  2850 ;;  divisor         2    2[BANK0 ] unsigned int 
  2851 ;; Auto vars:     Size  Location     Type
  2852 ;;  quotient        2    5[BANK0 ] unsigned int 
  2853 ;;  counter         1    4[BANK0 ] unsigned char 
  2854 ;; Return value:  Size  Location     Type
  2855 ;;                  2    0[BANK0 ] unsigned int 
  2856 ;; Registers used:
  2857 ;;		wreg, status,2, status,0
  2858 ;; Tracked objects:
  2859 ;;		On entry : 3F/0
  2860 ;;		On exit  : 3F/0
  2861 ;;		Unchanged: 0/0
  2862 ;; Data sizes:     COMRAM   BANK0   BANK1   BANK2   BANK3   BANK4   BANK5   BANK6   BANK7
  2863 ;;      Params:         0       4       0       0       0       0       0       0       0
  2864 ;;      Locals:         0       3       0       0       0       0       0       0       0
  2865 ;;      Temps:          0       0       0       0       0       0       0       0       0
  2866 ;;      Totals:         0       7       0       0       0       0       0       0       0
  2867 ;;Total ram usage:        7 bytes
  2868 ;; Hardware stack levels used: 1
  2869 ;; Hardware stack levels required when called: 8
  2870 ;; This function calls:
  2871 ;;		Nothing
  2872 ;; This function is called by:
  2873 ;;		_main
  2874 ;;		_MedirDistancia
  2875 ;; This function uses a non-reentrant model
  2876 ;;
  2877                           
  2878                           	psect	text4
  2879   00134E                     __ptext4:
  2880                           	callstack 0
  2881   00134E                     ___lwdiv:
  2882                           	callstack 22
  2883                           
  2884                           ; BSR set to: 0
  2885                           
  2886                           ;incstack = 0
  2887   00134E  0E00               	movlw	0
  2888   001350  6F66               	movwf	(___lwdiv@quotient+1)& (0+255),b
  2889   001352  0E00               	movlw	0
  2890   001354  6F65               	movwf	___lwdiv@quotient& (0+255),b
  2891                           
  2892                           ; BSR set to: 0
  2893   001356  5162               	movf	___lwdiv@divisor& (0+255),w,b
  2894   001358  1163               	iorwf	(___lwdiv@divisor+1)& (0+255),w,b
  2895   00135A  B4D8               	btfsc	status,2,c
  2896   00135C  D01C               	goto	l1142
  2897                           
  2898                           ; BSR set to: 0
  2899   00135E  0E01               	movlw	1
  2900   001360  6F64               	movwf	___lwdiv@counter& (0+255),b
  2901   001362  D004               	goto	l4646
  2902   001364                     l4644:
  2903                           
  2904                           ; BSR set to: 0
  2905   001364  90D8               	bcf	status,0,c
  2906   001366  3762               	rlcf	___lwdiv@divisor& (0+255),f,b
  2907   001368  3763               	rlcf	(___lwdiv@divisor+1)& (0+255),f,b
  2908   00136A  2B64               	incf	___lwdiv@counter& (0+255),f,b
  2909   00136C                     l4646:
  2910                           
  2911                           ; BSR set to: 0
  2912   00136C  AF63               	btfss	(___lwdiv@divisor+1)& (0+255),7,b
  2913   00136E  D7FA               	goto	l4644
  2914   001370                     u3420:
  2915                           
  2916                           ; BSR set to: 0
  2917   001370  90D8               	bcf	status,0,c
  2918   001372  3765               	rlcf	___lwdiv@quotient& (0+255),f,b
  2919   001374  3766               	rlcf	(___lwdiv@quotient+1)& (0+255),f,b
  2920                           
  2921                           ; BSR set to: 0
  2922   001376  5162               	movf	___lwdiv@divisor& (0+255),w,b
  2923   001378  5D60               	subwf	___lwdiv@dividend& (0+255),w,b
  2924   00137A  5163               	movf	(___lwdiv@divisor+1)& (0+255),w,b
  2925   00137C  5961               	subwfb	(___lwdiv@dividend+1)& (0+255),w,b
  2926   00137E  A0D8               	btfss	status,0,c
  2927   001380  D005               	goto	l4656
  2928                           
  2929                           ; BSR set to: 0
  2930   001382  5162               	movf	___lwdiv@divisor& (0+255),w,b
  2931   001384  5F60               	subwf	___lwdiv@dividend& (0+255),f,b
  2932   001386  5163               	movf	(___lwdiv@divisor+1)& (0+255),w,b
  2933   001388  5B61               	subwfb	(___lwdiv@dividend+1)& (0+255),f,b
  2934                           
  2935                           ; BSR set to: 0
  2936   00138A  8165               	bsf	___lwdiv@quotient& (0+255),0,b
  2937   00138C                     l4656:
  2938                           
  2939                           ; BSR set to: 0
  2940   00138C  90D8               	bcf	status,0,c
  2941   00138E  3363               	rrcf	(___lwdiv@divisor+1)& (0+255),f,b
  2942   001390  3362               	rrcf	___lwdiv@divisor& (0+255),f,b
  2943                           
  2944                           ; BSR set to: 0
  2945   001392  2F64               	decfsz	___lwdiv@counter& (0+255),f,b
  2946   001394  D7ED               	goto	u3420
  2947   001396                     l1142:
  2948                           
  2949                           ; BSR set to: 0
  2950   001396  C065  F060         	movff	___lwdiv@quotient,?___lwdiv
  2951   00139A  C066  F061         	movff	___lwdiv@quotient+1,?___lwdiv+1
  2952                           
  2953                           ; BSR set to: 0
  2954   00139E  0012               	return		;funcret
  2955   0013A0                     __end_of___lwdiv:
  2956                           	callstack 0
  2957                           
  2958 ;; *************** function _LeerObjetivo *****************
  2959 ;; Defined at:
  2960 ;;		line 738 in file "Lab6.c"
  2961 ;; Parameters:    Size  Location     Type
  2962 ;;		None
  2963 ;; Auto vars:     Size  Location     Type
  2964 ;;		None
  2965 ;; Return value:  Size  Location     Type
  2966 ;;                  2    1[BANK0 ] unsigned int 
  2967 ;; Registers used:
  2968 ;;		wreg, status,2, status,0, cstack
  2969 ;; Tracked objects:
  2970 ;;		On entry : 3F/0
  2971 ;;		On exit  : 3F/0
  2972 ;;		Unchanged: 0/0
  2973 ;; Data sizes:     COMRAM   BANK0   BANK1   BANK2   BANK3   BANK4   BANK5   BANK6   BANK7
  2974 ;;      Params:         0       2       0       0       0       0       0       0       0
  2975 ;;      Locals:         0       0       0       0       0       0       0       0       0
  2976 ;;      Temps:          0       1       0       0       0       0       0       0       0
  2977 ;;      Totals:         0       3       0       0       0       0       0       0       0
  2978 ;;Total ram usage:        3 bytes
  2979 ;; Hardware stack levels used: 1
  2980 ;; Hardware stack levels required when called: 9
  2981 ;; This function calls:
  2982 ;;		_EEPROM_Read
  2983 ;; This function is called by:
  2984 ;;		_main
  2985 ;; This function uses a non-reentrant model
  2986 ;;
  2987                           
  2988                           	psect	text5
  2989   001854                     __ptext5:
  2990                           	callstack 0
  2991   001854                     _LeerObjetivo:
  2992                           	callstack 21
  2993                           
  2994                           ; BSR set to: 0
  2995                           ;Lab6.c: 739: return (unsigned int)EEPROM_Read(0b00000001);
  2996                           
  2997                           ; BSR set to: 0
  2998                           ;incstack = 0
  2999   001854  0E01               	movlw	1
  3000   001856  EC45  F00C         	call	_EEPROM_Read
  3001   00185A  0100               	movlb	0	; () banked
  3002   00185C  6F63               	movwf	??_LeerObjetivo& (0+255),b
  3003   00185E  5163               	movf	??_LeerObjetivo& (0+255),w,b
  3004   001860  6F61               	movwf	?_LeerObjetivo& (0+255),b
  3005   001862  6B62               	clrf	(?_LeerObjetivo+1)& (0+255),b
  3006                           
  3007                           ; BSR set to: 0
  3008   001864  0012               	return		;funcret
  3009   001866                     __end_of_LeerObjetivo:
  3010                           	callstack 0
  3011                           
  3012 ;; *************** function _LeerContador *****************
  3013 ;; Defined at:
  3014 ;;		line 734 in file "Lab6.c"
  3015 ;; Parameters:    Size  Location     Type
  3016 ;;		None
  3017 ;; Auto vars:     Size  Location     Type
  3018 ;;		None
  3019 ;; Return value:  Size  Location     Type
  3020 ;;                  2    1[BANK0 ] unsigned int 
  3021 ;; Registers used:
  3022 ;;		wreg, status,2, status,0, cstack
  3023 ;; Tracked objects:
  3024 ;;		On entry : 3F/0
  3025 ;;		On exit  : 3F/0
  3026 ;;		Unchanged: 0/0
  3027 ;; Data sizes:     COMRAM   BANK0   BANK1   BANK2   BANK3   BANK4   BANK5   BANK6   BANK7
  3028 ;;      Params:         0       2       0       0       0       0       0       0       0
  3029 ;;      Locals:         0       0       0       0       0       0       0       0       0
  3030 ;;      Temps:          0       1       0       0       0       0       0       0       0
  3031 ;;      Totals:         0       3       0       0       0       0       0       0       0
  3032 ;;Total ram usage:        3 bytes
  3033 ;; Hardware stack levels used: 1
  3034 ;; Hardware stack levels required when called: 9
  3035 ;; This function calls:
  3036 ;;		_EEPROM_Read
  3037 ;; This function is called by:
  3038 ;;		_main
  3039 ;; This function uses a non-reentrant model
  3040 ;;
  3041                           
  3042                           	psect	text6
  3043   001866                     __ptext6:
  3044                           	callstack 0
  3045   001866                     _LeerContador:
  3046                           	callstack 21
  3047                           
  3048                           ; BSR set to: 0
  3049                           ;Lab6.c: 735: return (unsigned int)EEPROM_Read(0b00000000);
  3050                           
  3051                           ; BSR set to: 0
  3052                           ;incstack = 0
  3053   001866  0E00               	movlw	0
  3054   001868  EC45  F00C         	call	_EEPROM_Read
  3055   00186C  0100               	movlb	0	; () banked
  3056   00186E  6F63               	movwf	??_LeerContador& (0+255),b
  3057   001870  5163               	movf	??_LeerContador& (0+255),w,b
  3058   001872  6F61               	movwf	?_LeerContador& (0+255),b
  3059   001874  6B62               	clrf	(?_LeerContador+1)& (0+255),b
  3060                           
  3061                           ; BSR set to: 0
  3062   001876  0012               	return		;funcret
  3063   001878                     __end_of_LeerContador:
  3064                           	callstack 0
  3065                           
  3066 ;; *************** function _EEPROM_Read *****************
  3067 ;; Defined at:
  3068 ;;		line 706 in file "Lab6.c"
  3069 ;; Parameters:    Size  Location     Type
  3070 ;;  address         1    wreg     unsigned char 
  3071 ;; Auto vars:     Size  Location     Type
  3072 ;;  address         1    0[BANK0 ] unsigned char 
  3073 ;; Return value:  Size  Location     Type
  3074 ;;                  1    wreg      unsigned char 
  3075 ;; Registers used:
  3076 ;;		wreg, status,2
  3077 ;; Tracked objects:
  3078 ;;		On entry : 3F/0
  3079 ;;		On exit  : 0/0
  3080 ;;		Unchanged: 0/0
  3081 ;; Data sizes:     COMRAM   BANK0   BANK1   BANK2   BANK3   BANK4   BANK5   BANK6   BANK7
  3082 ;;      Params:         0       0       0       0       0       0       0       0       0
  3083 ;;      Locals:         0       1       0       0       0       0       0       0       0
  3084 ;;      Temps:          0       0       0       0       0       0       0       0       0
  3085 ;;      Totals:         0       1       0       0       0       0       0       0       0
  3086 ;;Total ram usage:        1 bytes
  3087 ;; Hardware stack levels used: 1
  3088 ;; Hardware stack levels required when called: 8
  3089 ;; This function calls:
  3090 ;;		Nothing
  3091 ;; This function is called by:
  3092 ;;		_LeerContador
  3093 ;;		_LeerObjetivo
  3094 ;; This function uses a non-reentrant model
  3095 ;;
  3096                           
  3097                           	psect	text7
  3098   00188A                     __ptext7:
  3099                           	callstack 0
  3100   00188A                     _EEPROM_Read:
  3101                           	callstack 21
  3102                           
  3103                           ; BSR set to: 0
  3104                           ;incstack = 0
  3105                           ;EEPROM_Read@address stored from wreg
  3106   00188A  6F60               	movwf	EEPROM_Read@address& (0+255),b
  3107                           
  3108                           ;Lab6.c: 707: EEADR = address;
  3109   00188C  C060  FFA9         	movff	EEPROM_Read@address,4009	;volatile
  3110                           
  3111                           ;Lab6.c: 708: EEPGD = 0;
  3112   001890  9EA6               	bcf	4006,7,c	;volsfr
  3113                           
  3114                           ;Lab6.c: 709: CFGS = 0;
  3115   001892  9CA6               	bcf	4006,6,c	;volsfr
  3116                           
  3117                           ;Lab6.c: 710: RD = 1;
  3118   001894  80A6               	bsf	4006,0,c	;volsfr
  3119                           
  3120                           ;Lab6.c: 711: return EEDATA;
  3121   001896  50A8               	movf	168,w,c	;volatile
  3122   001898  0012               	return		;funcret
  3123   00189A                     __end_of_EEPROM_Read:
  3124                           	callstack 0
  3125                           
  3126 ;; *************** function _GuardarContador *****************
  3127 ;; Defined at:
  3128 ;;		line 729 in file "Lab6.c"
  3129 ;; Parameters:    Size  Location     Type
  3130 ;;  valor           2    2[BANK0 ] unsigned int 
  3131 ;;  objetivo        2    4[BANK0 ] unsigned int 
  3132 ;; Auto vars:     Size  Location     Type
  3133 ;;		None
  3134 ;; Return value:  Size  Location     Type
  3135 ;;                  1    wreg      void 
  3136 ;; Registers used:
  3137 ;;		wreg, status,2, cstack
  3138 ;; Tracked objects:
  3139 ;;		On entry : 0/0
  3140 ;;		On exit  : 0/0
  3141 ;;		Unchanged: 0/0
  3142 ;; Data sizes:     COMRAM   BANK0   BANK1   BANK2   BANK3   BANK4   BANK5   BANK6   BANK7
  3143 ;;      Params:         0       4       0       0       0       0       0       0       0
  3144 ;;      Locals:         0       0       0       0       0       0       0       0       0
  3145 ;;      Temps:          0       0       0       0       0       0       0       0       0
  3146 ;;      Totals:         0       4       0       0       0       0       0       0       0
  3147 ;;Total ram usage:        4 bytes
  3148 ;; Hardware stack levels used: 1
  3149 ;; Hardware stack levels required when called: 9
  3150 ;; This function calls:
  3151 ;;		_EEPROM_Write
  3152 ;; This function is called by:
  3153 ;;		_main
  3154 ;; This function uses a non-reentrant model
  3155 ;;
  3156                           
  3157                           	psect	text8
  3158   0017AC                     __ptext8:
  3159                           	callstack 0
  3160   0017AC                     _GuardarContador:
  3161                           	callstack 21
  3162                           
  3163                           ;Lab6.c: 730: EEPROM_Write(0b00000000, (unsigned char)(valor & 0xFF));
  3164                           
  3165                           ;incstack = 0
  3166   0017AC  C062  F060         	movff	GuardarContador@valor,EEPROM_Write@data
  3167   0017B0  0E00               	movlw	0
  3168   0017B2  EC65  F00B         	call	_EEPROM_Write
  3169                           
  3170                           ;Lab6.c: 731: EEPROM_Write(0b00000001, (unsigned char)(objetivo & 0xFF));
  3171   0017B6  C064  F060         	movff	GuardarContador@objetivo,EEPROM_Write@data
  3172   0017BA  0E01               	movlw	1
  3173   0017BC  EC65  F00B         	call	_EEPROM_Write
  3174   0017C0  0012               	return		;funcret
  3175   0017C2                     __end_of_GuardarContador:
  3176                           	callstack 0
  3177                           
  3178 ;; *************** function _EEPROM_Write *****************
  3179 ;; Defined at:
  3180 ;;		line 714 in file "Lab6.c"
  3181 ;; Parameters:    Size  Location     Type
  3182 ;;  address         1    wreg     unsigned char 
  3183 ;;  data            1    0[BANK0 ] unsigned char 
  3184 ;; Auto vars:     Size  Location     Type
  3185 ;;  address         1    1[BANK0 ] unsigned char 
  3186 ;; Return value:  Size  Location     Type
  3187 ;;                  1    wreg      void 
  3188 ;; Registers used:
  3189 ;;		wreg, status,2
  3190 ;; Tracked objects:
  3191 ;;		On entry : 0/0
  3192 ;;		On exit  : 0/0
  3193 ;;		Unchanged: 0/0
  3194 ;; Data sizes:     COMRAM   BANK0   BANK1   BANK2   BANK3   BANK4   BANK5   BANK6   BANK7
  3195 ;;      Params:         0       1       0       0       0       0       0       0       0
  3196 ;;      Locals:         0       1       0       0       0       0       0       0       0
  3197 ;;      Temps:          0       0       0       0       0       0       0       0       0
  3198 ;;      Totals:         0       2       0       0       0       0       0       0       0
  3199 ;;Total ram usage:        2 bytes
  3200 ;; Hardware stack levels used: 1
  3201 ;; Hardware stack levels required when called: 8
  3202 ;; This function calls:
  3203 ;;		Nothing
  3204 ;; This function is called by:
  3205 ;;		_main
  3206 ;;		_GuardarContador
  3207 ;; This function uses a non-reentrant model
  3208 ;;
  3209                           
  3210                           	psect	text9
  3211   0016CA                     __ptext9:
  3212                           	callstack 0
  3213   0016CA                     _EEPROM_Write:
  3214                           	callstack 21
  3215                           
  3216                           ;incstack = 0
  3217                           ;EEPROM_Write@address stored from wreg
  3218   0016CA  0100               	movlb	0	; () banked
  3219   0016CC  6F61               	movwf	EEPROM_Write@address& (0+255),b
  3220                           
  3221                           ;Lab6.c: 715: EEADR = address;
  3222   0016CE  C061  FFA9         	movff	EEPROM_Write@address,4009	;volatile
  3223                           
  3224                           ;Lab6.c: 716: EEDATA = data;
  3225   0016D2  C060  FFA8         	movff	EEPROM_Write@data,4008	;volatile
  3226                           
  3227                           ;Lab6.c: 717: EEPGD = 0;
  3228   0016D6  9EA6               	bcf	4006,7,c	;volsfr
  3229                           
  3230                           ;Lab6.c: 718: CFGS = 0;
  3231   0016D8  9CA6               	bcf	4006,6,c	;volsfr
  3232                           
  3233                           ;Lab6.c: 719: WREN = 1;
  3234   0016DA  84A6               	bsf	4006,2,c	;volsfr
  3235                           
  3236                           ;Lab6.c: 720: GIE = 0;
  3237   0016DC  9EF2               	bcf	4082,7,c	;volatile
  3238                           
  3239                           ;Lab6.c: 721: EECON2 = 0b01010101;
  3240   0016DE  0E55               	movlw	85
  3241   0016E0  6EA7               	movwf	167,c	;volsfr
  3242                           
  3243                           ;Lab6.c: 722: EECON2 = 0b10101010;
  3244   0016E2  0EAA               	movlw	170
  3245   0016E4  6EA7               	movwf	167,c	;volsfr
  3246                           
  3247                           ;Lab6.c: 723: WR = 1;
  3248   0016E6  82A6               	bsf	4006,1,c	;volsfr
  3249                           
  3250                           ;Lab6.c: 724: GIE = 1;
  3251   0016E8  8EF2               	bsf	4082,7,c	;volatile
  3252   0016EA                     l609:
  3253   0016EA  B2A6               	btfsc	4006,1,c	;volsfr
  3254   0016EC  D7FE               	goto	l609
  3255                           
  3256                           ;Lab6.c: 726: WREN = 0;
  3257   0016EE  94A6               	bcf	4006,2,c	;volsfr
  3258   0016F0  0012               	return		;funcret
  3259   0016F2                     __end_of_EEPROM_Write:
  3260                           	callstack 0
  3261                           
  3262 ;; *************** function _EscribeLCD_n8 *****************
  3263 ;; Defined at:
  3264 ;;		line 149 in file "LibLCDXC8.h"
  3265 ;; Parameters:    Size  Location     Type
  3266 ;;  a               1    wreg     unsigned char 
  3267 ;;  b               1    8[BANK0 ] unsigned char 
  3268 ;; Auto vars:     Size  Location     Type
  3269 ;;  a               1   12[BANK0 ] unsigned char 
  3270 ;;  unidad          1   11[BANK0 ] unsigned char 
  3271 ;;  decena          1   10[BANK0 ] unsigned char 
  3272 ;;  centena         1    9[BANK0 ] unsigned char 
  3273 ;; Return value:  Size  Location     Type
  3274 ;;                  1    wreg      void 
  3275 ;; Registers used:
  3276 ;;		wreg, status,2, status,0, cstack
  3277 ;; Tracked objects:
  3278 ;;		On entry : 3F/0
  3279 ;;		On exit  : 0/0
  3280 ;;		Unchanged: 0/0
  3281 ;; Data sizes:     COMRAM   BANK0   BANK1   BANK2   BANK3   BANK4   BANK5   BANK6   BANK7
  3282 ;;      Params:         0       1       0       0       0       0       0       0       0
  3283 ;;      Locals:         0       4       0       0       0       0       0       0       0
  3284 ;;      Temps:          0       0       0       0       0       0       0       0       0
  3285 ;;      Totals:         0       5       0       0       0       0       0       0       0
  3286 ;;Total ram usage:        5 bytes
  3287 ;; Hardware stack levels used: 1
  3288 ;; Hardware stack levels required when called: 10
  3289 ;; This function calls:
  3290 ;;		_EnviaDato
  3291 ;;		_HabilitaLCD
  3292 ;;		_RetardoLCD
  3293 ;;		___lbdiv
  3294 ;;		___lbmod
  3295 ;; This function is called by:
  3296 ;;		_main
  3297 ;; This function uses a non-reentrant model
  3298 ;;
  3299                           
  3300                           	psect	text10
  3301   000B7A                     __ptext10:
  3302                           	callstack 0
  3303   000B7A                     _EscribeLCD_n8:
  3304                           	callstack 20
  3305                           
  3306                           ;incstack = 0
  3307                           ;EscribeLCD_n8@a stored from wreg
  3308   000B7A  6F6C               	movwf	EscribeLCD_n8@a& (0+255),b
  3309                           
  3310                           ;LibLCDXC8.h: 154: unsigned char centena,decena,unidad;;LibLCDXC8.h: 155: LATA4=1;
  3311   000B7C  8889               	bsf	3977,4,c	;volatile
  3312                           
  3313                           ;LibLCDXC8.h: 156: switch(b){
  3314   000B7E  D068               	goto	l4694
  3315   000B80                     l4662:
  3316                           
  3317                           ; BSR set to: 0
  3318   000B80  0E0A               	movlw	10
  3319   000B82  6F60               	movwf	___lbmod@divisor& (0+255),b
  3320   000B84  516C               	movf	EscribeLCD_n8@a& (0+255),w,b
  3321   000B86  EC50  F00B         	call	___lbmod
  3322   000B8A  6F6B               	movwf	EscribeLCD_n8@unidad& (0+255),b
  3323                           
  3324                           ;LibLCDXC8.h: 158: EnviaDato(unidad+48);
  3325   000B8C  516B               	movf	EscribeLCD_n8@unidad& (0+255),w,b
  3326   000B8E  0F30               	addlw	48
  3327   000B90  EC1F  F00A         	call	_EnviaDato
  3328                           
  3329                           ;LibLCDXC8.h: 159: HabilitaLCD();
  3330   000B94  EC4D  F00C         	call	_HabilitaLCD	;wreg free
  3331                           
  3332                           ;LibLCDXC8.h: 160: RetardoLCD(4);
  3333   000B98  0E04               	movlw	4
  3334   000B9A  EC9D  F008         	call	_RetardoLCD
  3335                           
  3336                           ;LibLCDXC8.h: 161: break;
  3337   000B9E  0012               	return	
  3338   000BA0                     l4668:
  3339                           
  3340                           ; BSR set to: 0
  3341   000BA0  0E0A               	movlw	10
  3342   000BA2  6F64               	movwf	___lbdiv@divisor& (0+255),b
  3343   000BA4  0E64               	movlw	100
  3344   000BA6  6F60               	movwf	___lbmod@divisor& (0+255),b
  3345   000BA8  516C               	movf	EscribeLCD_n8@a& (0+255),w,b
  3346   000BAA  EC50  F00B         	call	___lbmod
  3347   000BAE  ECCC  F00A         	call	___lbdiv
  3348   000BB2  6F6A               	movwf	EscribeLCD_n8@decena& (0+255),b
  3349                           
  3350                           ;LibLCDXC8.h: 163: unidad=a%10;
  3351   000BB4  0E0A               	movlw	10
  3352   000BB6  6F60               	movwf	___lbmod@divisor& (0+255),b
  3353   000BB8  516C               	movf	EscribeLCD_n8@a& (0+255),w,b
  3354   000BBA  EC50  F00B         	call	___lbmod
  3355   000BBE  6F6B               	movwf	EscribeLCD_n8@unidad& (0+255),b
  3356                           
  3357                           ;LibLCDXC8.h: 164: EnviaDato(decena+48);
  3358   000BC0  516A               	movf	EscribeLCD_n8@decena& (0+255),w,b
  3359   000BC2  0F30               	addlw	48
  3360   000BC4  EC1F  F00A         	call	_EnviaDato
  3361                           
  3362                           ;LibLCDXC8.h: 165: HabilitaLCD();
  3363   000BC8  EC4D  F00C         	call	_HabilitaLCD	;wreg free
  3364                           
  3365                           ;LibLCDXC8.h: 166: RetardoLCD(4);
  3366   000BCC  0E04               	movlw	4
  3367   000BCE  EC9D  F008         	call	_RetardoLCD
  3368                           
  3369                           ;LibLCDXC8.h: 167: EnviaDato(unidad+48);
  3370   000BD2  0100               	movlb	0	; () banked
  3371   000BD4  516B               	movf	EscribeLCD_n8@unidad& (0+255),w,b
  3372   000BD6  0F30               	addlw	48
  3373   000BD8  EC1F  F00A         	call	_EnviaDato
  3374                           
  3375                           ;LibLCDXC8.h: 168: HabilitaLCD();
  3376   000BDC  EC4D  F00C         	call	_HabilitaLCD	;wreg free
  3377                           
  3378                           ;LibLCDXC8.h: 169: RetardoLCD(4);
  3379   000BE0  0E04               	movlw	4
  3380   000BE2  EC9D  F008         	call	_RetardoLCD
  3381                           
  3382                           ;LibLCDXC8.h: 170: break;
  3383   000BE6  0012               	return	
  3384   000BE8                     l4678:
  3385                           
  3386                           ; BSR set to: 0
  3387   000BE8  0E64               	movlw	100
  3388   000BEA  6F64               	movwf	___lbdiv@divisor& (0+255),b
  3389   000BEC  516C               	movf	EscribeLCD_n8@a& (0+255),w,b
  3390   000BEE  ECCC  F00A         	call	___lbdiv
  3391   000BF2  6F69               	movwf	EscribeLCD_n8@centena& (0+255),b
  3392                           
  3393                           ;LibLCDXC8.h: 172: decena=(a%100)/10;
  3394   000BF4  0E0A               	movlw	10
  3395   000BF6  6F64               	movwf	___lbdiv@divisor& (0+255),b
  3396   000BF8  0E64               	movlw	100
  3397   000BFA  6F60               	movwf	___lbmod@divisor& (0+255),b
  3398   000BFC  516C               	movf	EscribeLCD_n8@a& (0+255),w,b
  3399   000BFE  EC50  F00B         	call	___lbmod
  3400   000C02  ECCC  F00A         	call	___lbdiv
  3401   000C06  6F6A               	movwf	EscribeLCD_n8@decena& (0+255),b
  3402                           
  3403                           ;LibLCDXC8.h: 173: unidad=a%10;
  3404   000C08  0E0A               	movlw	10
  3405   000C0A  6F60               	movwf	___lbmod@divisor& (0+255),b
  3406   000C0C  516C               	movf	EscribeLCD_n8@a& (0+255),w,b
  3407   000C0E  EC50  F00B         	call	___lbmod
  3408   000C12  6F6B               	movwf	EscribeLCD_n8@unidad& (0+255),b
  3409                           
  3410                           ;LibLCDXC8.h: 174: EnviaDato(centena+48);
  3411   000C14  5169               	movf	EscribeLCD_n8@centena& (0+255),w,b
  3412   000C16  0F30               	addlw	48
  3413   000C18  EC1F  F00A         	call	_EnviaDato
  3414                           
  3415                           ;LibLCDXC8.h: 175: HabilitaLCD();
  3416   000C1C  EC4D  F00C         	call	_HabilitaLCD	;wreg free
  3417                           
  3418                           ;LibLCDXC8.h: 176: RetardoLCD(4);
  3419   000C20  0E04               	movlw	4
  3420   000C22  EC9D  F008         	call	_RetardoLCD
  3421                           
  3422                           ;LibLCDXC8.h: 177: EnviaDato(decena+48);
  3423   000C26  0100               	movlb	0	; () banked
  3424   000C28  516A               	movf	EscribeLCD_n8@decena& (0+255),w,b
  3425   000C2A  0F30               	addlw	48
  3426   000C2C  EC1F  F00A         	call	_EnviaDato
  3427                           
  3428                           ;LibLCDXC8.h: 178: HabilitaLCD();
  3429   000C30  EC4D  F00C         	call	_HabilitaLCD	;wreg free
  3430                           
  3431                           ;LibLCDXC8.h: 179: RetardoLCD(4);
  3432   000C34  0E04               	movlw	4
  3433   000C36  EC9D  F008         	call	_RetardoLCD
  3434                           
  3435                           ;LibLCDXC8.h: 180: EnviaDato(unidad+48);
  3436   000C3A  0100               	movlb	0	; () banked
  3437   000C3C  516B               	movf	EscribeLCD_n8@unidad& (0+255),w,b
  3438   000C3E  0F30               	addlw	48
  3439   000C40  EC1F  F00A         	call	_EnviaDato
  3440                           
  3441                           ;LibLCDXC8.h: 181: HabilitaLCD();
  3442   000C44  EC4D  F00C         	call	_HabilitaLCD	;wreg free
  3443                           
  3444                           ;LibLCDXC8.h: 182: RetardoLCD(4);
  3445   000C48  0E04               	movlw	4
  3446   000C4A  EC9D  F008         	call	_RetardoLCD
  3447                           
  3448                           ;LibLCDXC8.h: 183: break;
  3449   000C4E  0012               	return	
  3450   000C50                     l4694:
  3451   000C50  0100               	movlb	0	; () banked
  3452   000C52  5168               	movf	EscribeLCD_n8@b& (0+255),w,b
  3453                           
  3454                           ; Switch size 1, requested type "simple"
  3455                           ; Number of cases is 3, Range of values is 1 to 3
  3456                           ; switch strategies available:
  3457                           ; Name         Instructions Cycles
  3458                           ; simple_byte           10     6 (average)
  3459                           ;	Chosen strategy is simple_byte
  3460   000C54  0A01               	xorlw	1	; case 1
  3461   000C56  B4D8               	btfsc	status,2,c
  3462   000C58  D793               	goto	l4662
  3463   000C5A  0A03               	xorlw	3	; case 2
  3464   000C5C  B4D8               	btfsc	status,2,c
  3465   000C5E  D7A0               	goto	l4668
  3466   000C60  0A01               	xorlw	1	; case 3
  3467   000C62  A4D8               	btfss	status,2,c
  3468   000C64  0012               	return	
  3469   000C66  D7C0               	goto	l4678
  3470   000C68                     __end_of_EscribeLCD_n8:
  3471                           	callstack 0
  3472                           
  3473 ;; *************** function ___lbmod *****************
  3474 ;; Defined at:
  3475 ;;		line 4 in file "C:\Program Files\Microchip\xc8\v2.50\pic\sources\c90\common\lbmod.c"
  3476 ;; Parameters:    Size  Location     Type
  3477 ;;  dividend        1    wreg     unsigned char 
  3478 ;;  divisor         1    0[BANK0 ] unsigned char 
  3479 ;; Auto vars:     Size  Location     Type
  3480 ;;  dividend        1    1[BANK0 ] unsigned char 
  3481 ;;  rem             1    3[BANK0 ] unsigned char 
  3482 ;;  counter         1    2[BANK0 ] unsigned char 
  3483 ;; Return value:  Size  Location     Type
  3484 ;;                  1    wreg      unsigned char 
  3485 ;; Registers used:
  3486 ;;		wreg, status,2, status,0
  3487 ;; Tracked objects:
  3488 ;;		On entry : 3F/0
  3489 ;;		On exit  : 3F/0
  3490 ;;		Unchanged: 0/0
  3491 ;; Data sizes:     COMRAM   BANK0   BANK1   BANK2   BANK3   BANK4   BANK5   BANK6   BANK7
  3492 ;;      Params:         0       1       0       0       0       0       0       0       0
  3493 ;;      Locals:         0       3       0       0       0       0       0       0       0
  3494 ;;      Temps:          0       0       0       0       0       0       0       0       0
  3495 ;;      Totals:         0       4       0       0       0       0       0       0       0
  3496 ;;Total ram usage:        4 bytes
  3497 ;; Hardware stack levels used: 1
  3498 ;; Hardware stack levels required when called: 8
  3499 ;; This function calls:
  3500 ;;		Nothing
  3501 ;; This function is called by:
  3502 ;;		_EscribeLCD_n8
  3503 ;; This function uses a non-reentrant model
  3504 ;;
  3505                           
  3506                           	psect	text11
  3507   0016A0                     __ptext11:
  3508                           	callstack 0
  3509   0016A0                     ___lbmod:
  3510                           	callstack 21
  3511                           
  3512                           ;incstack = 0
  3513                           ;___lbmod@dividend stored from wreg
  3514   0016A0  6F61               	movwf	___lbmod@dividend& (0+255),b
  3515   0016A2  0E08               	movlw	8
  3516   0016A4  0100               	movlb	0	; () banked
  3517   0016A6  6F62               	movwf	___lbmod@counter& (0+255),b
  3518                           
  3519                           ; BSR set to: 0
  3520   0016A8  6B63               	clrf	___lbmod@rem& (0+255),b
  3521   0016AA                     l4624:
  3522                           
  3523                           ; BSR set to: 0
  3524   0016AA  90D8               	bcf	status,0,c
  3525   0016AC  3561               	rlcf	___lbmod@dividend& (0+255),w,b
  3526   0016AE  3563               	rlcf	___lbmod@rem& (0+255),w,b
  3527   0016B0  6F63               	movwf	___lbmod@rem& (0+255),b
  3528                           
  3529                           ; BSR set to: 0
  3530   0016B2  90D8               	bcf	status,0,c
  3531   0016B4  3761               	rlcf	___lbmod@dividend& (0+255),f,b
  3532                           
  3533                           ; BSR set to: 0
  3534   0016B6  5160               	movf	___lbmod@divisor& (0+255),w,b
  3535   0016B8  5D63               	subwf	___lbmod@rem& (0+255),w,b
  3536   0016BA  A0D8               	btfss	status,0,c
  3537   0016BC  D002               	goto	l4632
  3538                           
  3539                           ; BSR set to: 0
  3540   0016BE  5160               	movf	___lbmod@divisor& (0+255),w,b
  3541   0016C0  5F63               	subwf	___lbmod@rem& (0+255),f,b
  3542   0016C2                     l4632:
  3543                           
  3544                           ; BSR set to: 0
  3545   0016C2  2F62               	decfsz	___lbmod@counter& (0+255),f,b
  3546   0016C4  D7F2               	goto	l4624
  3547                           
  3548                           ; BSR set to: 0
  3549   0016C6  5163               	movf	___lbmod@rem& (0+255),w,b
  3550                           
  3551                           ; BSR set to: 0
  3552   0016C8  0012               	return		;funcret
  3553   0016CA                     __end_of___lbmod:
  3554                           	callstack 0
  3555                           
  3556 ;; *************** function ___lbdiv *****************
  3557 ;; Defined at:
  3558 ;;		line 4 in file "C:\Program Files\Microchip\xc8\v2.50\pic\sources\c90\common\lbdiv.c"
  3559 ;; Parameters:    Size  Location     Type
  3560 ;;  dividend        1    wreg     unsigned char 
  3561 ;;  divisor         1    4[BANK0 ] unsigned char 
  3562 ;; Auto vars:     Size  Location     Type
  3563 ;;  dividend        1    5[BANK0 ] unsigned char 
  3564 ;;  quotient        1    7[BANK0 ] unsigned char 
  3565 ;;  counter         1    6[BANK0 ] unsigned char 
  3566 ;; Return value:  Size  Location     Type
  3567 ;;                  1    wreg      unsigned char 
  3568 ;; Registers used:
  3569 ;;		wreg, status,2, status,0
  3570 ;; Tracked objects:
  3571 ;;		On entry : 3F/0
  3572 ;;		On exit  : 3F/0
  3573 ;;		Unchanged: 0/0
  3574 ;; Data sizes:     COMRAM   BANK0   BANK1   BANK2   BANK3   BANK4   BANK5   BANK6   BANK7
  3575 ;;      Params:         0       1       0       0       0       0       0       0       0
  3576 ;;      Locals:         0       3       0       0       0       0       0       0       0
  3577 ;;      Temps:          0       0       0       0       0       0       0       0       0
  3578 ;;      Totals:         0       4       0       0       0       0       0       0       0
  3579 ;;Total ram usage:        4 bytes
  3580 ;; Hardware stack levels used: 1
  3581 ;; Hardware stack levels required when called: 8
  3582 ;; This function calls:
  3583 ;;		Nothing
  3584 ;; This function is called by:
  3585 ;;		_EscribeLCD_n8
  3586 ;; This function uses a non-reentrant model
  3587 ;;
  3588                           
  3589                           	psect	text12
  3590   001598                     __ptext12:
  3591                           	callstack 0
  3592   001598                     ___lbdiv:
  3593                           	callstack 21
  3594                           
  3595                           ; BSR set to: 0
  3596                           ;incstack = 0
  3597                           ;___lbdiv@dividend stored from wreg
  3598   001598  6F65               	movwf	___lbdiv@dividend& (0+255),b
  3599   00159A  0100               	movlb	0	; () banked
  3600   00159C  6B67               	clrf	___lbdiv@quotient& (0+255),b
  3601                           
  3602                           ; BSR set to: 0
  3603   00159E  5164               	movf	___lbdiv@divisor& (0+255),w,b
  3604   0015A0  B4D8               	btfsc	status,2,c
  3605   0015A2  D015               	goto	l4616
  3606                           
  3607                           ; BSR set to: 0
  3608   0015A4  0E01               	movlw	1
  3609   0015A6  6F66               	movwf	___lbdiv@counter& (0+255),b
  3610   0015A8  D003               	goto	l4604
  3611   0015AA                     l4600:
  3612                           
  3613                           ; BSR set to: 0
  3614   0015AA  90D8               	bcf	status,0,c
  3615   0015AC  3764               	rlcf	___lbdiv@divisor& (0+255),f,b
  3616                           
  3617                           ; BSR set to: 0
  3618   0015AE  2B66               	incf	___lbdiv@counter& (0+255),f,b
  3619   0015B0                     l4604:
  3620                           
  3621                           ; BSR set to: 0
  3622   0015B0  AF64               	btfss	___lbdiv@divisor& (0+255),7,b
  3623   0015B2  D7FB               	goto	l4600
  3624   0015B4                     u3380:
  3625                           
  3626                           ; BSR set to: 0
  3627   0015B4  90D8               	bcf	status,0,c
  3628   0015B6  3767               	rlcf	___lbdiv@quotient& (0+255),f,b
  3629   0015B8  5164               	movf	___lbdiv@divisor& (0+255),w,b
  3630   0015BA  5D65               	subwf	___lbdiv@dividend& (0+255),w,b
  3631   0015BC  A0D8               	btfss	status,0,c
  3632   0015BE  D003               	goto	l4612
  3633                           
  3634                           ; BSR set to: 0
  3635   0015C0  5164               	movf	___lbdiv@divisor& (0+255),w,b
  3636   0015C2  5F65               	subwf	___lbdiv@dividend& (0+255),f,b
  3637                           
  3638                           ; BSR set to: 0
  3639   0015C4  8167               	bsf	___lbdiv@quotient& (0+255),0,b
  3640   0015C6                     l4612:
  3641                           
  3642                           ; BSR set to: 0
  3643   0015C6  90D8               	bcf	status,0,c
  3644   0015C8  3364               	rrcf	___lbdiv@divisor& (0+255),f,b
  3645                           
  3646                           ; BSR set to: 0
  3647   0015CA  2F66               	decfsz	___lbdiv@counter& (0+255),f,b
  3648   0015CC  D7F3               	goto	u3380
  3649   0015CE                     l4616:
  3650                           
  3651                           ; BSR set to: 0
  3652   0015CE  5167               	movf	___lbdiv@quotient& (0+255),w,b
  3653                           
  3654                           ; BSR set to: 0
  3655   0015D0  0012               	return		;funcret
  3656   0015D2                     __end_of___lbdiv:
  3657                           	callstack 0
  3658                           
  3659 ;; *************** function _ConfigVariables *****************
  3660 ;; Defined at:
  3661 ;;		line 558 in file "Lab6.c"
  3662 ;; Parameters:    Size  Location     Type
  3663 ;;		None
  3664 ;; Auto vars:     Size  Location     Type
  3665 ;;		None
  3666 ;; Return value:  Size  Location     Type
  3667 ;;                  1    wreg      void 
  3668 ;; Registers used:
  3669 ;;		wreg, status,2
  3670 ;; Tracked objects:
  3671 ;;		On entry : 0/0
  3672 ;;		On exit  : 0/0
  3673 ;;		Unchanged: 0/0
  3674 ;; Data sizes:     COMRAM   BANK0   BANK1   BANK2   BANK3   BANK4   BANK5   BANK6   BANK7
  3675 ;;      Params:         0       0       0       0       0       0       0       0       0
  3676 ;;      Locals:         0       0       0       0       0       0       0       0       0
  3677 ;;      Temps:          0       0       0       0       0       0       0       0       0
  3678 ;;      Totals:         0       0       0       0       0       0       0       0       0
  3679 ;;Total ram usage:        0 bytes
  3680 ;; Hardware stack levels used: 1
  3681 ;; Hardware stack levels required when called: 8
  3682 ;; This function calls:
  3683 ;;		Nothing
  3684 ;; This function is called by:
  3685 ;;		_main
  3686 ;; This function uses a non-reentrant model
  3687 ;;
  3688                           
  3689                           	psect	text13
  3690   00155C                     __ptext13:
  3691                           	callstack 0
  3692   00155C                     _ConfigVariables:
  3693                           	callstack 22
  3694                           
  3695                           ;Lab6.c: 559: Pulsado=1;
  3696                           
  3697                           ; BSR set to: 0
  3698                           ;incstack = 0
  3699   00155C  0E01               	movlw	1
  3700   00155E  6E51               	movwf	_Pulsado^0,c
  3701                           
  3702                           ;Lab6.c: 560: valorADC2=0;
  3703   001560  0E00               	movlw	0
  3704   001562  6E30               	movwf	(_valorADC2+1)^0,c
  3705   001564  0E00               	movlw	0
  3706   001566  6E2F               	movwf	_valorADC2^0,c
  3707                           
  3708                           ;Lab6.c: 561: contador=0;
  3709   001568  0E00               	movlw	0
  3710   00156A  6E38               	movwf	(_contador+1)^0,c
  3711   00156C  0E00               	movlw	0
  3712   00156E  6E37               	movwf	_contador^0,c
  3713                           
  3714                           ;Lab6.c: 562: salir=0;
  3715   001570  6A45               	clrf	_salir^0,c
  3716                           
  3717                           ;Lab6.c: 563: Supercontador=0;
  3718   001572  0E00               	movlw	0
  3719   001574  6E3A               	movwf	(_Supercontador+1)^0,c
  3720   001576  0E00               	movlw	0
  3721   001578  6E39               	movwf	_Supercontador^0,c
  3722                           
  3723                           ;Lab6.c: 564: contadorRGB=0;
  3724   00157A  0E00               	movlw	0
  3725   00157C  6E36               	movwf	(_contadorRGB+1)^0,c
  3726   00157E  0E00               	movlw	0
  3727   001580  6E35               	movwf	_contadorRGB^0,c
  3728                           
  3729                           ;Lab6.c: 565: posicion=0;
  3730   001582  6A47               	clrf	_posicion^0,c
  3731                           
  3732                           ;Lab6.c: 566: Objetivo=0;
  3733   001584  0E00               	movlw	0
  3734   001586  6E34               	movwf	(_Objetivo+1)^0,c
  3735   001588  0E00               	movlw	0
  3736   00158A  6E33               	movwf	_Objetivo^0,c
  3737                           
  3738                           ;Lab6.c: 567: Tecla='\0';
  3739   00158C  6A44               	clrf	_Tecla^0,c
  3740                           
  3741                           ;Lab6.c: 569: modoReversa = 0;
  3742   00158E  6A3D               	clrf	_modoReversa^0,c
  3743                           
  3744                           ;Lab6.c: 570: LATA6 = 0;
  3745   001590  9C89               	bcf	3977,6,c	;volatile
  3746                           
  3747                           ;Lab6.c: 572: control_manual_pwm = 0;
  3748   001592  6A3C               	clrf	_control_manual_pwm^0,c
  3749                           
  3750                           ;Lab6.c: 573: pwm_duty_perc = 0;
  3751   001594  6A3B               	clrf	_pwm_duty_perc^0,c
  3752   001596  0012               	return		;funcret
  3753   001598                     __end_of_ConfigVariables:
  3754                           	callstack 0
  3755                           
  3756 ;; *************** function _Bienvenida *****************
  3757 ;; Defined at:
  3758 ;;		line 576 in file "Lab6.c"
  3759 ;; Parameters:    Size  Location     Type
  3760 ;;		None
  3761 ;; Auto vars:     Size  Location     Type
  3762 ;;  i               2   13[BANK0 ] int 
  3763 ;; Return value:  Size  Location     Type
  3764 ;;                  1    wreg      void 
  3765 ;; Registers used:
  3766 ;;		wreg, fsr2l, fsr2h, status,2, status,0, tblptrl, tblptrh, tblptru, prodl, prodh, cstack
  3767 ;; Tracked objects:
  3768 ;;		On entry : 0/0
  3769 ;;		On exit  : 3F/0
  3770 ;;		Unchanged: 0/0
  3771 ;; Data sizes:     COMRAM   BANK0   BANK1   BANK2   BANK3   BANK4   BANK5   BANK6   BANK7
  3772 ;;      Params:         0       0       0       0       0       0       0       0       0
  3773 ;;      Locals:         0       2       0       0       0       0       0       0       0
  3774 ;;      Temps:          0       2       0       0       0       0       0       0       0
  3775 ;;      Totals:         0       4       0       0       0       0       0       0       0
  3776 ;;Total ram usage:        4 bytes
  3777 ;; Hardware stack levels used: 1
  3778 ;; Hardware stack levels required when called: 14
  3779 ;; This function calls:
  3780 ;;		_ConfiguraLCD
  3781 ;;		_CrearCaracter
  3782 ;;		_DesplazaPantallaD
  3783 ;;		_DireccionaLCD
  3784 ;;		_EscribeLCD_c
  3785 ;;		_InicializaLCD
  3786 ;;		_MensajeLCD_Var
  3787 ;;		_OcultarCursor
  3788 ;; This function is called by:
  3789 ;;		_main
  3790 ;; This function uses a non-reentrant model
  3791 ;;
  3792                           
  3793                           	psect	text14
  3794   000E3A                     __ptext14:
  3795                           	callstack 0
  3796   000E3A                     _Bienvenida:
  3797                           	callstack 16
  3798                           
  3799                           ;Lab6.c: 577: ConfiguraLCD(4);
  3800                           
  3801                           ;incstack = 0
  3802   000E3A  0E04               	movlw	4
  3803   000E3C  ECA0  F00B         	call	_ConfiguraLCD
  3804                           
  3805                           ;Lab6.c: 578: InicializaLCD();
  3806   000E40  EC71  F007         	call	_InicializaLCD	;wreg free
  3807                           
  3808                           ;Lab6.c: 579: OcultarCursor();
  3809   000E44  EC6E  F00C         	call	_OcultarCursor	;wreg free
  3810                           
  3811                           ;Lab6.c: 581: CrearCaracter(Estrella, 0);
  3812   000E48  0E49               	movlw	low _Estrella
  3813   000E4A  0100               	movlb	0	; () banked
  3814   000E4C  6F65               	movwf	CrearCaracter@arreglo& (0+255),b
  3815   000E4E  0E00               	movlw	0
  3816   000E50  6F66               	movwf	CrearCaracter@posicionCGRAM& (0+255),b
  3817   000E52  EC6D  F008         	call	_CrearCaracter	;wreg free
  3818                           
  3819                           ;Lab6.c: 583: EscribeLCD_c(0);
  3820   000E56  0E00               	movlw	0
  3821   000E58  ECBC  F00B         	call	_EscribeLCD_c
  3822                           
  3823                           ;Lab6.c: 584: EscribeLCD_c(0);
  3824   000E5C  0E00               	movlw	0
  3825   000E5E  ECBC  F00B         	call	_EscribeLCD_c
  3826                           
  3827                           ;Lab6.c: 585: MensajeLCD_Var("   Bienvenido ");
  3828   000E62  0E05               	movlw	low STR_25
  3829   000E64  0100               	movlb	0	; () banked
  3830   000E66  6F65               	movwf	MensajeLCD_Var@a& (0+255),b
  3831   000E68  0E7F               	movlw	high STR_25
  3832   000E6A  6F66               	movwf	(MensajeLCD_Var@a+1)& (0+255),b
  3833   000E6C  ECF9  F009         	call	_MensajeLCD_Var	;wreg free
  3834                           
  3835                           ; BSR set to: 0
  3836                           ;Lab6.c: 586: DireccionaLCD(0xC0);
  3837   000E70  0EC0               	movlw	192
  3838   000E72  ECC9  F00B         	call	_DireccionaLCD
  3839                           
  3840                           ;Lab6.c: 587: EscribeLCD_c(0);
  3841   000E76  0E00               	movlw	0
  3842   000E78  ECBC  F00B         	call	_EscribeLCD_c
  3843                           
  3844                           ;Lab6.c: 588: EscribeLCD_c(0);
  3845   000E7C  0E00               	movlw	0
  3846   000E7E  ECBC  F00B         	call	_EscribeLCD_c
  3847                           
  3848                           ;Lab6.c: 589: MensajeLCD_Var("    Usuario");
  3849   000E82  0ECB               	movlw	low STR_26
  3850   000E84  0100               	movlb	0	; () banked
  3851   000E86  6F65               	movwf	MensajeLCD_Var@a& (0+255),b
  3852   000E88  0E7F               	movlw	high STR_26
  3853   000E8A  6F66               	movwf	(MensajeLCD_Var@a+1)& (0+255),b
  3854   000E8C  ECF9  F009         	call	_MensajeLCD_Var	;wreg free
  3855                           
  3856                           ; BSR set to: 0
  3857                           ;Lab6.c: 590: _delay((unsigned long)((3200)*(1000000/4000.0)));
  3858   000E90  0E05               	movlw	5
  3859   000E92  0100               	movlb	0	; () banked
  3860   000E94  6F6C               	movwf	(??_Bienvenida+1)& (0+255),b
  3861   000E96  0E0F               	movlw	15
  3862   000E98  6F6B               	movwf	??_Bienvenida& (0+255),b
  3863   000E9A  0EF1               	movlw	241
  3864   000E9C                     u3987:
  3865   000E9C  2EE8               	decfsz	wreg,f,c
  3866   000E9E  D7FE               	bra	u3987
  3867   000EA0  2F6B               	decfsz	??_Bienvenida& (0+255),f,b
  3868   000EA2  D7FC               	bra	u3987
  3869   000EA4  2F6C               	decfsz	(??_Bienvenida+1)& (0+255),f,b
  3870   000EA6  D7FA               	bra	u3987
  3871                           
  3872                           ;Lab6.c: 592: for(int i = 0; i < 18; i++){
  3873   000EA8  0E00               	movlw	0
  3874   000EAA  0100               	movlb	0	; () banked
  3875   000EAC  6F6E               	movwf	(Bienvenida@i+1)& (0+255),b
  3876   000EAE  0E00               	movlw	0
  3877   000EB0  6F6D               	movwf	Bienvenida@i& (0+255),b
  3878   000EB2                     l4738:
  3879                           
  3880                           ; BSR set to: 0
  3881                           ;Lab6.c: 593: DesplazaPantallaD();
  3882   000EB2  EC0C  F00C         	call	_DesplazaPantallaD	;wreg free
  3883                           
  3884                           ;Lab6.c: 594: _delay((unsigned long)((100)*(1000000/4000.0)));
  3885   000EB6  0E21               	movlw	33
  3886   000EB8  0100               	movlb	0	; () banked
  3887   000EBA  6F6B               	movwf	??_Bienvenida& (0+255),b
  3888   000EBC  0E76               	movlw	118
  3889   000EBE                     u3997:
  3890   000EBE  2EE8               	decfsz	wreg,f,c
  3891   000EC0  D7FE               	bra	u3997
  3892   000EC2  2F6B               	decfsz	??_Bienvenida& (0+255),f,b
  3893   000EC4  D7FC               	bra	u3997
  3894   000EC6  0000               	nop	
  3895   000EC8  0100               	movlb	0	; () banked
  3896   000ECA  4B6D               	infsnz	Bienvenida@i& (0+255),f,b
  3897   000ECC  2B6E               	incf	(Bienvenida@i+1)& (0+255),f,b
  3898                           
  3899                           ; BSR set to: 0
  3900   000ECE  BF6E               	btfsc	(Bienvenida@i+1)& (0+255),7,b
  3901   000ED0  D7F0               	goto	l4738
  3902   000ED2  516E               	movf	(Bienvenida@i+1)& (0+255),w,b
  3903   000ED4  E105               	bnz	u3440
  3904   000ED6  0E12               	movlw	18
  3905   000ED8  5D6D               	subwf	Bienvenida@i& (0+255),w,b
  3906   000EDA  B0D8               	btfsc	status,0,c
  3907   000EDC  0012               	return	
  3908   000EDE  D7E9               	goto	l4738
  3909   000EE0                     u3440:
  3910                           
  3911                           ; BSR set to: 0
  3912   000EE0  0012               	return		;funcret
  3913   000EE2                     __end_of_Bienvenida:
  3914                           	callstack 0
  3915                           
  3916 ;; *************** function _OcultarCursor *****************
  3917 ;; Defined at:
  3918 ;;		line 323 in file "LibLCDXC8.h"
  3919 ;; Parameters:    Size  Location     Type
  3920 ;;		None
  3921 ;; Auto vars:     Size  Location     Type
  3922 ;;		None
  3923 ;; Return value:  Size  Location     Type
  3924 ;;                  1    wreg      void 
  3925 ;; Registers used:
  3926 ;;		wreg, status,2, status,0, cstack
  3927 ;; Tracked objects:
  3928 ;;		On entry : 0/0
  3929 ;;		On exit  : 0/0
  3930 ;;		Unchanged: 0/0
  3931 ;; Data sizes:     COMRAM   BANK0   BANK1   BANK2   BANK3   BANK4   BANK5   BANK6   BANK7
  3932 ;;      Params:         0       0       0       0       0       0       0       0       0
  3933 ;;      Locals:         0       0       0       0       0       0       0       0       0
  3934 ;;      Temps:          0       0       0       0       0       0       0       0       0
  3935 ;;      Totals:         0       0       0       0       0       0       0       0       0
  3936 ;;Total ram usage:        0 bytes
  3937 ;; Hardware stack levels used: 1
  3938 ;; Hardware stack levels required when called: 13
  3939 ;; This function calls:
  3940 ;;		_ComandoLCD
  3941 ;; This function is called by:
  3942 ;;		_main
  3943 ;;		_Bienvenida
  3944 ;;		_PreguntaAlUsuario
  3945 ;; This function uses a non-reentrant model
  3946 ;;
  3947                           
  3948                           	psect	text15
  3949   0018DC                     __ptext15:
  3950                           	callstack 0
  3951   0018DC                     _OcultarCursor:
  3952                           	callstack 16
  3953                           
  3954                           ;LibLCDXC8.h: 324: ComandoLCD(0xC);
  3955                           
  3956                           ; BSR set to: 0
  3957                           ;incstack = 0
  3958   0018DC  0E0C               	movlw	12
  3959   0018DE  EC05  F00B         	call	_ComandoLCD
  3960   0018E2  0012               	return		;funcret
  3961   0018E4                     __end_of_OcultarCursor:
  3962                           	callstack 0
  3963                           
  3964 ;; *************** function _ComandoLCD *****************
  3965 ;; Defined at:
  3966 ;;		line 127 in file "LibLCDXC8.h"
  3967 ;; Parameters:    Size  Location     Type
  3968 ;;  a               1    wreg     unsigned char 
  3969 ;; Auto vars:     Size  Location     Type
  3970 ;;  a               1    5[BANK0 ] unsigned char 
  3971 ;; Return value:  Size  Location     Type
  3972 ;;                  1    wreg      void 
  3973 ;; Registers used:
  3974 ;;		wreg, status,2, status,0, cstack
  3975 ;; Tracked objects:
  3976 ;;		On entry : 0/0
  3977 ;;		On exit  : 0/0
  3978 ;;		Unchanged: 0/0
  3979 ;; Data sizes:     COMRAM   BANK0   BANK1   BANK2   BANK3   BANK4   BANK5   BANK6   BANK7
  3980 ;;      Params:         0       0       0       0       0       0       0       0       0
  3981 ;;      Locals:         0       1       0       0       0       0       0       0       0
  3982 ;;      Temps:          0       0       0       0       0       0       0       0       0
  3983 ;;      Totals:         0       1       0       0       0       0       0       0       0
  3984 ;;Total ram usage:        1 bytes
  3985 ;; Hardware stack levels used: 1
  3986 ;; Hardware stack levels required when called: 12
  3987 ;; This function calls:
  3988 ;;		_BorraLCD
  3989 ;;		_CursorAInicio
  3990 ;;		_EnviaDato
  3991 ;;		_HabilitaLCD
  3992 ;;		_RetardoLCD
  3993 ;; This function is called by:
  3994 ;;		_OcultarCursor
  3995 ;;		_MostrarCursor
  3996 ;; This function uses a non-reentrant model
  3997 ;;
  3998                           
  3999                           	psect	text16
  4000   00160A                     __ptext16:
  4001                           	callstack 0
  4002   00160A                     _ComandoLCD:
  4003                           	callstack 16
  4004                           
  4005                           ;incstack = 0
  4006                           ;ComandoLCD@a stored from wreg
  4007   00160A  0100               	movlb	0	; () banked
  4008   00160C  6F65               	movwf	ComandoLCD@a& (0+255),b
  4009                           
  4010                           ;LibLCDXC8.h: 129: LATA4=0;
  4011   00160E  9889               	bcf	3977,4,c	;volatile
  4012                           
  4013                           ;LibLCDXC8.h: 130: if(a==1)
  4014   001610  0100               	movlb	0	; () banked
  4015   001612  0565               	decf	ComandoLCD@a& (0+255),w,b
  4016   001614  A4D8               	btfss	status,2,c
  4017   001616  D003               	goto	l4436
  4018                           
  4019                           ; BSR set to: 0
  4020                           ;LibLCDXC8.h: 131: BorraLCD();
  4021   001618  EC02  F00C         	call	_BorraLCD	;wreg free
  4022   00161C  0012               	return	
  4023   00161E                     l4436:
  4024                           
  4025                           ; BSR set to: 0
  4026                           ;LibLCDXC8.h: 132: else if((a&0b11111110)==2)
  4027   00161E  5165               	movf	ComandoLCD@a& (0+255),w,b
  4028   001620  0BFE               	andlw	254
  4029   001622  0A02               	xorlw	2
  4030   001624  A4D8               	btfss	status,2,c
  4031   001626  D003               	goto	l4440
  4032                           
  4033                           ; BSR set to: 0
  4034                           ;LibLCDXC8.h: 133: CursorAInicio();
  4035   001628  EC72  F00C         	call	_CursorAInicio	;wreg free
  4036   00162C  0012               	return	
  4037   00162E                     l4440:
  4038                           
  4039                           ; BSR set to: 0
  4040                           ;LibLCDXC8.h: 134: else{;LibLCDXC8.h: 135: EnviaDato(a);
  4041   00162E  5165               	movf	ComandoLCD@a& (0+255),w,b
  4042   001630  EC1F  F00A         	call	_EnviaDato
  4043                           
  4044                           ;LibLCDXC8.h: 136: HabilitaLCD();
  4045   001634  EC4D  F00C         	call	_HabilitaLCD	;wreg free
  4046                           
  4047                           ;LibLCDXC8.h: 137: RetardoLCD(4);
  4048   001638  0E04               	movlw	4
  4049   00163A  EC9D  F008         	call	_RetardoLCD
  4050   00163E  0012               	return		;funcret
  4051   001640                     __end_of_ComandoLCD:
  4052                           	callstack 0
  4053                           
  4054 ;; *************** function _CursorAInicio *****************
  4055 ;; Defined at:
  4056 ;;		line 121 in file "LibLCDXC8.h"
  4057 ;; Parameters:    Size  Location     Type
  4058 ;;		None
  4059 ;; Auto vars:     Size  Location     Type
  4060 ;;		None
  4061 ;; Return value:  Size  Location     Type
  4062 ;;                  1    wreg      void 
  4063 ;; Registers used:
  4064 ;;		wreg, status,2, status,0, cstack
  4065 ;; Tracked objects:
  4066 ;;		On entry : 3F/0
  4067 ;;		On exit  : 0/0
  4068 ;;		Unchanged: 0/0
  4069 ;; Data sizes:     COMRAM   BANK0   BANK1   BANK2   BANK3   BANK4   BANK5   BANK6   BANK7
  4070 ;;      Params:         0       0       0       0       0       0       0       0       0
  4071 ;;      Locals:         0       0       0       0       0       0       0       0       0
  4072 ;;      Temps:          0       0       0       0       0       0       0       0       0
  4073 ;;      Totals:         0       0       0       0       0       0       0       0       0
  4074 ;;Total ram usage:        0 bytes
  4075 ;; Hardware stack levels used: 1
  4076 ;; Hardware stack levels required when called: 11
  4077 ;; This function calls:
  4078 ;;		_DireccionaLCD
  4079 ;; This function is called by:
  4080 ;;		_ComandoLCD
  4081 ;; This function uses a non-reentrant model
  4082 ;;
  4083                           
  4084                           	psect	text17
  4085   0018E4                     __ptext17:
  4086                           	callstack 0
  4087   0018E4                     _CursorAInicio:
  4088                           	callstack 16
  4089                           
  4090                           ; BSR set to: 0
  4091                           ;LibLCDXC8.h: 124: DireccionaLCD(0x80);
  4092                           
  4093                           ;incstack = 0
  4094   0018E4  0E80               	movlw	128
  4095   0018E6  ECC9  F00B         	call	_DireccionaLCD
  4096   0018EA  0012               	return		;funcret
  4097   0018EC                     __end_of_CursorAInicio:
  4098                           	callstack 0
  4099                           
  4100 ;; *************** function _MensajeLCD_Var *****************
  4101 ;; Defined at:
  4102 ;;		line 236 in file "LibLCDXC8.h"
  4103 ;; Parameters:    Size  Location     Type
  4104 ;;  a               2    5[BANK0 ] PTR unsigned char 
  4105 ;;		 -> STR_30(14), STR_29(14), STR_28(13), STR_27(17), 
  4106 ;;		 -> STR_26(12), STR_25(15), STR_24(14), STR_23(13), 
  4107 ;;		 -> STR_18(14), STR_17(13), STR_16(15), STR_15(16), 
  4108 ;;		 -> STR_14(11), STR_13(12), STR_12(13), STR_11(13), 
  4109 ;;		 -> STR_10(11), STR_9(7), STR_8(11), STR_7(7), 
  4110 ;;		 -> STR_6(12), STR_5(12), STR_4(12), STR_3(16), 
  4111 ;;		 -> STR_2(13), STR_1(13), 
  4112 ;; Auto vars:     Size  Location     Type
  4113 ;;  i               2    9[BANK0 ] int 
  4114 ;; Return value:  Size  Location     Type
  4115 ;;                  1    wreg      void 
  4116 ;; Registers used:
  4117 ;;		wreg, status,2, status,0, tblptrl, tblptrh, tblptru, cstack
  4118 ;; Tracked objects:
  4119 ;;		On entry : 3F/0
  4120 ;;		On exit  : 3F/0
  4121 ;;		Unchanged: 0/0
  4122 ;; Data sizes:     COMRAM   BANK0   BANK1   BANK2   BANK3   BANK4   BANK5   BANK6   BANK7
  4123 ;;      Params:         0       2       0       0       0       0       0       0       0
  4124 ;;      Locals:         0       2       0       0       0       0       0       0       0
  4125 ;;      Temps:          0       2       0       0       0       0       0       0       0
  4126 ;;      Totals:         0       6       0       0       0       0       0       0       0
  4127 ;;Total ram usage:        6 bytes
  4128 ;; Hardware stack levels used: 1
  4129 ;; Hardware stack levels required when called: 11
  4130 ;; This function calls:
  4131 ;;		_EscribeLCD_c
  4132 ;; This function is called by:
  4133 ;;		_main
  4134 ;;		_Bienvenida
  4135 ;;		_PreguntaAlUsuario
  4136 ;; This function uses a non-reentrant model
  4137 ;;
  4138                           
  4139                           	psect	text18
  4140   0013F2                     __ptext18:
  4141                           	callstack 0
  4142   0013F2                     _MensajeLCD_Var:
  4143                           	callstack 18
  4144                           
  4145                           ; BSR set to: 0
  4146                           ;LibLCDXC8.h: 241: for (int i=0;a[i] != '\0';i++){
  4147                           
  4148                           ;incstack = 0
  4149   0013F2  0E00               	movlw	0
  4150   0013F4  6F6A               	movwf	(MensajeLCD_Var@i+1)& (0+255),b
  4151   0013F6  0E00               	movlw	0
  4152   0013F8  6F69               	movwf	MensajeLCD_Var@i& (0+255),b
  4153   0013FA  D011               	goto	l4518
  4154   0013FC                     l4514:
  4155                           
  4156                           ; BSR set to: 0
  4157                           ;LibLCDXC8.h: 242: EscribeLCD_c(a[i]);
  4158   0013FC  5169               	movf	MensajeLCD_Var@i& (0+255),w,b
  4159   0013FE  2565               	addwf	MensajeLCD_Var@a& (0+255),w,b
  4160   001400  6F67               	movwf	??_MensajeLCD_Var& (0+255),b
  4161   001402  516A               	movf	(MensajeLCD_Var@i+1)& (0+255),w,b
  4162   001404  2166               	addwfc	(MensajeLCD_Var@a+1)& (0+255),w,b
  4163   001406  6F68               	movwf	(??_MensajeLCD_Var+1)& (0+255),b
  4164   001408  C067  FFF6         	movff	??_MensajeLCD_Var,tblptrl
  4165   00140C  C068  FFF7         	movff	??_MensajeLCD_Var+1,tblptrh
  4166   001410                     	if	0	;tblptru may be non-zero
  4167   001410                     	endif
  4168   001410                     	if	0	;tblptru may be non-zero
  4169   001410                     	endif
  4170   001410  0008               	tblrd		*
  4171   001412  50F5               	movf	tablat,w,c
  4172   001414  ECBC  F00B         	call	_EscribeLCD_c
  4173   001418  0100               	movlb	0	; () banked
  4174   00141A  4B69               	infsnz	MensajeLCD_Var@i& (0+255),f,b
  4175   00141C  2B6A               	incf	(MensajeLCD_Var@i+1)& (0+255),f,b
  4176   00141E                     l4518:
  4177                           
  4178                           ; BSR set to: 0
  4179   00141E  5169               	movf	MensajeLCD_Var@i& (0+255),w,b
  4180   001420  2565               	addwf	MensajeLCD_Var@a& (0+255),w,b
  4181   001422  6F67               	movwf	??_MensajeLCD_Var& (0+255),b
  4182   001424  516A               	movf	(MensajeLCD_Var@i+1)& (0+255),w,b
  4183   001426  2166               	addwfc	(MensajeLCD_Var@a+1)& (0+255),w,b
  4184   001428  6F68               	movwf	(??_MensajeLCD_Var+1)& (0+255),b
  4185   00142A  C067  FFF6         	movff	??_MensajeLCD_Var,tblptrl
  4186   00142E  C068  FFF7         	movff	??_MensajeLCD_Var+1,tblptrh
  4187   001432                     	if	0	;tblptru may be non-zero
  4188   001432                     	endif
  4189   001432                     	if	0	;tblptru may be non-zero
  4190   001432                     	endif
  4191   001432  0008               	tblrd		*
  4192   001434  50F5               	movf	tablat,w,c
  4193   001436  0900               	iorlw	0
  4194   001438  B4D8               	btfsc	status,2,c
  4195   00143A  0012               	return	
  4196   00143C  D7DF               	goto	l4514
  4197   00143E                     __end_of_MensajeLCD_Var:
  4198                           	callstack 0
  4199                           
  4200 ;; *************** function _EscribeLCD_c *****************
  4201 ;; Defined at:
  4202 ;;		line 140 in file "LibLCDXC8.h"
  4203 ;; Parameters:    Size  Location     Type
  4204 ;;  a               1    wreg     unsigned char 
  4205 ;; Auto vars:     Size  Location     Type
  4206 ;;  a               1    4[BANK0 ] unsigned char 
  4207 ;; Return value:  Size  Location     Type
  4208 ;;                  1    wreg      void 
  4209 ;; Registers used:
  4210 ;;		wreg, status,2, status,0, cstack
  4211 ;; Tracked objects:
  4212 ;;		On entry : 0/0
  4213 ;;		On exit  : 0/0
  4214 ;;		Unchanged: 0/0
  4215 ;; Data sizes:     COMRAM   BANK0   BANK1   BANK2   BANK3   BANK4   BANK5   BANK6   BANK7
  4216 ;;      Params:         0       0       0       0       0       0       0       0       0
  4217 ;;      Locals:         0       1       0       0       0       0       0       0       0
  4218 ;;      Temps:          0       0       0       0       0       0       0       0       0
  4219 ;;      Totals:         0       1       0       0       0       0       0       0       0
  4220 ;;Total ram usage:        1 bytes
  4221 ;; Hardware stack levels used: 1
  4222 ;; Hardware stack levels required when called: 10
  4223 ;; This function calls:
  4224 ;;		_EnviaDato
  4225 ;;		_HabilitaLCD
  4226 ;;		_RetardoLCD
  4227 ;; This function is called by:
  4228 ;;		_MensajeLCD_Var
  4229 ;;		_Bienvenida
  4230 ;;		_PreguntaAlUsuario
  4231 ;; This function uses a non-reentrant model
  4232 ;;
  4233                           
  4234                           	psect	text19
  4235   001778                     __ptext19:
  4236                           	callstack 0
  4237   001778                     _EscribeLCD_c:
  4238                           	callstack 18
  4239                           
  4240                           ; BSR set to: 0
  4241                           ;incstack = 0
  4242                           ;EscribeLCD_c@a stored from wreg
  4243   001778  0100               	movlb	0	; () banked
  4244   00177A  6F64               	movwf	EscribeLCD_c@a& (0+255),b
  4245                           
  4246                           ;LibLCDXC8.h: 144: LATA4=1;
  4247   00177C  8889               	bsf	3977,4,c	;volatile
  4248                           
  4249                           ;LibLCDXC8.h: 145: EnviaDato(a);
  4250   00177E  0100               	movlb	0	; () banked
  4251   001780  5164               	movf	EscribeLCD_c@a& (0+255),w,b
  4252   001782  EC1F  F00A         	call	_EnviaDato
  4253                           
  4254                           ;LibLCDXC8.h: 146: HabilitaLCD();
  4255   001786  EC4D  F00C         	call	_HabilitaLCD	;wreg free
  4256                           
  4257                           ;LibLCDXC8.h: 147: RetardoLCD(4);
  4258   00178A  0E04               	movlw	4
  4259   00178C  EC9D  F008         	call	_RetardoLCD
  4260   001790  0012               	return		;funcret
  4261   001792                     __end_of_EscribeLCD_c:
  4262                           	callstack 0
  4263                           
  4264 ;; *************** function _InicializaLCD *****************
  4265 ;; Defined at:
  4266 ;;		line 73 in file "LibLCDXC8.h"
  4267 ;; Parameters:    Size  Location     Type
  4268 ;;		None
  4269 ;; Auto vars:     Size  Location     Type
  4270 ;;		None
  4271 ;; Return value:  Size  Location     Type
  4272 ;;                  1    wreg      void 
  4273 ;; Registers used:
  4274 ;;		wreg, status,2, status,0, cstack
  4275 ;; Tracked objects:
  4276 ;;		On entry : 3F/0
  4277 ;;		On exit  : 0/0
  4278 ;;		Unchanged: 0/0
  4279 ;; Data sizes:     COMRAM   BANK0   BANK1   BANK2   BANK3   BANK4   BANK5   BANK6   BANK7
  4280 ;;      Params:         0       0       0       0       0       0       0       0       0
  4281 ;;      Locals:         0       0       0       0       0       0       0       0       0
  4282 ;;      Temps:          0       0       0       0       0       0       0       0       0
  4283 ;;      Totals:         0       0       0       0       0       0       0       0       0
  4284 ;;Total ram usage:        0 bytes
  4285 ;; Hardware stack levels used: 1
  4286 ;; Hardware stack levels required when called: 11
  4287 ;; This function calls:
  4288 ;;		_BorraLCD
  4289 ;;		_EnviaDato
  4290 ;;		_HabilitaLCD
  4291 ;;		_RetardoLCD
  4292 ;; This function is called by:
  4293 ;;		_Bienvenida
  4294 ;; This function uses a non-reentrant model
  4295 ;;
  4296                           
  4297                           	psect	text20
  4298   000EE2                     __ptext20:
  4299                           	callstack 0
  4300   000EE2                     _InicializaLCD:
  4301                           	callstack 18
  4302                           
  4303                           ; BSR set to: 0
  4304                           ;LibLCDXC8.h: 75: LATA4=0;
  4305                           
  4306                           ;incstack = 0
  4307   000EE2  9889               	bcf	3977,4,c	;volatile
  4308                           
  4309                           ; BSR set to: 0
  4310                           ;LibLCDXC8.h: 76: if(interfaz==4)
  4311   000EE4  0E04               	movlw	4
  4312   000EE6  1848               	xorwf	_interfaz^0,w,c
  4313   000EE8  A4D8               	btfss	status,2,c
  4314   000EEA  D004               	goto	l4464
  4315                           
  4316                           ; BSR set to: 0
  4317                           ;LibLCDXC8.h: 77: LATD=(LATD & 0b00001111) | 0x30;
  4318   000EEC  508C               	movf	140,w,c	;volatile
  4319   000EEE  0B0F               	andlw	15
  4320   000EF0  0930               	iorlw	48
  4321   000EF2  D001               	goto	L9
  4322   000EF4                     l4464:
  4323                           
  4324                           ; BSR set to: 0
  4325                           ;LibLCDXC8.h: 78: else;LibLCDXC8.h: 79: LATD=0x3F;
  4326   000EF4  0E3F               	movlw	63
  4327   000EF6                     L9:
  4328   000EF6  6E8C               	movwf	140,c	;volatile
  4329                           
  4330                           ; BSR set to: 0
  4331                           ;LibLCDXC8.h: 80: HabilitaLCD();
  4332   000EF8  EC4D  F00C         	call	_HabilitaLCD	;wreg free
  4333                           
  4334                           ;LibLCDXC8.h: 81: RetardoLCD(1);
  4335   000EFC  0E01               	movlw	1
  4336   000EFE  EC9D  F008         	call	_RetardoLCD
  4337                           
  4338                           ;LibLCDXC8.h: 82: if(interfaz==4)
  4339   000F02  0E04               	movlw	4
  4340   000F04  1848               	xorwf	_interfaz^0,w,c
  4341   000F06  A4D8               	btfss	status,2,c
  4342   000F08  D004               	goto	l4474
  4343                           
  4344                           ;LibLCDXC8.h: 83: LATD=(LATD & 0b00001111) | 0x30;
  4345   000F0A  508C               	movf	140,w,c	;volatile
  4346   000F0C  0B0F               	andlw	15
  4347   000F0E  0930               	iorlw	48
  4348   000F10  D001               	goto	L10
  4349   000F12                     l4474:
  4350                           
  4351                           ;LibLCDXC8.h: 84: else;LibLCDXC8.h: 85: LATD=0x3F;
  4352   000F12  0E3F               	movlw	63
  4353   000F14                     L10:
  4354   000F14  6E8C               	movwf	140,c	;volatile
  4355                           
  4356                           ;LibLCDXC8.h: 86: HabilitaLCD();
  4357   000F16  EC4D  F00C         	call	_HabilitaLCD	;wreg free
  4358                           
  4359                           ;LibLCDXC8.h: 87: RetardoLCD(3);
  4360   000F1A  0E03               	movlw	3
  4361   000F1C  EC9D  F008         	call	_RetardoLCD
  4362                           
  4363                           ;LibLCDXC8.h: 88: if(interfaz==4)
  4364   000F20  0E04               	movlw	4
  4365   000F22  1848               	xorwf	_interfaz^0,w,c
  4366   000F24  A4D8               	btfss	status,2,c
  4367   000F26  D004               	goto	l4484
  4368                           
  4369                           ;LibLCDXC8.h: 89: LATD=(LATD & 0b00001111) | 0x30;
  4370   000F28  508C               	movf	140,w,c	;volatile
  4371   000F2A  0B0F               	andlw	15
  4372   000F2C  0930               	iorlw	48
  4373   000F2E  D001               	goto	L11
  4374   000F30                     l4484:
  4375                           
  4376                           ;LibLCDXC8.h: 90: else;LibLCDXC8.h: 91: LATD=0x3F;
  4377   000F30  0E3F               	movlw	63
  4378   000F32                     L11:
  4379   000F32  6E8C               	movwf	140,c	;volatile
  4380                           
  4381                           ;LibLCDXC8.h: 92: HabilitaLCD();
  4382   000F34  EC4D  F00C         	call	_HabilitaLCD	;wreg free
  4383                           
  4384                           ;LibLCDXC8.h: 93: RetardoLCD(4);
  4385   000F38  0E04               	movlw	4
  4386   000F3A  EC9D  F008         	call	_RetardoLCD
  4387                           
  4388                           ;LibLCDXC8.h: 94: if(interfaz==4){
  4389   000F3E  0E04               	movlw	4
  4390   000F40  1848               	xorwf	_interfaz^0,w,c
  4391   000F42  A4D8               	btfss	status,2,c
  4392   000F44  D011               	goto	l4504
  4393                           
  4394                           ;LibLCDXC8.h: 95: LATD=(LATD & 0b00001111) | 0x20;
  4395   000F46  508C               	movf	140,w,c	;volatile
  4396   000F48  0B0F               	andlw	15
  4397   000F4A  0920               	iorlw	32
  4398   000F4C  6E8C               	movwf	140,c	;volatile
  4399                           
  4400                           ;LibLCDXC8.h: 96: HabilitaLCD();
  4401   000F4E  EC4D  F00C         	call	_HabilitaLCD	;wreg free
  4402                           
  4403                           ;LibLCDXC8.h: 97: RetardoLCD(4);
  4404   000F52  0E04               	movlw	4
  4405   000F54  EC9D  F008         	call	_RetardoLCD
  4406                           
  4407                           ;LibLCDXC8.h: 98: EnviaDato(0x2F);
  4408   000F58  0E2F               	movlw	47
  4409   000F5A  EC1F  F00A         	call	_EnviaDato
  4410                           
  4411                           ;LibLCDXC8.h: 99: HabilitaLCD();
  4412   000F5E  EC4D  F00C         	call	_HabilitaLCD	;wreg free
  4413                           
  4414                           ;LibLCDXC8.h: 100: RetardoLCD(4);
  4415   000F62  0E04               	movlw	4
  4416   000F64  EC9D  F008         	call	_RetardoLCD
  4417   000F68                     l4504:
  4418                           
  4419                           ;LibLCDXC8.h: 101: };LibLCDXC8.h: 102: BorraLCD();
  4420   000F68  EC02  F00C         	call	_BorraLCD	;wreg free
  4421                           
  4422                           ;LibLCDXC8.h: 103: EnviaDato(0xF);
  4423   000F6C  0E0F               	movlw	15
  4424   000F6E  EC1F  F00A         	call	_EnviaDato
  4425                           
  4426                           ;LibLCDXC8.h: 104: HabilitaLCD();
  4427   000F72  EC4D  F00C         	call	_HabilitaLCD	;wreg free
  4428                           
  4429                           ;LibLCDXC8.h: 105: RetardoLCD(4);
  4430   000F76  0E04               	movlw	4
  4431   000F78  EC9D  F008         	call	_RetardoLCD
  4432   000F7C  0012               	return		;funcret
  4433   000F7E                     __end_of_InicializaLCD:
  4434                           	callstack 0
  4435                           
  4436 ;; *************** function _BorraLCD *****************
  4437 ;; Defined at:
  4438 ;;		line 114 in file "LibLCDXC8.h"
  4439 ;; Parameters:    Size  Location     Type
  4440 ;;		None
  4441 ;; Auto vars:     Size  Location     Type
  4442 ;;		None
  4443 ;; Return value:  Size  Location     Type
  4444 ;;                  1    wreg      void 
  4445 ;; Registers used:
  4446 ;;		wreg, status,2, status,0, cstack
  4447 ;; Tracked objects:
  4448 ;;		On entry : 0/0
  4449 ;;		On exit  : 0/0
  4450 ;;		Unchanged: 0/0
  4451 ;; Data sizes:     COMRAM   BANK0   BANK1   BANK2   BANK3   BANK4   BANK5   BANK6   BANK7
  4452 ;;      Params:         0       0       0       0       0       0       0       0       0
  4453 ;;      Locals:         0       0       0       0       0       0       0       0       0
  4454 ;;      Temps:          0       0       0       0       0       0       0       0       0
  4455 ;;      Totals:         0       0       0       0       0       0       0       0       0
  4456 ;;Total ram usage:        0 bytes
  4457 ;; Hardware stack levels used: 1
  4458 ;; Hardware stack levels required when called: 10
  4459 ;; This function calls:
  4460 ;;		_EnviaDato
  4461 ;;		_HabilitaLCD
  4462 ;;		_RetardoLCD
  4463 ;; This function is called by:
  4464 ;;		_InicializaLCD
  4465 ;;		_ComandoLCD
  4466 ;;		_main
  4467 ;;		_PreguntaAlUsuario
  4468 ;; This function uses a non-reentrant model
  4469 ;;
  4470                           
  4471                           	psect	text21
  4472   001804                     __ptext21:
  4473                           	callstack 0
  4474   001804                     _BorraLCD:
  4475                           	callstack 17
  4476                           
  4477                           ;LibLCDXC8.h: 116: LATA4=0;
  4478                           
  4479                           ;incstack = 0
  4480   001804  9889               	bcf	3977,4,c	;volatile
  4481                           
  4482                           ;LibLCDXC8.h: 117: EnviaDato(0x01);
  4483   001806  0E01               	movlw	1
  4484   001808  EC1F  F00A         	call	_EnviaDato
  4485                           
  4486                           ;LibLCDXC8.h: 118: HabilitaLCD();
  4487   00180C  EC4D  F00C         	call	_HabilitaLCD	;wreg free
  4488                           
  4489                           ;LibLCDXC8.h: 119: RetardoLCD(2);
  4490   001810  0E02               	movlw	2
  4491   001812  EC9D  F008         	call	_RetardoLCD
  4492   001816  0012               	return		;funcret
  4493   001818                     __end_of_BorraLCD:
  4494                           	callstack 0
  4495                           
  4496 ;; *************** function _DesplazaPantallaD *****************
  4497 ;; Defined at:
  4498 ;;		line 262 in file "LibLCDXC8.h"
  4499 ;; Parameters:    Size  Location     Type
  4500 ;;		None
  4501 ;; Auto vars:     Size  Location     Type
  4502 ;;		None
  4503 ;; Return value:  Size  Location     Type
  4504 ;;                  1    wreg      void 
  4505 ;; Registers used:
  4506 ;;		wreg, status,2, status,0, cstack
  4507 ;; Tracked objects:
  4508 ;;		On entry : 0/0
  4509 ;;		On exit  : 0/0
  4510 ;;		Unchanged: 0/0
  4511 ;; Data sizes:     COMRAM   BANK0   BANK1   BANK2   BANK3   BANK4   BANK5   BANK6   BANK7
  4512 ;;      Params:         0       0       0       0       0       0       0       0       0
  4513 ;;      Locals:         0       0       0       0       0       0       0       0       0
  4514 ;;      Temps:          0       0       0       0       0       0       0       0       0
  4515 ;;      Totals:         0       0       0       0       0       0       0       0       0
  4516 ;;Total ram usage:        0 bytes
  4517 ;; Hardware stack levels used: 1
  4518 ;; Hardware stack levels required when called: 10
  4519 ;; This function calls:
  4520 ;;		_EnviaDato
  4521 ;;		_HabilitaLCD
  4522 ;;		_RetardoLCD
  4523 ;; This function is called by:
  4524 ;;		_Bienvenida
  4525 ;; This function uses a non-reentrant model
  4526 ;;
  4527                           
  4528                           	psect	text22
  4529   001818                     __ptext22:
  4530                           	callstack 0
  4531   001818                     _DesplazaPantallaD:
  4532                           	callstack 19
  4533                           
  4534                           ;LibLCDXC8.h: 264: LATA4=0;
  4535                           
  4536                           ;incstack = 0
  4537   001818  9889               	bcf	3977,4,c	;volatile
  4538                           
  4539                           ;LibLCDXC8.h: 265: EnviaDato(28);
  4540   00181A  0E1C               	movlw	28
  4541   00181C  EC1F  F00A         	call	_EnviaDato
  4542                           
  4543                           ;LibLCDXC8.h: 266: HabilitaLCD();
  4544   001820  EC4D  F00C         	call	_HabilitaLCD	;wreg free
  4545                           
  4546                           ;LibLCDXC8.h: 267: RetardoLCD(4);
  4547   001824  0E04               	movlw	4
  4548   001826  EC9D  F008         	call	_RetardoLCD
  4549   00182A  0012               	return		;funcret
  4550   00182C                     __end_of_DesplazaPantallaD:
  4551                           	callstack 0
  4552                           
  4553 ;; *************** function _CrearCaracter *****************
  4554 ;; Defined at:
  4555 ;;		line 309 in file "LibLCDXC8.h"
  4556 ;; Parameters:    Size  Location     Type
  4557 ;;  arreglo         1    5[BANK0 ] PTR unsigned char 
  4558 ;;		 -> RayaAlPiso(8), Estrella(8), 
  4559 ;;  posicionCGRA    1    6[BANK0 ] unsigned char 
  4560 ;; Auto vars:     Size  Location     Type
  4561 ;;  i               2    7[BANK0 ] int 
  4562 ;; Return value:  Size  Location     Type
  4563 ;;                  1    wreg      void 
  4564 ;; Registers used:
  4565 ;;		wreg, fsr2l, fsr2h, status,2, status,0, prodl, prodh, cstack
  4566 ;; Tracked objects:
  4567 ;;		On entry : 3F/0
  4568 ;;		On exit  : 0/0
  4569 ;;		Unchanged: 0/0
  4570 ;; Data sizes:     COMRAM   BANK0   BANK1   BANK2   BANK3   BANK4   BANK5   BANK6   BANK7
  4571 ;;      Params:         0       2       0       0       0       0       0       0       0
  4572 ;;      Locals:         0       2       0       0       0       0       0       0       0
  4573 ;;      Temps:          0       0       0       0       0       0       0       0       0
  4574 ;;      Totals:         0       4       0       0       0       0       0       0       0
  4575 ;;Total ram usage:        4 bytes
  4576 ;; Hardware stack levels used: 1
  4577 ;; Hardware stack levels required when called: 11
  4578 ;; This function calls:
  4579 ;;		_DireccionaLCD
  4580 ;;		_EnviaDato
  4581 ;;		_HabilitaLCD
  4582 ;;		_RetardoLCD
  4583 ;; This function is called by:
  4584 ;;		_Bienvenida
  4585 ;;		_PreguntaAlUsuario
  4586 ;; This function uses a non-reentrant model
  4587 ;;
  4588                           
  4589                           	psect	text23
  4590   0010DA                     __ptext23:
  4591                           	callstack 0
  4592   0010DA                     _CrearCaracter:
  4593                           	callstack 18
  4594                           
  4595                           ; BSR set to: 0
  4596                           ;LibLCDXC8.h: 310: LATA4=0;
  4597                           
  4598                           ;incstack = 0
  4599   0010DA  9889               	bcf	3977,4,c	;volatile
  4600                           
  4601                           ; BSR set to: 0
  4602                           ;LibLCDXC8.h: 311: EnviaDato(0x40|(posicionCGRAM*8));
  4603   0010DC  5166               	movf	CrearCaracter@posicionCGRAM& (0+255),w,b
  4604   0010DE  0D08               	mullw	8
  4605   0010E0  50F3               	movf	243,w,c
  4606   0010E2  0940               	iorlw	64
  4607   0010E4  EC1F  F00A         	call	_EnviaDato
  4608                           
  4609                           ;LibLCDXC8.h: 312: HabilitaLCD();
  4610   0010E8  EC4D  F00C         	call	_HabilitaLCD	;wreg free
  4611                           
  4612                           ;LibLCDXC8.h: 313: RetardoLCD(4);
  4613   0010EC  0E04               	movlw	4
  4614   0010EE  EC9D  F008         	call	_RetardoLCD
  4615                           
  4616                           ;LibLCDXC8.h: 314: LATA4=1;
  4617   0010F2  8889               	bsf	3977,4,c	;volatile
  4618                           
  4619                           ;LibLCDXC8.h: 315: RetardoLCD(2);
  4620   0010F4  0E02               	movlw	2
  4621   0010F6  EC9D  F008         	call	_RetardoLCD
  4622                           
  4623                           ;LibLCDXC8.h: 316: for (int i=0;i<8;i++){
  4624   0010FA  0E00               	movlw	0
  4625   0010FC  0100               	movlb	0	; () banked
  4626   0010FE  6F68               	movwf	(CrearCaracter@i+1)& (0+255),b
  4627   001100  0E00               	movlw	0
  4628   001102  6F67               	movwf	CrearCaracter@i& (0+255),b
  4629   001104                     l4546:
  4630                           
  4631                           ; BSR set to: 0
  4632                           ;LibLCDXC8.h: 317: EnviaDato(arreglo[i]);
  4633   001104  5165               	movf	CrearCaracter@arreglo& (0+255),w,b
  4634   001106  2567               	addwf	CrearCaracter@i& (0+255),w,b
  4635   001108  6ED9               	movwf	fsr2l,c
  4636   00110A  6ADA               	clrf	fsr2h,c
  4637   00110C  50DF               	movf	indf2,w,c
  4638   00110E  EC1F  F00A         	call	_EnviaDato
  4639                           
  4640                           ;LibLCDXC8.h: 318: HabilitaLCD();
  4641   001112  EC4D  F00C         	call	_HabilitaLCD	;wreg free
  4642                           
  4643                           ;LibLCDXC8.h: 319: RetardoLCD(4);
  4644   001116  0E04               	movlw	4
  4645   001118  EC9D  F008         	call	_RetardoLCD
  4646   00111C  0100               	movlb	0	; () banked
  4647   00111E  4B67               	infsnz	CrearCaracter@i& (0+255),f,b
  4648   001120  2B68               	incf	(CrearCaracter@i+1)& (0+255),f,b
  4649                           
  4650                           ; BSR set to: 0
  4651   001122  BF68               	btfsc	(CrearCaracter@i+1)& (0+255),7,b
  4652   001124  D7EF               	goto	l4546
  4653   001126  5168               	movf	(CrearCaracter@i+1)& (0+255),w,b
  4654   001128  E104               	bnz	u3350
  4655   00112A  0E08               	movlw	8
  4656   00112C  5D67               	subwf	CrearCaracter@i& (0+255),w,b
  4657   00112E  A0D8               	btfss	status,0,c
  4658   001130  D7E9               	goto	l4546
  4659   001132                     u3350:
  4660                           
  4661                           ; BSR set to: 0
  4662                           ;LibLCDXC8.h: 320: };LibLCDXC8.h: 321: DireccionaLCD(0x80);
  4663   001132  0E80               	movlw	128
  4664   001134  ECC9  F00B         	call	_DireccionaLCD
  4665   001138  0012               	return		;funcret
  4666   00113A                     __end_of_CrearCaracter:
  4667                           	callstack 0
  4668                           
  4669 ;; *************** function _DireccionaLCD *****************
  4670 ;; Defined at:
  4671 ;;		line 245 in file "LibLCDXC8.h"
  4672 ;; Parameters:    Size  Location     Type
  4673 ;;  a               1    wreg     unsigned char 
  4674 ;; Auto vars:     Size  Location     Type
  4675 ;;  a               1    4[BANK0 ] unsigned char 
  4676 ;; Return value:  Size  Location     Type
  4677 ;;                  1    wreg      void 
  4678 ;; Registers used:
  4679 ;;		wreg, status,2, status,0, cstack
  4680 ;; Tracked objects:
  4681 ;;		On entry : 0/0
  4682 ;;		On exit  : 0/0
  4683 ;;		Unchanged: 0/0
  4684 ;; Data sizes:     COMRAM   BANK0   BANK1   BANK2   BANK3   BANK4   BANK5   BANK6   BANK7
  4685 ;;      Params:         0       0       0       0       0       0       0       0       0
  4686 ;;      Locals:         0       1       0       0       0       0       0       0       0
  4687 ;;      Temps:          0       0       0       0       0       0       0       0       0
  4688 ;;      Totals:         0       1       0       0       0       0       0       0       0
  4689 ;;Total ram usage:        1 bytes
  4690 ;; Hardware stack levels used: 1
  4691 ;; Hardware stack levels required when called: 10
  4692 ;; This function calls:
  4693 ;;		_EnviaDato
  4694 ;;		_HabilitaLCD
  4695 ;;		_RetardoLCD
  4696 ;; This function is called by:
  4697 ;;		_CursorAInicio
  4698 ;;		_CrearCaracter
  4699 ;;		_main
  4700 ;;		_Bienvenida
  4701 ;;		_PreguntaAlUsuario
  4702 ;; This function uses a non-reentrant model
  4703 ;;
  4704                           
  4705                           	psect	text24
  4706   001792                     __ptext24:
  4707                           	callstack 0
  4708   001792                     _DireccionaLCD:
  4709                           	callstack 16
  4710                           
  4711                           ;incstack = 0
  4712                           ;DireccionaLCD@a stored from wreg
  4713   001792  0100               	movlb	0	; () banked
  4714   001794  6F64               	movwf	DireccionaLCD@a& (0+255),b
  4715                           
  4716                           ;LibLCDXC8.h: 248: LATA4=0;
  4717   001796  9889               	bcf	3977,4,c	;volatile
  4718                           
  4719                           ;LibLCDXC8.h: 249: EnviaDato(a);
  4720   001798  0100               	movlb	0	; () banked
  4721   00179A  5164               	movf	DireccionaLCD@a& (0+255),w,b
  4722   00179C  EC1F  F00A         	call	_EnviaDato
  4723                           
  4724                           ;LibLCDXC8.h: 250: HabilitaLCD();
  4725   0017A0  EC4D  F00C         	call	_HabilitaLCD	;wreg free
  4726                           
  4727                           ;LibLCDXC8.h: 251: RetardoLCD(4);
  4728   0017A4  0E04               	movlw	4
  4729   0017A6  EC9D  F008         	call	_RetardoLCD
  4730   0017AA  0012               	return		;funcret
  4731   0017AC                     __end_of_DireccionaLCD:
  4732                           	callstack 0
  4733                           
  4734 ;; *************** function _EnviaDato *****************
  4735 ;; Defined at:
  4736 ;;		line 61 in file "LibLCDXC8.h"
  4737 ;; Parameters:    Size  Location     Type
  4738 ;;  a               1    wreg     unsigned char 
  4739 ;; Auto vars:     Size  Location     Type
  4740 ;;  a               1    3[BANK0 ] unsigned char 
  4741 ;; Return value:  Size  Location     Type
  4742 ;;                  1    wreg      void 
  4743 ;; Registers used:
  4744 ;;		wreg, status,2, status,0, cstack
  4745 ;; Tracked objects:
  4746 ;;		On entry : 0/0
  4747 ;;		On exit  : 0/0
  4748 ;;		Unchanged: 0/0
  4749 ;; Data sizes:     COMRAM   BANK0   BANK1   BANK2   BANK3   BANK4   BANK5   BANK6   BANK7
  4750 ;;      Params:         0       0       0       0       0       0       0       0       0
  4751 ;;      Locals:         0       1       0       0       0       0       0       0       0
  4752 ;;      Temps:          0       1       0       0       0       0       0       0       0
  4753 ;;      Totals:         0       2       0       0       0       0       0       0       0
  4754 ;;Total ram usage:        2 bytes
  4755 ;; Hardware stack levels used: 1
  4756 ;; Hardware stack levels required when called: 9
  4757 ;; This function calls:
  4758 ;;		_HabilitaLCD
  4759 ;;		_RetardoLCD
  4760 ;; This function is called by:
  4761 ;;		_InicializaLCD
  4762 ;;		_BorraLCD
  4763 ;;		_ComandoLCD
  4764 ;;		_EscribeLCD_c
  4765 ;;		_EscribeLCD_n8
  4766 ;;		_DireccionaLCD
  4767 ;;		_DesplazaPantallaD
  4768 ;;		_CrearCaracter
  4769 ;; This function uses a non-reentrant model
  4770 ;;
  4771                           
  4772                           	psect	text25
  4773   00143E                     __ptext25:
  4774                           	callstack 0
  4775   00143E                     _EnviaDato:
  4776                           	callstack 18
  4777                           
  4778                           ;incstack = 0
  4779                           ;EnviaDato@a stored from wreg
  4780   00143E  0100               	movlb	0	; () banked
  4781   001440  6F63               	movwf	EnviaDato@a& (0+255),b
  4782                           
  4783                           ;LibLCDXC8.h: 62: if(interfaz==4){
  4784   001442  0E04               	movlw	4
  4785   001444  1848               	xorwf	_interfaz^0,w,c
  4786   001446  A4D8               	btfss	status,2,c
  4787   001448  D019               	goto	l4408
  4788                           
  4789                           ;LibLCDXC8.h: 63: LATD=(LATD & 0b00001111) | (a & 0b11110000);
  4790   00144A  C063  F062         	movff	EnviaDato@a,??_EnviaDato
  4791   00144E  0EF0               	movlw	240
  4792   001450  0100               	movlb	0	; () banked
  4793   001452  1762               	andwf	??_EnviaDato& (0+255),f,b
  4794   001454  508C               	movf	140,w,c	;volatile
  4795   001456  0B0F               	andlw	15
  4796   001458  1162               	iorwf	??_EnviaDato& (0+255),w,b
  4797   00145A  6E8C               	movwf	140,c	;volatile
  4798                           
  4799                           ; BSR set to: 0
  4800                           ;LibLCDXC8.h: 64: HabilitaLCD();
  4801   00145C  EC4D  F00C         	call	_HabilitaLCD	;wreg free
  4802                           
  4803                           ;LibLCDXC8.h: 65: RetardoLCD(1);
  4804   001460  0E01               	movlw	1
  4805   001462  EC9D  F008         	call	_RetardoLCD
  4806                           
  4807                           ;LibLCDXC8.h: 66: LATD=(LATD & 0b00001111) | (a<<4);
  4808   001466  C063  F062         	movff	EnviaDato@a,??_EnviaDato
  4809   00146A  0100               	movlb	0	; () banked
  4810   00146C  3B62               	swapf	??_EnviaDato& (0+255),f,b
  4811   00146E  0EF0               	movlw	240
  4812   001470  1762               	andwf	??_EnviaDato& (0+255),f,b
  4813   001472  508C               	movf	140,w,c	;volatile
  4814   001474  0B0F               	andlw	15
  4815   001476  1162               	iorwf	??_EnviaDato& (0+255),w,b
  4816   001478  6E8C               	movwf	140,c	;volatile
  4817                           
  4818                           ;LibLCDXC8.h: 69: }else if(interfaz==8){
  4819   00147A  0012               	return	
  4820   00147C                     l4408:
  4821   00147C  0E08               	movlw	8
  4822   00147E  1848               	xorwf	_interfaz^0,w,c
  4823   001480  A4D8               	btfss	status,2,c
  4824   001482  0012               	return	
  4825                           
  4826                           ;LibLCDXC8.h: 70: LATD=a;
  4827   001484  C063  FF8C         	movff	EnviaDato@a,3980	;volatile
  4828   001488  0012               	return		;funcret
  4829   00148A                     __end_of_EnviaDato:
  4830                           	callstack 0
  4831                           
  4832 ;; *************** function _RetardoLCD *****************
  4833 ;; Defined at:
  4834 ;;		line 290 in file "LibLCDXC8.h"
  4835 ;; Parameters:    Size  Location     Type
  4836 ;;  a               1    wreg     unsigned char 
  4837 ;; Auto vars:     Size  Location     Type
  4838 ;;  a               1    1[BANK0 ] unsigned char 
  4839 ;; Return value:  Size  Location     Type
  4840 ;;                  1    wreg      void 
  4841 ;; Registers used:
  4842 ;;		wreg, status,2, status,0
  4843 ;; Tracked objects:
  4844 ;;		On entry : 0/0
  4845 ;;		On exit  : 0/0
  4846 ;;		Unchanged: 0/0
  4847 ;; Data sizes:     COMRAM   BANK0   BANK1   BANK2   BANK3   BANK4   BANK5   BANK6   BANK7
  4848 ;;      Params:         0       0       0       0       0       0       0       0       0
  4849 ;;      Locals:         0       1       0       0       0       0       0       0       0
  4850 ;;      Temps:          0       1       0       0       0       0       0       0       0
  4851 ;;      Totals:         0       2       0       0       0       0       0       0       0
  4852 ;;Total ram usage:        2 bytes
  4853 ;; Hardware stack levels used: 1
  4854 ;; Hardware stack levels required when called: 8
  4855 ;; This function calls:
  4856 ;;		Nothing
  4857 ;; This function is called by:
  4858 ;;		_EnviaDato
  4859 ;;		_InicializaLCD
  4860 ;;		_BorraLCD
  4861 ;;		_ComandoLCD
  4862 ;;		_EscribeLCD_c
  4863 ;;		_EscribeLCD_n8
  4864 ;;		_DireccionaLCD
  4865 ;;		_DesplazaPantallaD
  4866 ;;		_CrearCaracter
  4867 ;; This function uses a non-reentrant model
  4868 ;;
  4869                           
  4870                           	psect	text26
  4871   00113A                     __ptext26:
  4872                           	callstack 0
  4873   00113A                     _RetardoLCD:
  4874                           	callstack 19
  4875                           
  4876                           ;incstack = 0
  4877                           ;RetardoLCD@a stored from wreg
  4878   00113A  0100               	movlb	0	; () banked
  4879   00113C  6F61               	movwf	RetardoLCD@a& (0+255),b
  4880                           
  4881                           ;LibLCDXC8.h: 291: switch(a){
  4882   00113E  D01D               	goto	l4396
  4883   001140                     l4386:
  4884                           
  4885                           ; BSR set to: 0
  4886   001140  0E05               	movlw	5
  4887   001142  0100               	movlb	0	; () banked
  4888   001144  6F60               	movwf	??_RetardoLCD& (0+255),b
  4889   001146  0EDD               	movlw	221
  4890   001148                     u4007:
  4891   001148  2EE8               	decfsz	wreg,f,c
  4892   00114A  D7FE               	bra	u4007
  4893   00114C  2F60               	decfsz	??_RetardoLCD& (0+255),f,b
  4894   00114E  D7FC               	bra	u4007
  4895   001150  D000               	nop2	
  4896                           
  4897                           ;LibLCDXC8.h: 294: break;
  4898   001152  0012               	return	
  4899   001154                     l4388:
  4900                           
  4901                           ; BSR set to: 0
  4902   001154  0E53               	movlw	83
  4903   001156                     u4017:
  4904   001156  2EE8               	decfsz	wreg,f,c
  4905   001158  D7FE               	bra	u4017
  4906   00115A  0000               	nop	
  4907                           
  4908                           ;LibLCDXC8.h: 296: _delay((unsigned long)((640)*(1000000/4000000.0)));
  4909   00115C  0E35               	movlw	53
  4910   00115E                     u4027:
  4911   00115E  2EE8               	decfsz	wreg,f,c
  4912   001160  D7FE               	bra	u4027
  4913   001162  0000               	nop	
  4914                           
  4915                           ;LibLCDXC8.h: 298: break;
  4916   001164  0012               	return	
  4917   001166                     l4390:
  4918                           
  4919                           ; BSR set to: 0
  4920   001166  0E08               	movlw	8
  4921   001168                     u4037:
  4922   001168  2EE8               	decfsz	wreg,f,c
  4923   00116A  D7FE               	bra	u4037
  4924   00116C  0000               	nop	
  4925                           
  4926                           ;LibLCDXC8.h: 301: break;
  4927   00116E  0012               	return	
  4928   001170                     l4392:
  4929                           
  4930                           ; BSR set to: 0
  4931   001170  0E03               	movlw	3
  4932   001172                     u4047:
  4933   001172  2EE8               	decfsz	wreg,f,c
  4934   001174  D7FE               	bra	u4047
  4935   001176  0000               	nop	
  4936                           
  4937                           ;LibLCDXC8.h: 304: break;
  4938   001178  0012               	return	
  4939   00117A                     l4396:
  4940   00117A  0100               	movlb	0	; () banked
  4941   00117C  5161               	movf	RetardoLCD@a& (0+255),w,b
  4942                           
  4943                           ; Switch size 1, requested type "simple"
  4944                           ; Number of cases is 4, Range of values is 1 to 4
  4945                           ; switch strategies available:
  4946                           ; Name         Instructions Cycles
  4947                           ; simple_byte           13     7 (average)
  4948                           ;	Chosen strategy is simple_byte
  4949   00117E  0A01               	xorlw	1	; case 1
  4950   001180  B4D8               	btfsc	status,2,c
  4951   001182  D7DE               	goto	l4386
  4952   001184  0A03               	xorlw	3	; case 2
  4953   001186  B4D8               	btfsc	status,2,c
  4954   001188  D7E5               	goto	l4388
  4955   00118A  0A01               	xorlw	1	; case 3
  4956   00118C  B4D8               	btfsc	status,2,c
  4957   00118E  D7EB               	goto	l4390
  4958   001190  0A07               	xorlw	7	; case 4
  4959   001192  A4D8               	btfss	status,2,c
  4960   001194  0012               	return	
  4961   001196  D7EC               	goto	l4392
  4962   001198                     __end_of_RetardoLCD:
  4963                           	callstack 0
  4964                           
  4965 ;; *************** function _HabilitaLCD *****************
  4966 ;; Defined at:
  4967 ;;		line 107 in file "LibLCDXC8.h"
  4968 ;; Parameters:    Size  Location     Type
  4969 ;;		None
  4970 ;; Auto vars:     Size  Location     Type
  4971 ;;		None
  4972 ;; Return value:  Size  Location     Type
  4973 ;;                  1    wreg      void 
  4974 ;; Registers used:
  4975 ;;		wreg
  4976 ;; Tracked objects:
  4977 ;;		On entry : 0/0
  4978 ;;		On exit  : 0/0
  4979 ;;		Unchanged: 0/0
  4980 ;; Data sizes:     COMRAM   BANK0   BANK1   BANK2   BANK3   BANK4   BANK5   BANK6   BANK7
  4981 ;;      Params:         0       0       0       0       0       0       0       0       0
  4982 ;;      Locals:         0       0       0       0       0       0       0       0       0
  4983 ;;      Temps:          0       0       0       0       0       0       0       0       0
  4984 ;;      Totals:         0       0       0       0       0       0       0       0       0
  4985 ;;Total ram usage:        0 bytes
  4986 ;; Hardware stack levels used: 1
  4987 ;; Hardware stack levels required when called: 8
  4988 ;; This function calls:
  4989 ;;		Nothing
  4990 ;; This function is called by:
  4991 ;;		_EnviaDato
  4992 ;;		_InicializaLCD
  4993 ;;		_BorraLCD
  4994 ;;		_ComandoLCD
  4995 ;;		_EscribeLCD_c
  4996 ;;		_EscribeLCD_n8
  4997 ;;		_DireccionaLCD
  4998 ;;		_DesplazaPantallaD
  4999 ;;		_CrearCaracter
  5000 ;; This function uses a non-reentrant model
  5001 ;;
  5002                           
  5003                           	psect	text27
  5004   00189A                     __ptext27:
  5005                           	callstack 0
  5006   00189A                     _HabilitaLCD:
  5007                           	callstack 19
  5008                           
  5009                           ;LibLCDXC8.h: 109: LATA5=1;
  5010                           
  5011                           ;incstack = 0
  5012   00189A  8A89               	bsf	3977,5,c	;volatile
  5013                           
  5014                           ;LibLCDXC8.h: 110: _delay((unsigned long)((40)*(1000000/4000000.0)));
  5015   00189C  0E03               	movlw	3
  5016   00189E                     u4057:
  5017   00189E  2EE8               	decfsz	wreg,f,c
  5018   0018A0  D7FE               	bra	u4057
  5019   0018A2  0000               	nop	
  5020                           
  5021                           ;LibLCDXC8.h: 112: LATA5=0;
  5022   0018A4  9A89               	bcf	3977,5,c	;volatile
  5023   0018A6  0012               	return		;funcret
  5024   0018A8                     __end_of_HabilitaLCD:
  5025                           	callstack 0
  5026                           
  5027 ;; *************** function _ConfiguraLCD *****************
  5028 ;; Defined at:
  5029 ;;		line 57 in file "LibLCDXC8.h"
  5030 ;; Parameters:    Size  Location     Type
  5031 ;;  a               1    wreg     unsigned char 
  5032 ;; Auto vars:     Size  Location     Type
  5033 ;;  a               1    0[BANK0 ] unsigned char 
  5034 ;; Return value:  Size  Location     Type
  5035 ;;                  1    wreg      void 
  5036 ;; Registers used:
  5037 ;;		wreg, status,2, status,0
  5038 ;; Tracked objects:
  5039 ;;		On entry : 0/0
  5040 ;;		On exit  : 3F/0
  5041 ;;		Unchanged: 0/0
  5042 ;; Data sizes:     COMRAM   BANK0   BANK1   BANK2   BANK3   BANK4   BANK5   BANK6   BANK7
  5043 ;;      Params:         0       0       0       0       0       0       0       0       0
  5044 ;;      Locals:         0       1       0       0       0       0       0       0       0
  5045 ;;      Temps:          0       0       0       0       0       0       0       0       0
  5046 ;;      Totals:         0       1       0       0       0       0       0       0       0
  5047 ;;Total ram usage:        1 bytes
  5048 ;; Hardware stack levels used: 1
  5049 ;; Hardware stack levels required when called: 8
  5050 ;; This function calls:
  5051 ;;		Nothing
  5052 ;; This function is called by:
  5053 ;;		_Bienvenida
  5054 ;; This function uses a non-reentrant model
  5055 ;;
  5056                           
  5057                           	psect	text28
  5058   001740                     __ptext28:
  5059                           	callstack 0
  5060   001740                     _ConfiguraLCD:
  5061                           	callstack 21
  5062                           
  5063                           ;incstack = 0
  5064                           ;ConfiguraLCD@a stored from wreg
  5065   001740  0100               	movlb	0	; () banked
  5066   001742  6F60               	movwf	ConfiguraLCD@a& (0+255),b
  5067                           
  5068                           ;LibLCDXC8.h: 58: if(a==4 | a ==8)
  5069   001744  0E04               	movlw	4
  5070   001746  0100               	movlb	0	; () banked
  5071   001748  1960               	xorwf	ConfiguraLCD@a& (0+255),w,b
  5072   00174A  B4D8               	btfsc	status,2,c
  5073   00174C  D004               	goto	u3290
  5074                           
  5075                           ; BSR set to: 0
  5076   00174E  0E08               	movlw	8
  5077   001750  1960               	xorwf	ConfiguraLCD@a& (0+255),w,b
  5078   001752  A4D8               	btfss	status,2,c
  5079   001754  0012               	return	
  5080   001756                     u3290:
  5081                           
  5082                           ; BSR set to: 0
  5083                           ;LibLCDXC8.h: 59: interfaz=a;
  5084   001756  C060  F048         	movff	ConfiguraLCD@a,_interfaz
  5085                           
  5086                           ; BSR set to: 0
  5087   00175A  0012               	return		;funcret
  5088   00175C                     __end_of_ConfiguraLCD:
  5089                           	callstack 0
  5090                           
  5091 ;; *************** function _ISR *****************
  5092 ;; Defined at:
  5093 ;;		line 341 in file "Lab6.c"
  5094 ;; Parameters:    Size  Location     Type
  5095 ;;		None
  5096 ;; Auto vars:     Size  Location     Type
  5097 ;;		None
  5098 ;; Return value:  Size  Location     Type
  5099 ;;                  1    wreg      void 
  5100 ;; Registers used:
  5101 ;;		wreg, fsr2l, fsr2h, status,2, status,0, tblptrl, tblptrh, tblptru, prodl, prodh, cstack
  5102 ;; Tracked objects:
  5103 ;;		On entry : 0/0
  5104 ;;		On exit  : 0/0
  5105 ;;		Unchanged: 0/0
  5106 ;; Data sizes:     COMRAM   BANK0   BANK1   BANK2   BANK3   BANK4   BANK5   BANK6   BANK7
  5107 ;;      Params:         0       0       0       0       0       0       0       0       0
  5108 ;;      Locals:         0       0       0       0       0       0       0       0       0
  5109 ;;      Temps:         12       0       0       0       0       0       0       0       0
  5110 ;;      Totals:        12       0       0       0       0       0       0       0       0
  5111 ;;Total ram usage:       12 bytes
  5112 ;; Hardware stack levels used: 1
  5113 ;; Hardware stack levels required when called: 7
  5114 ;; This function calls:
  5115 ;;		_Borrar
  5116 ;;		_ConfigPregunta
  5117 ;;		_Conversion
  5118 ;;		_Motor_Avance
  5119 ;;		_Motor_Paro
  5120 ;;		_Motor_Reversa
  5121 ;;		_PWM_Set10bit
  5122 ;;		_PWM_SetPercent
  5123 ;;		___lldiv
  5124 ;;		___lmul
  5125 ;;		_printf
  5126 ;;		i2_BorraLCD
  5127 ;;		i2_DireccionaLCD
  5128 ;;		i2_EscribeLCD_n8
  5129 ;;		i2_GuardarContador
  5130 ;;		i2_MensajeLCD_Var
  5131 ;;		i2_OcultarCursor
  5132 ;;		i2___lwdiv
  5133 ;; This function is called by:
  5134 ;;		Interrupt level 2
  5135 ;; This function uses a non-reentrant model
  5136 ;;
  5137                           
  5138                           	psect	intcode
  5139   000008                     __pintcode:
  5140                           	callstack 0
  5141   000008                     _ISR:
  5142                           	callstack 16
  5143                           
  5144                           ; BSR set to: 0
  5145                           ;incstack = 0
  5146   000008  8252               	bsf	btemp,1,c	;set compiler interrupt flag (level 2)
  5147   00000A  EDB5  F002         	call	int_func,f	;refresh shadow registers
  5148                           
  5149                           	psect	intcode_body
  5150   00056A                     __pintcode_body:
  5151                           	callstack 16
  5152   00056A                     int_func:
  5153                           	callstack 16
  5154   00056A  0006               	pop		; remove dummy address from shadow register refresh
  5155   00056C  CFD9 F021          	movff	fsr2l,??_ISR+4
  5156   000570  CFDA F022          	movff	fsr2h,??_ISR+5
  5157   000574  CFF3 F023          	movff	prodl,??_ISR+6
  5158   000578  CFF4 F024          	movff	prodh,??_ISR+7
  5159   00057C  CFF6 F025          	movff	tblptrl,??_ISR+8
  5160   000580  CFF7 F026          	movff	tblptrh,??_ISR+9
  5161   000584  CFF8 F027          	movff	tblptru,??_ISR+10
  5162   000588  CFF5 F028          	movff	tablat,??_ISR+11
  5163                           
  5164                           ;Lab6.c: 343: if (RCIF==1){
  5165   00058C  AA9E               	btfss	3998,5,c	;volatile
  5166   00058E  D0D1               	goto	i2l471
  5167                           
  5168                           ;Lab6.c: 346: if(RCSTAbits.OERR){
  5169   000590  A2AB               	btfss	171,1,c	;volatile
  5170   000592  D002               	goto	i2l434
  5171                           
  5172                           ;Lab6.c: 347: RCSTAbits.CREN = 0;
  5173   000594  98AB               	bcf	171,4,c	;volatile
  5174                           
  5175                           ;Lab6.c: 348: RCSTAbits.CREN = 1;
  5176   000596  88AB               	bsf	171,4,c	;volatile
  5177   000598                     i2l434:
  5178                           
  5179                           ;Lab6.c: 349: };Lab6.c: 351: Inactividad=0;
  5180   000598  6A43               	clrf	_Inactividad^0,c
  5181                           
  5182                           ;Lab6.c: 352: datoSerial = RCREG;
  5183   00059A  CFAE F042          	movff	4014,_datoSerial	;volatile
  5184                           
  5185                           ;Lab6.c: 355: if(datoSerial=='Z' || datoSerial=='z'){ control_manual_pwm = 1; pwm_duty_p
      +                          erc = 0; }
  5186   00059E  0E5A               	movlw	90
  5187   0005A0  1842               	xorwf	_datoSerial^0,w,c
  5188   0005A2  B4D8               	btfsc	status,2,c
  5189   0005A4  D004               	goto	i2u263_40
  5190   0005A6  0E7A               	movlw	122
  5191   0005A8  1842               	xorwf	_datoSerial^0,w,c
  5192   0005AA  A4D8               	btfss	status,2,c
  5193   0005AC  D004               	goto	i2l4104
  5194   0005AE                     i2u263_40:
  5195   0005AE  0E01               	movlw	1
  5196   0005B0  6E3C               	movwf	_control_manual_pwm^0,c
  5197   0005B2  6A3B               	clrf	_pwm_duty_perc^0,c
  5198   0005B4  D045               	goto	i2l450
  5199   0005B6                     i2l4104:
  5200                           
  5201                           ;Lab6.c: 356: else if(datoSerial=='X' || datoSerial=='x'){ control_manual_pwm = 1; pwm_d
      +                          uty_perc = 20; }
  5202   0005B6  0E58               	movlw	88
  5203   0005B8  1842               	xorwf	_datoSerial^0,w,c
  5204   0005BA  B4D8               	btfsc	status,2,c
  5205   0005BC  D004               	goto	i2u265_40
  5206   0005BE  0E78               	movlw	120
  5207   0005C0  1842               	xorwf	_datoSerial^0,w,c
  5208   0005C2  A4D8               	btfss	status,2,c
  5209   0005C4  D004               	goto	i2l4110
  5210   0005C6                     i2u265_40:
  5211   0005C6  0E01               	movlw	1
  5212   0005C8  6E3C               	movwf	_control_manual_pwm^0,c
  5213   0005CA  0E14               	movlw	20
  5214   0005CC  D02F               	goto	L20
  5215   0005CE                     i2l4110:
  5216                           
  5217                           ;Lab6.c: 357: else if(datoSerial=='C' || datoSerial=='c'){ control_manual_pwm = 1; pwm_d
      +                          uty_perc = 40; }
  5218   0005CE  0E43               	movlw	67
  5219   0005D0  1842               	xorwf	_datoSerial^0,w,c
  5220   0005D2  B4D8               	btfsc	status,2,c
  5221   0005D4  D004               	goto	i2u267_40
  5222   0005D6  0E63               	movlw	99
  5223   0005D8  1842               	xorwf	_datoSerial^0,w,c
  5224   0005DA  A4D8               	btfss	status,2,c
  5225   0005DC  D004               	goto	i2l4116
  5226   0005DE                     i2u267_40:
  5227   0005DE  0E01               	movlw	1
  5228   0005E0  6E3C               	movwf	_control_manual_pwm^0,c
  5229   0005E2  0E28               	movlw	40
  5230   0005E4  D023               	goto	L20
  5231   0005E6                     i2l4116:
  5232                           
  5233                           ;Lab6.c: 358: else if(datoSerial=='V' || datoSerial=='v'){ control_manual_pwm = 1; pwm_d
      +                          uty_perc = 60; }
  5234   0005E6  0E56               	movlw	86
  5235   0005E8  1842               	xorwf	_datoSerial^0,w,c
  5236   0005EA  B4D8               	btfsc	status,2,c
  5237   0005EC  D004               	goto	i2u269_40
  5238   0005EE  0E76               	movlw	118
  5239   0005F0  1842               	xorwf	_datoSerial^0,w,c
  5240   0005F2  A4D8               	btfss	status,2,c
  5241   0005F4  D004               	goto	i2l4122
  5242   0005F6                     i2u269_40:
  5243   0005F6  0E01               	movlw	1
  5244   0005F8  6E3C               	movwf	_control_manual_pwm^0,c
  5245   0005FA  0E3C               	movlw	60
  5246   0005FC  D017               	goto	L20
  5247   0005FE                     i2l4122:
  5248                           
  5249                           ;Lab6.c: 359: else if(datoSerial=='B' || datoSerial=='b'){ control_manual_pwm = 1; pwm_d
      +                          uty_perc = 80; }
  5250   0005FE  0E42               	movlw	66
  5251   000600  1842               	xorwf	_datoSerial^0,w,c
  5252   000602  B4D8               	btfsc	status,2,c
  5253   000604  D004               	goto	i2u271_40
  5254   000606  0E62               	movlw	98
  5255   000608  1842               	xorwf	_datoSerial^0,w,c
  5256   00060A  A4D8               	btfss	status,2,c
  5257   00060C  D004               	goto	i2l4128
  5258   00060E                     i2u271_40:
  5259   00060E  0E01               	movlw	1
  5260   000610  6E3C               	movwf	_control_manual_pwm^0,c
  5261   000612  0E50               	movlw	80
  5262   000614  D00B               	goto	L20
  5263   000616                     i2l4128:
  5264                           
  5265                           ;Lab6.c: 360: else if(datoSerial=='N' || datoSerial=='n'){ control_manual_pwm = 1; pwm_d
      +                          uty_perc = 100; }
  5266   000616  0E4E               	movlw	78
  5267   000618  1842               	xorwf	_datoSerial^0,w,c
  5268   00061A  B4D8               	btfsc	status,2,c
  5269   00061C  D004               	goto	i2u273_40
  5270   00061E  0E6E               	movlw	110
  5271   000620  1842               	xorwf	_datoSerial^0,w,c
  5272   000622  A4D8               	btfss	status,2,c
  5273   000624  D005               	goto	i2l4134
  5274   000626                     i2u273_40:
  5275   000626  0E01               	movlw	1
  5276   000628  6E3C               	movwf	_control_manual_pwm^0,c
  5277   00062A  0E64               	movlw	100
  5278   00062C                     L20:
  5279   00062C  6E3B               	movwf	_pwm_duty_perc^0,c
  5280   00062E  D008               	goto	i2l450
  5281   000630                     i2l4134:
  5282                           
  5283                           ;Lab6.c: 361: else if(datoSerial=='M' || datoSerial=='m'){ control_manual_pwm = 0; }
  5284   000630  0E4D               	movlw	77
  5285   000632  1842               	xorwf	_datoSerial^0,w,c
  5286   000634  B4D8               	btfsc	status,2,c
  5287   000636  D003               	goto	i2u275_40
  5288   000638  0E6D               	movlw	109
  5289   00063A  1842               	xorwf	_datoSerial^0,w,c
  5290   00063C  B4D8               	btfsc	status,2,c
  5291   00063E                     i2u275_40:
  5292   00063E  6A3C               	clrf	_control_manual_pwm^0,c
  5293   000640                     i2l450:
  5294                           
  5295                           ;Lab6.c: 364: if(modoReversa==0){
  5296   000640  503D               	movf	_modoReversa^0,w,c
  5297   000642  A4D8               	btfss	status,2,c
  5298   000644  D007               	goto	i2l4144
  5299                           
  5300                           ;Lab6.c: 365: if(control_manual_pwm==1){
  5301   000646  043C               	decf	_control_manual_pwm^0,w,c
  5302   000648  A4D8               	btfss	status,2,c
  5303   00064A  D00A               	goto	i2l4146
  5304                           
  5305                           ;Lab6.c: 366: PWM_SetPercent(pwm_duty_perc);
  5306   00064C  503B               	movf	_pwm_duty_perc^0,w,c
  5307   00064E  EC3B  F008         	call	_PWM_SetPercent
  5308   000652  D006               	goto	i2l4146
  5309   000654                     i2l4144:
  5310                           
  5311                           ;Lab6.c: 369: PWM_Set10bit(0);
  5312   000654  0E00               	movlw	0
  5313   000656  6E02               	movwf	(PWM_Set10bit@duty10+1)^0,c
  5314   000658  0E00               	movlw	0
  5315   00065A  6E01               	movwf	PWM_Set10bit@duty10^0,c
  5316   00065C  EC51  F009         	call	_PWM_Set10bit	;wreg free
  5317   000660                     i2l4146:
  5318                           
  5319                           ;Lab6.c: 370: };Lab6.c: 372: if(datoSerial==80 || datoSerial==112){
  5320   000660  0E50               	movlw	80
  5321   000662  1842               	xorwf	_datoSerial^0,w,c
  5322   000664  B4D8               	btfsc	status,2,c
  5323   000666  D004               	goto	i2u279_40
  5324   000668  0E70               	movlw	112
  5325   00066A  1842               	xorwf	_datoSerial^0,w,c
  5326   00066C  A4D8               	btfss	status,2,c
  5327   00066E  D01E               	goto	i2l4166
  5328   000670                     i2u279_40:
  5329                           
  5330                           ;Lab6.c: 373: LATE=0b00000011;
  5331   000670  0E03               	movlw	3
  5332   000672  6E8D               	movwf	141,c	;volatile
  5333                           
  5334                           ;Lab6.c: 374: BorraLCD();
  5335   000674  EC20  F00C         	call	i2_BorraLCD	;wreg free
  5336                           
  5337                           ;Lab6.c: 375: OcultarCursor();
  5338   000678  EC76  F00C         	call	i2_OcultarCursor	;wreg free
  5339                           
  5340                           ;Lab6.c: 376: MensajeLCD_Var("   PARADA DE");
  5341   00067C  0E67               	movlw	low STR_17
  5342   00067E  6E06               	movwf	i2MensajeLCD_Var@a^0,c
  5343   000680  0E7F               	movlw	high STR_17
  5344   000682  6E07               	movwf	(i2MensajeLCD_Var@a+1)^0,c
  5345   000684  EC45  F00A         	call	i2_MensajeLCD_Var	;wreg free
  5346                           
  5347                           ;Lab6.c: 377: DireccionaLCD(0xC0);
  5348   000688  0EC0               	movlw	192
  5349   00068A  ECEC  F00B         	call	i2_DireccionaLCD
  5350                           
  5351                           ;Lab6.c: 378: MensajeLCD_Var("   EMERGENCIA");
  5352   00068E  0E3F               	movlw	low STR_18
  5353   000690  6E06               	movwf	i2MensajeLCD_Var@a^0,c
  5354   000692  0E7F               	movlw	high STR_18
  5355   000694  6E07               	movwf	(i2MensajeLCD_Var@a+1)^0,c
  5356   000696  EC45  F00A         	call	i2_MensajeLCD_Var	;wreg free
  5357                           
  5358                           ;Lab6.c: 380: PWM_Set10bit(0);
  5359   00069A  0E00               	movlw	0
  5360   00069C  6E02               	movwf	(PWM_Set10bit@duty10+1)^0,c
  5361   00069E  0E00               	movlw	0
  5362   0006A0  6E01               	movwf	PWM_Set10bit@duty10^0,c
  5363   0006A2  EC51  F009         	call	_PWM_Set10bit	;wreg free
  5364                           
  5365                           ;Lab6.c: 381: Motor_Paro();
  5366   0006A6  EC3C  F00C         	call	_Motor_Paro	;wreg free
  5367   0006AA                     i2l468:
  5368   0006AA  D7FF               	goto	i2l468
  5369   0006AC                     i2l4166:
  5370                           
  5371                           ;Lab6.c: 384: else if(salir==1 && (datoSerial==114 || datoSerial==82)){
  5372   0006AC  0445               	decf	_salir^0,w,c
  5373   0006AE  A4D8               	btfss	status,2,c
  5374   0006B0  D02C               	goto	i2l4184
  5375   0006B2  0E72               	movlw	114
  5376   0006B4  1842               	xorwf	_datoSerial^0,w,c
  5377   0006B6  B4D8               	btfsc	status,2,c
  5378   0006B8  D004               	goto	i2u282_40
  5379   0006BA  0E52               	movlw	82
  5380   0006BC  1842               	xorwf	_datoSerial^0,w,c
  5381   0006BE  A4D8               	btfss	status,2,c
  5382   0006C0  D024               	goto	i2l4184
  5383   0006C2                     i2u282_40:
  5384                           
  5385                           ;Lab6.c: 385: contador=0;
  5386   0006C2  0E00               	movlw	0
  5387   0006C4  6E38               	movwf	(_contador+1)^0,c
  5388   0006C6  0E00               	movlw	0
  5389   0006C8  6E37               	movwf	_contador^0,c
  5390                           
  5391                           ;Lab6.c: 386: Supercontador = 0;
  5392   0006CA  0E00               	movlw	0
  5393   0006CC  6E3A               	movwf	(_Supercontador+1)^0,c
  5394   0006CE  0E00               	movlw	0
  5395   0006D0  6E39               	movwf	_Supercontador^0,c
  5396                           
  5397                           ;Lab6.c: 387: contadorRGB = 0;
  5398   0006D2  0E00               	movlw	0
  5399   0006D4  6E36               	movwf	(_contadorRGB+1)^0,c
  5400   0006D6  0E00               	movlw	0
  5401   0006D8  6E35               	movwf	_contadorRGB^0,c
  5402                           
  5403                           ;Lab6.c: 388: GuardarContador(0, Objetivo);
  5404   0006DA  0E00               	movlw	0
  5405   0006DC  6E04               	movwf	(i2GuardarContador@valor+1)^0,c
  5406   0006DE  0E00               	movlw	0
  5407   0006E0  6E03               	movwf	i2GuardarContador@valor^0,c
  5408   0006E2  C033  F005         	movff	_Objetivo,i2GuardarContador@objetivo
  5409   0006E6  C034  F006         	movff	_Objetivo+1,i2GuardarContador@objetivo+1
  5410   0006EA  ECE1  F00B         	call	i2_GuardarContador	;wreg free
  5411                           
  5412                           ;Lab6.c: 389: LATE=0b00000010;
  5413   0006EE  0E02               	movlw	2
  5414   0006F0  6E8D               	movwf	141,c	;volatile
  5415                           
  5416                           ;Lab6.c: 390: DireccionaLCD(0x8B);
  5417   0006F2  0E8B               	movlw	139
  5418   0006F4  ECEC  F00B         	call	i2_DireccionaLCD
  5419                           
  5420                           ;Lab6.c: 391: EscribeLCD_n8(Objetivo-Supercontador,2);
  5421   0006F8  0E02               	movlw	2
  5422   0006FA  6E09               	movwf	i2EscribeLCD_n8@b^0,c
  5423   0006FC  5039               	movf	_Supercontador^0,w,c
  5424   0006FE  5C33               	subwf	_Objetivo^0,w,c
  5425   000700  ECAA  F006         	call	i2_EscribeLCD_n8
  5426                           
  5427                           ;Lab6.c: 392: LATD=contador;
  5428   000704  C037  FF8C         	movff	_contador,3980	;volatile
  5429                           
  5430                           ;Lab6.c: 393: }
  5431   000708  D014               	goto	i2l471
  5432   00070A                     i2l4184:
  5433                           
  5434                           ;Lab6.c: 394: else if(datoSerial=='F' || datoSerial=='f'){
  5435   00070A  0E46               	movlw	70
  5436   00070C  1842               	xorwf	_datoSerial^0,w,c
  5437   00070E  B4D8               	btfsc	status,2,c
  5438   000710  D004               	goto	i2u284_40
  5439   000712  0E66               	movlw	102
  5440   000714  1842               	xorwf	_datoSerial^0,w,c
  5441   000716  A4D8               	btfss	status,2,c
  5442   000718  D003               	goto	i2l4190
  5443   00071A                     i2u284_40:
  5444                           
  5445                           ;Lab6.c: 395: Motor_Avance();
  5446   00071A  EC82  F00C         	call	_Motor_Avance	;wreg free
  5447                           
  5448                           ;Lab6.c: 396: }
  5449   00071E  D009               	goto	i2l471
  5450   000720                     i2l4190:
  5451                           
  5452                           ;Lab6.c: 397: else if(datoSerial=='G' || datoSerial=='g'){
  5453   000720  0E47               	movlw	71
  5454   000722  1842               	xorwf	_datoSerial^0,w,c
  5455   000724  B4D8               	btfsc	status,2,c
  5456   000726  D003               	goto	i2u286_40
  5457   000728  0E67               	movlw	103
  5458   00072A  1842               	xorwf	_datoSerial^0,w,c
  5459   00072C  B4D8               	btfsc	status,2,c
  5460   00072E                     i2u286_40:
  5461                           
  5462                           ;Lab6.c: 398: Motor_Reversa();
  5463   00072E  EC16  F00C         	call	_Motor_Reversa	;wreg free
  5464   000732                     i2l471:
  5465                           
  5466                           ;Lab6.c: 399: };Lab6.c: 400: };Lab6.c: 402: if(TMR0IF==1){
  5467   000732  A4F2               	btfss	4082,2,c	;volatile
  5468   000734  D08E               	goto	i2l483
  5469                           
  5470                           ;Lab6.c: 403: Inactividad++;
  5471   000736  2A43               	incf	_Inactividad^0,f,c
  5472                           
  5473                           ;Lab6.c: 404: TMR0=3036;
  5474   000738  0E0B               	movlw	11
  5475   00073A  6ED7               	movwf	215,c	;volatile
  5476   00073C  0EDC               	movlw	220
  5477   00073E  6ED6               	movwf	214,c	;volatile
  5478                           
  5479                           ;Lab6.c: 405: TMR0IF=0;
  5480   000740  94F2               	bcf	4082,2,c	;volatile
  5481                           
  5482                           ;Lab6.c: 406: LATA1=LATA1^1;
  5483   000742  B289               	btfsc	3977,1,c	;volatile
  5484   000744  D002               	goto	i2u288_40
  5485   000746  8289               	bsf	3977,1,c	;volatile
  5486   000748  D001               	goto	i2u289_45
  5487   00074A                     i2u288_40:
  5488   00074A  9289               	bcf	3977,1,c	;volatile
  5489   00074C                     i2u289_45:
  5490                           
  5491                           ;Lab6.c: 408: valorADC=Conversion(0);
  5492   00074C  0E00               	movlw	0
  5493   00074E  ECAE  F00B         	call	_Conversion
  5494   000752  C001  F031         	movff	?_Conversion,_valorADC
  5495   000756  C002  F032         	movff	?_Conversion+1,_valorADC+1
  5496                           
  5497                           ;Lab6.c: 409: porcentajeADC= (unsigned char)((valorADC * 100UL) / 1023UL);
  5498   00075A  C031  F001         	movff	_valorADC,___lmul@multiplier
  5499   00075E  C032  F002         	movff	_valorADC+1,___lmul@multiplier+1
  5500   000762  6A03               	clrf	(___lmul@multiplier+2)^0,c
  5501   000764  6A04               	clrf	(___lmul@multiplier+3)^0,c
  5502   000766  0E64               	movlw	100
  5503   000768  6E05               	movwf	___lmul@multiplicand^0,c
  5504   00076A  0E00               	movlw	0
  5505   00076C  6E06               	movwf	(___lmul@multiplicand+1)^0,c
  5506   00076E  0E00               	movlw	0
  5507   000770  6E07               	movwf	(___lmul@multiplicand+2)^0,c
  5508   000772  0E00               	movlw	0
  5509   000774  6E08               	movwf	(___lmul@multiplicand+3)^0,c
  5510   000776  EC26  F009         	call	___lmul	;wreg free
  5511   00077A  C001  F00D         	movff	?___lmul,___lldiv@dividend
  5512   00077E  C002  F00E         	movff	?___lmul+1,___lldiv@dividend+1
  5513   000782  C003  F00F         	movff	?___lmul+2,___lldiv@dividend+2
  5514   000786  C004  F010         	movff	?___lmul+3,___lldiv@dividend+3
  5515   00078A  0EFF               	movlw	255
  5516   00078C  6E11               	movwf	___lldiv@divisor^0,c
  5517   00078E  0E03               	movlw	3
  5518   000790  6E12               	movwf	(___lldiv@divisor+1)^0,c
  5519   000792  0E00               	movlw	0
  5520   000794  6E13               	movwf	(___lldiv@divisor+2)^0,c
  5521   000796  0E00               	movlw	0
  5522   000798  6E14               	movwf	(___lldiv@divisor+3)^0,c
  5523   00079A  ECBF  F007         	call	___lldiv	;wreg free
  5524   00079E  500D               	movf	?___lldiv^0,w,c
  5525   0007A0  6E3E               	movwf	_porcentajeADC^0,c
  5526                           
  5527                           ;Lab6.c: 411: printf("Valor del ADC:%d\r\n", valorADC);
  5528   0007A2  0EC1               	movlw	low STR_19
  5529   0007A4  6E0D               	movwf	printf@f^0,c
  5530   0007A6  0E7E               	movlw	high STR_19
  5531   0007A8  6E0E               	movwf	(printf@f+1)^0,c
  5532   0007AA  C031  F00F         	movff	_valorADC,?_printf+2
  5533   0007AE  C032  F010         	movff	_valorADC+1,?_printf+3
  5534   0007B2  EC30  F005         	call	_printf	;wreg free
  5535                           
  5536                           ;Lab6.c: 414: if(modoReversa==1){
  5537   0007B6  043D               	decf	_modoReversa^0,w,c
  5538   0007B8  A4D8               	btfss	status,2,c
  5539   0007BA  D007               	goto	i2l4216
  5540                           
  5541                           ;Lab6.c: 415: PWM_Set10bit(0);
  5542   0007BC  0E00               	movlw	0
  5543   0007BE  6E02               	movwf	(PWM_Set10bit@duty10+1)^0,c
  5544   0007C0  0E00               	movlw	0
  5545   0007C2  6E01               	movwf	PWM_Set10bit@duty10^0,c
  5546   0007C4  EC51  F009         	call	_PWM_Set10bit	;wreg free
  5547                           
  5548                           ;Lab6.c: 416: }else{
  5549   0007C8  D00F               	goto	i2l4224
  5550   0007CA                     i2l4216:
  5551                           
  5552                           ;Lab6.c: 417: if(control_manual_pwm==1){
  5553   0007CA  043C               	decf	_control_manual_pwm^0,w,c
  5554   0007CC  A4D8               	btfss	status,2,c
  5555   0007CE  D006               	goto	i2l4222
  5556                           
  5557                           ;Lab6.c: 418: PWM_SetPercent(pwm_duty_perc);
  5558   0007D0  503B               	movf	_pwm_duty_perc^0,w,c
  5559   0007D2  EC3B  F008         	call	_PWM_SetPercent
  5560                           
  5561                           ;Lab6.c: 419: porcentajeADC = pwm_duty_perc;
  5562   0007D6  C03B  F03E         	movff	_pwm_duty_perc,_porcentajeADC
  5563                           
  5564                           ;Lab6.c: 420: }else{
  5565   0007DA  D006               	goto	i2l4224
  5566   0007DC                     i2l4222:
  5567                           
  5568                           ;Lab6.c: 421: PWM_Set10bit(valorADC);
  5569   0007DC  C031  F001         	movff	_valorADC,PWM_Set10bit@duty10
  5570   0007E0  C032  F002         	movff	_valorADC+1,PWM_Set10bit@duty10+1
  5571   0007E4  EC51  F009         	call	_PWM_Set10bit	;wreg free
  5572   0007E8                     i2l4224:
  5573                           
  5574                           ;Lab6.c: 422: };Lab6.c: 423: };Lab6.c: 425: printf("Valor de PWM: %d%%\r\n",porcentajeAD
      +                          C);
  5575   0007E8  0E97               	movlw	low STR_20
  5576   0007EA  6E0D               	movwf	printf@f^0,c
  5577   0007EC  0E7E               	movlw	high STR_20
  5578   0007EE  6E0E               	movwf	(printf@f+1)^0,c
  5579   0007F0  C03E  F00F         	movff	_porcentajeADC,?_printf+2
  5580   0007F4  6A10               	clrf	(?_printf+3)^0,c
  5581   0007F6  EC30  F005         	call	_printf	;wreg free
  5582                           
  5583                           ;Lab6.c: 427: if (etimeout == 1) ctimeout++;
  5584   0007FA  0440               	decf	_etimeout^0,w,c
  5585   0007FC  A4D8               	btfss	status,2,c
  5586   0007FE  D002               	goto	i2l488
  5587   000800  2A3F               	incf	_ctimeout^0,f,c
  5588   000802  D001               	goto	i2l4230
  5589   000804                     i2l488:
  5590                           
  5591                           ;Lab6.c: 428: else ctimeout = 0;
  5592   000804  6A3F               	clrf	_ctimeout^0,c
  5593   000806                     i2l4230:
  5594                           
  5595                           ;Lab6.c: 429: if (ctimeout >= 2) etimeout = 0;
  5596   000806  0E01               	movlw	1
  5597   000808  643F               	cpfsgt	_ctimeout^0,c
  5598   00080A  D001               	goto	i2l4234
  5599   00080C  6A40               	clrf	_etimeout^0,c
  5600   00080E                     i2l4234:
  5601                           
  5602                           ;Lab6.c: 431: if(d==0) printf("Falla en el sensor\r\n");
  5603   00080E  5041               	movf	_d^0,w,c
  5604   000810  A4D8               	btfss	status,2,c
  5605   000812  D007               	goto	i2l4238
  5606   000814  0EAC               	movlw	low STR_21
  5607   000816  6E0D               	movwf	printf@f^0,c
  5608   000818  0E7E               	movlw	high STR_21
  5609   00081A  6E0E               	movwf	(printf@f+1)^0,c
  5610   00081C  EC30  F005         	call	_printf	;wreg free
  5611   000820  D009               	goto	i2l4240
  5612   000822                     i2l4238:
  5613                           
  5614                           ;Lab6.c: 432: else printf("La distancia medida es: %d cm\r\n",d);
  5615   000822  0E77               	movlw	low STR_22
  5616   000824  6E0D               	movwf	printf@f^0,c
  5617   000826  0E7E               	movlw	high STR_22
  5618   000828  6E0E               	movwf	(printf@f+1)^0,c
  5619   00082A  C041  F00F         	movff	_d,?_printf+2
  5620   00082E  6A10               	clrf	(?_printf+3)^0,c
  5621   000830  EC30  F005         	call	_printf	;wreg free
  5622   000834                     i2l4240:
  5623                           
  5624                           ;Lab6.c: 434: if(Inactividad == 10){
  5625   000834  0E0A               	movlw	10
  5626   000836  1843               	xorwf	_Inactividad^0,w,c
  5627   000838  B4D8               	btfsc	status,2,c
  5628                           
  5629                           ;Lab6.c: 435: LATA3 = 0;
  5630   00083A  9689               	bcf	3977,3,c	;volatile
  5631                           
  5632                           ;Lab6.c: 436: };Lab6.c: 437: if(Inactividad >= 20){
  5633   00083C  0E13               	movlw	19
  5634   00083E  6443               	cpfsgt	_Inactividad^0,c
  5635   000840  D004               	goto	i2l494
  5636   000842  0003               	sleep		;# 
  5637                           
  5638                           ;Lab6.c: 439: Inactividad = 0;
  5639   000844  6A43               	clrf	_Inactividad^0,c
  5640                           
  5641                           ;Lab6.c: 440: RBIF = 0;
  5642   000846  90F2               	bcf	4082,0,c	;volatile
  5643                           
  5644                           ;Lab6.c: 441: TMR1ON = 1;
  5645   000848  80CD               	bsf	4045,0,c	;volatile
  5646   00084A                     i2l494:
  5647                           
  5648                           ;Lab6.c: 442: };Lab6.c: 444: valorADC2=valorADC;
  5649   00084A  C031  F02F         	movff	_valorADC,_valorADC2
  5650   00084E  C032  F030         	movff	_valorADC+1,_valorADC2+1
  5651   000852                     i2l483:
  5652                           
  5653                           ;Lab6.c: 445: };Lab6.c: 447: if(RBIF==1){
  5654   000852  A0F2               	btfss	4082,0,c	;volatile
  5655   000854  D0F3               	goto	i2l543
  5656                           
  5657                           ;Lab6.c: 448: if(PORTB!=0b11110000){
  5658   000856  0EF0               	movlw	240
  5659   000858  1881               	xorwf	129,w,c	;volatile
  5660   00085A  B4D8               	btfsc	status,2,c
  5661   00085C  D0E7               	goto	i2l4374
  5662                           
  5663                           ;Lab6.c: 449: Inactividad = 0;
  5664   00085E  6A43               	clrf	_Inactividad^0,c
  5665                           
  5666                           ;Lab6.c: 451: LATB=0b11111110;
  5667   000860  0EFE               	movlw	254
  5668   000862  6E8A               	movwf	138,c	;volatile
  5669                           
  5670                           ;Lab6.c: 452: if(RB4==0){
  5671   000864  B881               	btfsc	3969,4,c	;volatile
  5672   000866  D005               	goto	i2l497
  5673                           
  5674                           ;Lab6.c: 453: Tecla=1;
  5675   000868  0E01               	movlw	1
  5676   00086A                     L12:
  5677   00086A  6E44               	movwf	_Tecla^0,c
  5678   00086C                     i2l4258:
  5679                           
  5680                           ;Lab6.c: 454: ConfigPregunta();
  5681   00086C  ECF9  F008         	call	_ConfigPregunta	;wreg free
  5682                           
  5683                           ;Lab6.c: 455: }
  5684   000870  D0DB               	goto	i2l521
  5685   000872                     i2l497:
  5686                           
  5687                           ;Lab6.c: 456: else if(RB5==0) {
  5688   000872  BA81               	btfsc	3969,5,c	;volatile
  5689   000874  D002               	goto	i2l499
  5690                           
  5691                           ;Lab6.c: 457: Tecla=2;
  5692   000876  0E02               	movlw	2
  5693   000878  D7F8               	goto	L12
  5694   00087A                     i2l499:
  5695                           
  5696                           ;Lab6.c: 460: else if(RB6==0){
  5697   00087A  BC81               	btfsc	3969,6,c	;volatile
  5698   00087C  D002               	goto	i2l501
  5699                           
  5700                           ;Lab6.c: 461: Tecla=3;
  5701   00087E  0E03               	movlw	3
  5702   000880  D7F4               	goto	L12
  5703   000882                     i2l501:
  5704                           
  5705                           ;Lab6.c: 464: else if(RB7==0){
  5706   000882  BE81               	btfsc	3969,7,c	;volatile
  5707   000884  D003               	goto	i2l4270
  5708                           
  5709                           ;Lab6.c: 465: Tecla='*';
  5710   000886  0E2A               	movlw	42
  5711   000888  6E44               	movwf	_Tecla^0,c
  5712                           
  5713                           ;Lab6.c: 466: }
  5714   00088A  D0CE               	goto	i2l521
  5715   00088C                     i2l4270:
  5716                           
  5717                           ;Lab6.c: 467: else{;Lab6.c: 468: LATB=0b11111101;
  5718   00088C  0EFD               	movlw	253
  5719   00088E  6E8A               	movwf	138,c	;volatile
  5720                           
  5721                           ;Lab6.c: 469: if(RB4==0){
  5722   000890  B881               	btfsc	3969,4,c	;volatile
  5723   000892  D002               	goto	i2l505
  5724                           
  5725                           ;Lab6.c: 470: Tecla=4;
  5726   000894  0E04               	movlw	4
  5727   000896  D7E9               	goto	L12
  5728   000898                     i2l505:
  5729                           
  5730                           ;Lab6.c: 473: else if(RB5==0) {
  5731   000898  BA81               	btfsc	3969,5,c	;volatile
  5732   00089A  D002               	goto	i2l507
  5733                           
  5734                           ;Lab6.c: 474: Tecla=5;
  5735   00089C  0E05               	movlw	5
  5736   00089E  D7E5               	goto	L12
  5737   0008A0                     i2l507:
  5738                           
  5739                           ;Lab6.c: 477: else if(RB6==0) {
  5740   0008A0  BC81               	btfsc	3969,6,c	;volatile
  5741   0008A2  D002               	goto	i2l509
  5742                           
  5743                           ;Lab6.c: 478: Tecla=6;
  5744   0008A4  0E06               	movlw	6
  5745   0008A6  D7E1               	goto	L12
  5746   0008A8                     i2l509:
  5747                           
  5748                           ;Lab6.c: 481: else if(RB7==0) {
  5749   0008A8  BE81               	btfsc	3969,7,c	;volatile
  5750   0008AA  D01E               	goto	i2l4302
  5751                           
  5752                           ;Lab6.c: 482: LATE=0b00000011;
  5753   0008AC  0E03               	movlw	3
  5754   0008AE  6E8D               	movwf	141,c	;volatile
  5755                           
  5756                           ;Lab6.c: 483: BorraLCD();
  5757   0008B0  EC20  F00C         	call	i2_BorraLCD	;wreg free
  5758                           
  5759                           ;Lab6.c: 484: OcultarCursor();
  5760   0008B4  EC76  F00C         	call	i2_OcultarCursor	;wreg free
  5761                           
  5762                           ;Lab6.c: 485: MensajeLCD_Var("   PARADA DE");
  5763   0008B8  0E67               	movlw	low STR_17
  5764   0008BA  6E06               	movwf	i2MensajeLCD_Var@a^0,c
  5765   0008BC  0E7F               	movlw	high STR_17
  5766   0008BE  6E07               	movwf	(i2MensajeLCD_Var@a+1)^0,c
  5767   0008C0  EC45  F00A         	call	i2_MensajeLCD_Var	;wreg free
  5768                           
  5769                           ;Lab6.c: 486: DireccionaLCD(0xC0);
  5770   0008C4  0EC0               	movlw	192
  5771   0008C6  ECEC  F00B         	call	i2_DireccionaLCD
  5772                           
  5773                           ;Lab6.c: 487: MensajeLCD_Var("   EMERGENCIA");
  5774   0008CA  0E3F               	movlw	low STR_18
  5775   0008CC  6E06               	movwf	i2MensajeLCD_Var@a^0,c
  5776   0008CE  0E7F               	movlw	high STR_18
  5777   0008D0  6E07               	movwf	(i2MensajeLCD_Var@a+1)^0,c
  5778   0008D2  EC45  F00A         	call	i2_MensajeLCD_Var	;wreg free
  5779                           
  5780                           ;Lab6.c: 488: PWM_Set10bit(0);
  5781   0008D6  0E00               	movlw	0
  5782   0008D8  6E02               	movwf	(PWM_Set10bit@duty10+1)^0,c
  5783   0008DA  0E00               	movlw	0
  5784   0008DC  6E01               	movwf	PWM_Set10bit@duty10^0,c
  5785   0008DE  EC51  F009         	call	_PWM_Set10bit	;wreg free
  5786                           
  5787                           ;Lab6.c: 489: Motor_Paro();
  5788   0008E2  EC3C  F00C         	call	_Motor_Paro	;wreg free
  5789   0008E6                     i2l512:
  5790   0008E6  D7FF               	goto	i2l512
  5791   0008E8                     i2l4302:
  5792                           
  5793                           ;Lab6.c: 492: else{;Lab6.c: 493: LATB=0b11111011;
  5794   0008E8  0EFB               	movlw	251
  5795   0008EA  6E8A               	movwf	138,c	;volatile
  5796                           
  5797                           ;Lab6.c: 494: if(RB4==0) {
  5798   0008EC  B881               	btfsc	3969,4,c	;volatile
  5799   0008EE  D002               	goto	i2l516
  5800                           
  5801                           ;Lab6.c: 495: Tecla=7;
  5802   0008F0  0E07               	movlw	7
  5803   0008F2  D7BB               	goto	L12
  5804   0008F4                     i2l516:
  5805                           
  5806                           ;Lab6.c: 498: else if(RB5==0) {
  5807   0008F4  BA81               	btfsc	3969,5,c	;volatile
  5808   0008F6  D002               	goto	i2l518
  5809                           
  5810                           ;Lab6.c: 499: Tecla=8;
  5811   0008F8  0E08               	movlw	8
  5812   0008FA  D7B7               	goto	L12
  5813   0008FC                     i2l518:
  5814                           
  5815                           ;Lab6.c: 502: else if(RB6==0) {
  5816   0008FC  BC81               	btfsc	3969,6,c	;volatile
  5817   0008FE  D002               	goto	i2l520
  5818                           
  5819                           ;Lab6.c: 503: Tecla=9;
  5820   000900  0E09               	movlw	9
  5821   000902  D7B3               	goto	L12
  5822   000904                     i2l520:
  5823                           
  5824                           ;Lab6.c: 506: else if(RB7==0) {
  5825   000904  BE81               	btfsc	3969,7,c	;volatile
  5826   000906  D003               	goto	i2l4320
  5827                           
  5828                           ;Lab6.c: 507: Borrar();
  5829   000908  EC39  F00B         	call	_Borrar	;wreg free
  5830                           
  5831                           ;Lab6.c: 508: }
  5832   00090C  D08D               	goto	i2l521
  5833   00090E                     i2l4320:
  5834                           
  5835                           ;Lab6.c: 509: else{;Lab6.c: 510: LATB=0b11110111;
  5836   00090E  0EF7               	movlw	247
  5837   000910  6E8A               	movwf	138,c	;volatile
  5838                           
  5839                           ;Lab6.c: 511: if(RB4==0){
  5840   000912  B881               	btfsc	3969,4,c	;volatile
  5841   000914  D027               	goto	i2l524
  5842                           
  5843                           ;Lab6.c: 512: contador=0;
  5844   000916  0E00               	movlw	0
  5845   000918  6E38               	movwf	(_contador+1)^0,c
  5846   00091A  0E00               	movlw	0
  5847   00091C  6E37               	movwf	_contador^0,c
  5848                           
  5849                           ;Lab6.c: 513: Supercontador = 0;
  5850   00091E  0E00               	movlw	0
  5851   000920  6E3A               	movwf	(_Supercontador+1)^0,c
  5852   000922  0E00               	movlw	0
  5853   000924  6E39               	movwf	_Supercontador^0,c
  5854                           
  5855                           ;Lab6.c: 514: contadorRGB = 0;
  5856   000926  0E00               	movlw	0
  5857   000928  6E36               	movwf	(_contadorRGB+1)^0,c
  5858   00092A  0E00               	movlw	0
  5859   00092C  6E35               	movwf	_contadorRGB^0,c
  5860                           
  5861                           ;Lab6.c: 515: GuardarContador(0, Objetivo);
  5862   00092E  0E00               	movlw	0
  5863   000930  6E04               	movwf	(i2GuardarContador@valor+1)^0,c
  5864   000932  0E00               	movlw	0
  5865   000934  6E03               	movwf	i2GuardarContador@valor^0,c
  5866   000936  C033  F005         	movff	_Objetivo,i2GuardarContador@objetivo
  5867   00093A  C034  F006         	movff	_Objetivo+1,i2GuardarContador@objetivo+1
  5868   00093E  ECE1  F00B         	call	i2_GuardarContador	;wreg free
  5869                           
  5870                           ;Lab6.c: 516: LATE=0b00000010;
  5871   000942  0E02               	movlw	2
  5872   000944  6E8D               	movwf	141,c	;volatile
  5873                           
  5874                           ;Lab6.c: 517: if(salir==1){
  5875   000946  0445               	decf	_salir^0,w,c
  5876   000948  A4D8               	btfss	status,2,c
  5877   00094A  D06E               	goto	i2l521
  5878                           
  5879                           ;Lab6.c: 518: DireccionaLCD(0x8B);
  5880   00094C  0E8B               	movlw	139
  5881   00094E  ECEC  F00B         	call	i2_DireccionaLCD
  5882                           
  5883                           ;Lab6.c: 519: EscribeLCD_n8(Objetivo-Supercontador,2);
  5884   000952  0E02               	movlw	2
  5885   000954  6E09               	movwf	i2EscribeLCD_n8@b^0,c
  5886   000956  5039               	movf	_Supercontador^0,w,c
  5887   000958  5C33               	subwf	_Objetivo^0,w,c
  5888   00095A  ECAA  F006         	call	i2_EscribeLCD_n8
  5889   00095E                     i2l4334:
  5890                           
  5891                           ;Lab6.c: 520: LATD=contador;
  5892   00095E  C037  FF8C         	movff	_contador,3980	;volatile
  5893   000962  D062               	goto	i2l521
  5894   000964                     i2l524:
  5895                           
  5896                           ;Lab6.c: 523: else if(RB5==0) {
  5897   000964  BA81               	btfsc	3969,5,c	;volatile
  5898   000966  D002               	goto	i2l527
  5899                           
  5900                           ;Lab6.c: 524: Tecla=0;
  5901   000968  6A44               	clrf	_Tecla^0,c
  5902   00096A  D780               	goto	i2l4258
  5903   00096C                     i2l527:
  5904                           
  5905                           ;Lab6.c: 527: else if(RB6==0) {
  5906   00096C  BC81               	btfsc	3969,6,c	;volatile
  5907   00096E  D054               	goto	i2l529
  5908                           
  5909                           ;Lab6.c: 528: Borrar();
  5910   000970  EC39  F00B         	call	_Borrar	;wreg free
  5911                           
  5912                           ;Lab6.c: 529: Supercontador=Objetivo;
  5913   000974  C033  F039         	movff	_Objetivo,_Supercontador
  5914   000978  C034  F03A         	movff	_Objetivo+1,_Supercontador+1
  5915                           
  5916                           ;Lab6.c: 530: contadorRGB = Objetivo/10;
  5917   00097C  C033  F001         	movff	_Objetivo,i2___lwdiv@dividend
  5918   000980  C034  F002         	movff	_Objetivo+1,i2___lwdiv@dividend+1
  5919   000984  0E00               	movlw	0
  5920   000986  6E04               	movwf	(i2___lwdiv@divisor+1)^0,c
  5921   000988  0E0A               	movlw	10
  5922   00098A  6E03               	movwf	i2___lwdiv@divisor^0,c
  5923   00098C  ECD0  F009         	call	i2___lwdiv	;wreg free
  5924   000990  C001  F035         	movff	?i2___lwdiv,_contadorRGB
  5925   000994  C002  F036         	movff	?i2___lwdiv+1,_contadorRGB+1
  5926                           
  5927                           ;Lab6.c: 531: contador = Objetivo-contadorRGB*10;
  5928   000998  0EF6               	movlw	246
  5929   00099A  6E1D               	movwf	??_ISR^0,c
  5930   00099C  0EFF               	movlw	255
  5931   00099E  6E1E               	movwf	(??_ISR+1)^0,c
  5932   0009A0  501D               	movf	??_ISR^0,w,c
  5933   0009A2  0235               	mulwf	_contadorRGB^0,c
  5934   0009A4  CFF3 F01F          	movff	prodl,??_ISR+2
  5935   0009A8  CFF4 F020          	movff	prodh,??_ISR+3
  5936   0009AC  0236               	mulwf	(_contadorRGB+1)^0,c
  5937   0009AE  50F3               	movf	prodl,w,c
  5938   0009B0  2620               	addwf	(??_ISR+3)^0,f,c
  5939   0009B2  501E               	movf	(??_ISR+1)^0,w,c
  5940   0009B4  0235               	mulwf	_contadorRGB^0,c
  5941   0009B6  50F3               	movf	prodl,w,c
  5942   0009B8  2620               	addwf	(??_ISR+3)^0,f,c
  5943   0009BA  5033               	movf	_Objetivo^0,w,c
  5944   0009BC  241F               	addwf	(??_ISR+2)^0,w,c
  5945   0009BE  6E37               	movwf	_contador^0,c
  5946   0009C0  5034               	movf	(_Objetivo+1)^0,w,c
  5947   0009C2  2020               	addwfc	(??_ISR+3)^0,w,c
  5948   0009C4  6E38               	movwf	(_contador+1)^0,c
  5949                           
  5950                           ;Lab6.c: 533: if(contadorRGB==0) LATE=0b00000001;
  5951   0009C6  5035               	movf	_contadorRGB^0,w,c
  5952   0009C8  1036               	iorwf	(_contadorRGB+1)^0,w,c
  5953   0009CA  A4D8               	btfss	status,2,c
  5954   0009CC  D002               	goto	i2l4350
  5955   0009CE  0E01               	movlw	1
  5956   0009D0  D01A               	goto	L16
  5957   0009D2                     i2l4350:
  5958                           
  5959                           ;Lab6.c: 534: else if(contadorRGB==1) LATE=0b00000101;
  5960   0009D2  0435               	decf	_contadorRGB^0,w,c
  5961   0009D4  1036               	iorwf	(_contadorRGB+1)^0,w,c
  5962   0009D6  A4D8               	btfss	status,2,c
  5963   0009D8  D002               	goto	i2l4354
  5964   0009DA  0E05               	movlw	5
  5965   0009DC  D014               	goto	L16
  5966   0009DE                     i2l4354:
  5967                           
  5968                           ;Lab6.c: 535: else if(contadorRGB==2) LATE=0b00000100;
  5969   0009DE  0E02               	movlw	2
  5970   0009E0  1835               	xorwf	_contadorRGB^0,w,c
  5971   0009E2  1036               	iorwf	(_contadorRGB+1)^0,w,c
  5972   0009E4  A4D8               	btfss	status,2,c
  5973   0009E6  D002               	goto	i2l4358
  5974   0009E8  0E04               	movlw	4
  5975   0009EA  D00D               	goto	L16
  5976   0009EC                     i2l4358:
  5977                           
  5978                           ;Lab6.c: 536: else if(contadorRGB==3) LATE=0b00000110;
  5979   0009EC  0E03               	movlw	3
  5980   0009EE  1835               	xorwf	_contadorRGB^0,w,c
  5981   0009F0  1036               	iorwf	(_contadorRGB+1)^0,w,c
  5982   0009F2  A4D8               	btfss	status,2,c
  5983   0009F4  D002               	goto	i2l4362
  5984   0009F6  0E06               	movlw	6
  5985   0009F8  D006               	goto	L16
  5986   0009FA                     i2l4362:
  5987                           
  5988                           ;Lab6.c: 537: else if(contadorRGB==4) LATE=0b00000010;
  5989   0009FA  0E04               	movlw	4
  5990   0009FC  1835               	xorwf	_contadorRGB^0,w,c
  5991   0009FE  1036               	iorwf	(_contadorRGB+1)^0,w,c
  5992   000A00  A4D8               	btfss	status,2,c
  5993   000A02  D003               	goto	i2l4366
  5994   000A04  0E02               	movlw	2
  5995   000A06                     L16:
  5996   000A06  6E8D               	movwf	141,c	;volatile
  5997   000A08  D7AA               	goto	i2l4334
  5998   000A0A                     i2l4366:
  5999                           
  6000                           ;Lab6.c: 538: else if(contadorRGB==5) LATE=0b00000000;
  6001   000A0A  0E05               	movlw	5
  6002   000A0C  1835               	xorwf	_contadorRGB^0,w,c
  6003   000A0E  1036               	iorwf	(_contadorRGB+1)^0,w,c
  6004   000A10  A4D8               	btfss	status,2,c
  6005   000A12  D7A5               	goto	i2l4334
  6006   000A14  6A8D               	clrf	141,c	;volatile
  6007   000A16  D7A3               	goto	i2l4334
  6008   000A18                     i2l529:
  6009                           
  6010                           ;Lab6.c: 542: else if(RB7==0) {
  6011   000A18  BE81               	btfsc	3969,7,c	;volatile
  6012   000A1A  D006               	goto	i2l521
  6013                           
  6014                           ;Lab6.c: 543: LATA3=LATA3^1;
  6015   000A1C  B689               	btfsc	3977,3,c	;volatile
  6016   000A1E  D002               	goto	i2u322_40
  6017   000A20  8689               	bsf	3977,3,c	;volatile
  6018   000A22  D001               	goto	i2u323_45
  6019   000A24                     i2u322_40:
  6020   000A24  9689               	bcf	3977,3,c	;volatile
  6021   000A26                     i2u323_45:
  6022                           
  6023                           ;Lab6.c: 544: TMR1ON=1;
  6024   000A26  80CD               	bsf	4045,0,c	;volatile
  6025   000A28                     i2l521:
  6026                           
  6027                           ;Lab6.c: 545: };Lab6.c: 546: };Lab6.c: 547: };Lab6.c: 548: };Lab6.c: 550: LATB=0b1111000
      +                          0;
  6028   000A28  0EF0               	movlw	240
  6029   000A2A  6E8A               	movwf	138,c	;volatile
  6030   000A2C                     i2l4374:
  6031                           
  6032                           ;Lab6.c: 551: };Lab6.c: 553: _delay((unsigned long)((300)*(1000000/4000.0)));
  6033   000A2C  0E62               	movlw	98
  6034   000A2E  6E1D               	movwf	??_ISR^0,c
  6035   000A30  0E66               	movlw	102
  6036   000A32                     i2u406_47:
  6037   000A32  2EE8               	decfsz	wreg,f,c
  6038   000A34  D7FE               	bra	i2u406_47
  6039   000A36  2E1D               	decfsz	??_ISR^0,f,c
  6040   000A38  D7FC               	bra	i2u406_47
  6041                           
  6042                           ;Lab6.c: 554: RBIF=0;
  6043   000A3A  90F2               	bcf	4082,0,c	;volatile
  6044   000A3C                     i2l543:
  6045   000A3C  C028  FFF5         	movff	??_ISR+11,tablat
  6046   000A40  C027  FFF8         	movff	??_ISR+10,tblptru
  6047   000A44  C026  FFF7         	movff	??_ISR+9,tblptrh
  6048   000A48  C025  FFF6         	movff	??_ISR+8,tblptrl
  6049   000A4C  C024  FFF4         	movff	??_ISR+7,prodh
  6050   000A50  C023  FFF3         	movff	??_ISR+6,prodl
  6051   000A54  C022  FFDA         	movff	??_ISR+5,fsr2h
  6052   000A58  C021  FFD9         	movff	??_ISR+4,fsr2l
  6053   000A5C  9252               	bcf	btemp,1,c	;clear compiler interrupt flag (level 2)
  6054   000A5E  0011               	retfie		f
  6055   000A60                     __end_of_ISR:
  6056                           	callstack 0
  6057                           
  6058 ;; *************** function i2_MensajeLCD_Var *****************
  6059 ;; Defined at:
  6060 ;;		line 236 in file "LibLCDXC8.h"
  6061 ;; Parameters:    Size  Location     Type
  6062 ;;  a               2    5[COMRAM] PTR unsigned char 
  6063 ;;		 -> STR_30(14), STR_29(14), STR_28(13), STR_27(17), 
  6064 ;;		 -> STR_26(12), STR_25(15), STR_24(14), STR_23(13), 
  6065 ;;		 -> STR_18(14), STR_17(13), STR_16(15), STR_15(16), 
  6066 ;;		 -> STR_14(11), STR_13(12), STR_12(13), STR_11(13), 
  6067 ;;		 -> STR_10(11), STR_9(7), STR_8(11), STR_7(7), 
  6068 ;;		 -> STR_6(12), STR_5(12), STR_4(12), STR_3(16), 
  6069 ;;		 -> STR_2(13), STR_1(13), 
  6070 ;; Auto vars:     Size  Location     Type
  6071 ;;  i               2    9[COMRAM] int 
  6072 ;; Return value:  Size  Location     Type
  6073 ;;                  1    wreg      void 
  6074 ;; Registers used:
  6075 ;;		wreg, status,2, status,0, tblptrl, tblptrh, tblptru, cstack
  6076 ;; Tracked objects:
  6077 ;;		On entry : 0/0
  6078 ;;		On exit  : 0/0
  6079 ;;		Unchanged: 0/0
  6080 ;; Data sizes:     COMRAM   BANK0   BANK1   BANK2   BANK3   BANK4   BANK5   BANK6   BANK7
  6081 ;;      Params:         2       0       0       0       0       0       0       0       0
  6082 ;;      Locals:         2       0       0       0       0       0       0       0       0
  6083 ;;      Temps:          2       0       0       0       0       0       0       0       0
  6084 ;;      Totals:         6       0       0       0       0       0       0       0       0
  6085 ;;Total ram usage:        6 bytes
  6086 ;; Hardware stack levels used: 1
  6087 ;; Hardware stack levels required when called: 3
  6088 ;; This function calls:
  6089 ;;		i2_EscribeLCD_c
  6090 ;; This function is called by:
  6091 ;;		_ISR
  6092 ;; This function uses a non-reentrant model
  6093 ;;
  6094                           
  6095                           	psect	text30
  6096   00148A                     __ptext30:
  6097                           	callstack 0
  6098   00148A                     i2_MensajeLCD_Var:
  6099                           	callstack 19
  6100                           
  6101                           ;LibLCDXC8.h: 241: for (int i=0;a[i] != '\0';i++){
  6102                           
  6103                           ;incstack = 0
  6104   00148A  0E00               	movlw	0
  6105   00148C  6E0B               	movwf	(i2MensajeLCD_Var@i+1)^0,c
  6106   00148E  0E00               	movlw	0
  6107   001490  6E0A               	movwf	i2MensajeLCD_Var@i^0,c
  6108   001492  D010               	goto	i2l3726
  6109   001494                     i2l3722:
  6110                           
  6111                           ;LibLCDXC8.h: 242: EscribeLCD_c(a[i]);
  6112   001494  500A               	movf	i2MensajeLCD_Var@i^0,w,c
  6113   001496  2406               	addwf	i2MensajeLCD_Var@a^0,w,c
  6114   001498  6E08               	movwf	??i2_MensajeLCD_Var^0,c
  6115   00149A  500B               	movf	(i2MensajeLCD_Var@i+1)^0,w,c
  6116   00149C  2007               	addwfc	(i2MensajeLCD_Var@a+1)^0,w,c
  6117   00149E  6E09               	movwf	(??i2_MensajeLCD_Var+1)^0,c
  6118   0014A0  C008  FFF6         	movff	??i2_MensajeLCD_Var,tblptrl
  6119   0014A4  C009  FFF7         	movff	??i2_MensajeLCD_Var+1,tblptrh
  6120   0014A8                     	if	0	;tblptru may be non-zero
  6121   0014A8                     	endif
  6122   0014A8                     	if	0	;tblptru may be non-zero
  6123   0014A8                     	endif
  6124   0014A8  0008               	tblrd		*
  6125   0014AA  50F5               	movf	tablat,w,c
  6126   0014AC  ECF7  F00B         	call	i2_EscribeLCD_c
  6127   0014B0  4A0A               	infsnz	i2MensajeLCD_Var@i^0,f,c
  6128   0014B2  2A0B               	incf	(i2MensajeLCD_Var@i+1)^0,f,c
  6129   0014B4                     i2l3726:
  6130   0014B4  500A               	movf	i2MensajeLCD_Var@i^0,w,c
  6131   0014B6  2406               	addwf	i2MensajeLCD_Var@a^0,w,c
  6132   0014B8  6E08               	movwf	??i2_MensajeLCD_Var^0,c
  6133   0014BA  500B               	movf	(i2MensajeLCD_Var@i+1)^0,w,c
  6134   0014BC  2007               	addwfc	(i2MensajeLCD_Var@a+1)^0,w,c
  6135   0014BE  6E09               	movwf	(??i2_MensajeLCD_Var+1)^0,c
  6136   0014C0  C008  FFF6         	movff	??i2_MensajeLCD_Var,tblptrl
  6137   0014C4  C009  FFF7         	movff	??i2_MensajeLCD_Var+1,tblptrh
  6138   0014C8                     	if	0	;tblptru may be non-zero
  6139   0014C8                     	endif
  6140   0014C8                     	if	0	;tblptru may be non-zero
  6141   0014C8                     	endif
  6142   0014C8  0008               	tblrd		*
  6143   0014CA  50F5               	movf	tablat,w,c
  6144   0014CC  0900               	iorlw	0
  6145   0014CE  B4D8               	btfsc	status,2,c
  6146   0014D0  0012               	return	
  6147   0014D2  D7E0               	goto	i2l3722
  6148   0014D4                     __end_ofi2_MensajeLCD_Var:
  6149                           	callstack 0
  6150                           
  6151 ;; *************** function i2_GuardarContador *****************
  6152 ;; Defined at:
  6153 ;;		line 729 in file "Lab6.c"
  6154 ;; Parameters:    Size  Location     Type
  6155 ;;  valor           2    2[COMRAM] unsigned int 
  6156 ;;  objetivo        2    4[COMRAM] unsigned int 
  6157 ;; Auto vars:     Size  Location     Type
  6158 ;;		None
  6159 ;; Return value:  Size  Location     Type
  6160 ;;                  1    wreg      void 
  6161 ;; Registers used:
  6162 ;;		wreg, status,2, cstack
  6163 ;; Tracked objects:
  6164 ;;		On entry : 0/0
  6165 ;;		On exit  : 0/0
  6166 ;;		Unchanged: 0/0
  6167 ;; Data sizes:     COMRAM   BANK0   BANK1   BANK2   BANK3   BANK4   BANK5   BANK6   BANK7
  6168 ;;      Params:         4       0       0       0       0       0       0       0       0
  6169 ;;      Locals:         0       0       0       0       0       0       0       0       0
  6170 ;;      Temps:          0       0       0       0       0       0       0       0       0
  6171 ;;      Totals:         4       0       0       0       0       0       0       0       0
  6172 ;;Total ram usage:        4 bytes
  6173 ;; Hardware stack levels used: 1
  6174 ;; Hardware stack levels required when called: 1
  6175 ;; This function calls:
  6176 ;;		i2_EEPROM_Write
  6177 ;; This function is called by:
  6178 ;;		_ISR
  6179 ;; This function uses a non-reentrant model
  6180 ;;
  6181                           
  6182                           	psect	text31
  6183   0017C2                     __ptext31:
  6184                           	callstack 0
  6185   0017C2                     i2_GuardarContador:
  6186                           	callstack 21
  6187                           
  6188                           ;Lab6.c: 730: EEPROM_Write(0b00000000, (unsigned char)(valor & 0xFF));
  6189                           
  6190                           ;incstack = 0
  6191   0017C2  C003  F001         	movff	i2GuardarContador@valor,i2EEPROM_Write@data
  6192   0017C6  0E00               	movlw	0
  6193   0017C8  EC8D  F00B         	call	i2_EEPROM_Write
  6194                           
  6195                           ;Lab6.c: 731: EEPROM_Write(0b00000001, (unsigned char)(objetivo & 0xFF));
  6196   0017CC  C005  F001         	movff	i2GuardarContador@objetivo,i2EEPROM_Write@data
  6197   0017D0  0E01               	movlw	1
  6198   0017D2  EC8D  F00B         	call	i2_EEPROM_Write
  6199   0017D6  0012               	return		;funcret
  6200   0017D8                     __end_ofi2_GuardarContador:
  6201                           	callstack 0
  6202                           
  6203 ;; *************** function i2_EEPROM_Write *****************
  6204 ;; Defined at:
  6205 ;;		line 714 in file "Lab6.c"
  6206 ;; Parameters:    Size  Location     Type
  6207 ;;  address         1    wreg     unsigned char 
  6208 ;;  data            1    0[COMRAM] unsigned char 
  6209 ;; Auto vars:     Size  Location     Type
  6210 ;;  address         1    1[COMRAM] unsigned char 
  6211 ;; Return value:  Size  Location     Type
  6212 ;;                  1    wreg      void 
  6213 ;; Registers used:
  6214 ;;		wreg, status,2
  6215 ;; Tracked objects:
  6216 ;;		On entry : 0/0
  6217 ;;		On exit  : 0/0
  6218 ;;		Unchanged: 0/0
  6219 ;; Data sizes:     COMRAM   BANK0   BANK1   BANK2   BANK3   BANK4   BANK5   BANK6   BANK7
  6220 ;;      Params:         1       0       0       0       0       0       0       0       0
  6221 ;;      Locals:         1       0       0       0       0       0       0       0       0
  6222 ;;      Temps:          0       0       0       0       0       0       0       0       0
  6223 ;;      Totals:         2       0       0       0       0       0       0       0       0
  6224 ;;Total ram usage:        2 bytes
  6225 ;; Hardware stack levels used: 1
  6226 ;; This function calls:
  6227 ;;		Nothing
  6228 ;; This function is called by:
  6229 ;;		i2_GuardarContador
  6230 ;; This function uses a non-reentrant model
  6231 ;;
  6232                           
  6233                           	psect	text32
  6234   00171A                     __ptext32:
  6235                           	callstack 0
  6236   00171A                     i2_EEPROM_Write:
  6237                           	callstack 21
  6238                           
  6239                           ;incstack = 0
  6240                           ;i2EEPROM_Write@address stored from wreg
  6241   00171A  6E02               	movwf	i2EEPROM_Write@address^0,c
  6242                           
  6243                           ;Lab6.c: 715: EEADR = address;
  6244   00171C  C002  FFA9         	movff	i2EEPROM_Write@address,4009	;volatile
  6245                           
  6246                           ;Lab6.c: 716: EEDATA = data;
  6247   001720  C001  FFA8         	movff	i2EEPROM_Write@data,4008	;volatile
  6248                           
  6249                           ;Lab6.c: 717: EEPGD = 0;
  6250   001724  9EA6               	bcf	4006,7,c	;volsfr
  6251                           
  6252                           ;Lab6.c: 718: CFGS = 0;
  6253   001726  9CA6               	bcf	4006,6,c	;volsfr
  6254                           
  6255                           ;Lab6.c: 719: WREN = 1;
  6256   001728  84A6               	bsf	4006,2,c	;volsfr
  6257                           
  6258                           ;Lab6.c: 720: GIE = 0;
  6259   00172A  9EF2               	bcf	4082,7,c	;volatile
  6260                           
  6261                           ;Lab6.c: 721: EECON2 = 0b01010101;
  6262   00172C  0E55               	movlw	85
  6263   00172E  6EA7               	movwf	167,c	;volsfr
  6264                           
  6265                           ;Lab6.c: 722: EECON2 = 0b10101010;
  6266   001730  0EAA               	movlw	170
  6267   001732  6EA7               	movwf	167,c	;volsfr
  6268                           
  6269                           ;Lab6.c: 723: WR = 1;
  6270   001734  82A6               	bsf	4006,1,c	;volsfr
  6271                           
  6272                           ;Lab6.c: 724: GIE = 1;
  6273   001736  8EF2               	bsf	4082,7,c	;volatile
  6274   001738                     i2l609:
  6275   001738  B2A6               	btfsc	4006,1,c	;volsfr
  6276   00173A  D7FE               	goto	i2l609
  6277                           
  6278                           ;Lab6.c: 726: WREN = 0;
  6279   00173C  94A6               	bcf	4006,2,c	;volsfr
  6280   00173E  0012               	return		;funcret
  6281   001740                     __end_ofi2_EEPROM_Write:
  6282                           	callstack 0
  6283                           
  6284 ;; *************** function _printf *****************
  6285 ;; Defined at:
  6286 ;;		line 477 in file "C:\Program Files\Microchip\xc8\v2.50\pic\sources\c90\common\doprnt.c"
  6287 ;; Parameters:    Size  Location     Type
  6288 ;;  f               2   12[COMRAM] PTR const unsigned char 
  6289 ;;		 -> STR_22(32), STR_21(21), STR_20(21), STR_19(19), 
  6290 ;; Auto vars:     Size  Location     Type
  6291 ;;  tmpval          4    0        struct .
  6292 ;;  val             2   20[COMRAM] unsigned int 
  6293 ;;  cp              2    0        PTR const unsigned char 
  6294 ;;  len             2    0        unsigned int 
  6295 ;;  c               1   22[COMRAM] unsigned char 
  6296 ;;  prec            1   19[COMRAM] char 
  6297 ;;  flag            1   18[COMRAM] unsigned char 
  6298 ;;  ap              1   17[COMRAM] PTR void [1]
  6299 ;;		 -> ?_printf(2), 
  6300 ;; Return value:  Size  Location     Type
  6301 ;;                  2   12[COMRAM] int 
  6302 ;; Registers used:
  6303 ;;		wreg, fsr2l, fsr2h, status,2, status,0, tblptrl, tblptrh, tblptru, prodl, prodh, cstack
  6304 ;; Tracked objects:
  6305 ;;		On entry : 0/0
  6306 ;;		On exit  : 0/0
  6307 ;;		Unchanged: 0/0
  6308 ;; Data sizes:     COMRAM   BANK0   BANK1   BANK2   BANK3   BANK4   BANK5   BANK6   BANK7
  6309 ;;      Params:         4       0       0       0       0       0       0       0       0
  6310 ;;      Locals:         6       0       0       0       0       0       0       0       0
  6311 ;;      Temps:          1       0       0       0       0       0       0       0       0
  6312 ;;      Totals:        11       0       0       0       0       0       0       0       0
  6313 ;;Total ram usage:       11 bytes
  6314 ;; Hardware stack levels used: 1
  6315 ;; Hardware stack levels required when called: 1
  6316 ;; This function calls:
  6317 ;;		___lwmod
  6318 ;;		_putch
  6319 ;;		i2___lwdiv
  6320 ;; This function is called by:
  6321 ;;		_ISR
  6322 ;; This function uses a non-reentrant model
  6323 ;;
  6324                           
  6325                           	psect	text33
  6326   000A60                     __ptext33:
  6327                           	callstack 0
  6328   000A60                     _printf:
  6329                           	callstack 21
  6330                           
  6331                           ;doprnt.c: 479: va_list ap;;doprnt.c: 512: char c;;doprnt.c: 521: signed char prec;;dopr
      +                          nt.c: 525: unsigned char flag;;doprnt.c: 540: union {;doprnt.c: 541: unsigned long vd;;d
      +                          oprnt.c: 542: double integ;;doprnt.c: 543: } tmpval;;doprnt.c: 545: unsigned int val;;do
      +                          prnt.c: 546: unsigned len;;doprnt.c: 547: const char * cp;;doprnt.c: 550: *ap = __va_sta
      +                          rt();
  6332                           
  6333                           ;incstack = 0
  6334   000A60  0E0F               	movlw	low (?_printf+2)
  6335   000A62  6E12               	movwf	printf@ap^0,c
  6336                           
  6337                           ;doprnt.c: 553: while((c = *f++)) {
  6338   000A64  D07D               	goto	i2u222_40
  6339   000A66                     i2l3636:
  6340                           
  6341                           ;doprnt.c: 555: if(c != '%')
  6342   000A66  0E25               	movlw	37
  6343   000A68  1817               	xorwf	printf@c^0,w,c
  6344   000A6A  B4D8               	btfsc	status,2,c
  6345   000A6C  D004               	goto	i2l643
  6346                           
  6347                           ;doprnt.c: 557: {;doprnt.c: 558: (putch(c) );
  6348   000A6E  5017               	movf	printf@c^0,w,c
  6349   000A70  EC5B  F00C         	call	_putch
  6350                           
  6351                           ;doprnt.c: 559: continue;
  6352   000A74  D075               	goto	i2u222_40
  6353   000A76                     i2l643:
  6354                           
  6355                           ;doprnt.c: 560: };doprnt.c: 565: flag = 0;
  6356   000A76  6A13               	clrf	printf@flag^0,c
  6357                           
  6358                           ;doprnt.c: 661: switch(c = *f++) {
  6359   000A78  D004               	goto	i2l3644
  6360   000A7A                     i2l3640:
  6361                           
  6362                           ;doprnt.c: 835: (putch(c) );
  6363   000A7A  5017               	movf	printf@c^0,w,c
  6364   000A7C  EC5B  F00C         	call	_putch
  6365                           
  6366                           ;doprnt.c: 836: continue;
  6367   000A80  D06F               	goto	i2u222_40
  6368   000A82                     i2l3644:
  6369   000A82  C00D  FFF6         	movff	printf@f,tblptrl
  6370   000A86  C00E  FFF7         	movff	printf@f+1,tblptrh
  6371   000A8A  4A0D               	infsnz	printf@f^0,f,c
  6372   000A8C  2A0E               	incf	(printf@f+1)^0,f,c
  6373   000A8E                     	if	0	;tblptru may be non-zero
  6374   000A8E                     	endif
  6375   000A8E                     	if	0	;tblptru may be non-zero
  6376   000A8E                     	endif
  6377   000A8E  0008               	tblrd		*
  6378   000A90  CFF5 F017          	movff	tablat,printf@c
  6379   000A94  5017               	movf	printf@c^0,w,c
  6380                           
  6381                           ; Switch size 1, requested type "simple"
  6382                           ; Number of cases is 3, Range of values is 0 to 105
  6383                           ; switch strategies available:
  6384                           ; Name         Instructions Cycles
  6385                           ; simple_byte           10     6 (average)
  6386                           ;	Chosen strategy is simple_byte
  6387   000A96  0A00               	xorlw	0	; case 0
  6388   000A98  B4D8               	btfsc	status,2,c
  6389   000A9A  0012               	return	
  6390   000A9C  0A64               	xorlw	100	; case 100
  6391   000A9E  B4D8               	btfsc	status,2,c
  6392   000AA0  D003               	goto	i2l3646
  6393   000AA2  0A0D               	xorlw	13	; case 105
  6394   000AA4  A4D8               	btfss	status,2,c
  6395   000AA6  D7E9               	goto	i2l3640
  6396   000AA8                     i2l3646:
  6397                           
  6398                           ;doprnt.c: 1279: {;doprnt.c: 1285: val = (unsigned int)(*(int *)__va_arg((*(int **)ap), 
      +                          (int)0));
  6399   000AA8  5012               	movf	printf@ap^0,w,c
  6400   000AAA  6ED9               	movwf	fsr2l,c
  6401   000AAC  6ADA               	clrf	fsr2h,c
  6402   000AAE  CFDE F015          	movff	postinc2,printf@val
  6403   000AB2  CFDD F016          	movff	postdec2,printf@val+1
  6404   000AB6  0E02               	movlw	2
  6405   000AB8  2612               	addwf	printf@ap^0,f,c
  6406                           
  6407                           ;doprnt.c: 1287: if((int)val < 0) {
  6408   000ABA  AE16               	btfss	(printf@val+1)^0,7,c
  6409   000ABC  D006               	goto	i2l3656
  6410                           
  6411                           ;doprnt.c: 1288: flag |= 0x03;
  6412   000ABE  0E03               	movlw	3
  6413   000AC0  1213               	iorwf	printf@flag^0,f,c
  6414                           
  6415                           ;doprnt.c: 1289: val = -val;
  6416   000AC2  6C15               	negf	printf@val^0,c
  6417   000AC4  1E16               	comf	(printf@val+1)^0,f,c
  6418   000AC6  B0D8               	btfsc	status,0,c
  6419   000AC8  2A16               	incf	(printf@val+1)^0,f,c
  6420   000ACA                     i2l3656:
  6421                           
  6422                           ;doprnt.c: 1290: };doprnt.c: 1292: };doprnt.c: 1331: for(c = 1 ; c != sizeof dpowers/siz
      +                          eof dpowers[0] ; c++)
  6423   000ACA  0E01               	movlw	1
  6424   000ACC  6E17               	movwf	printf@c^0,c
  6425   000ACE                     i2l3662:
  6426                           
  6427                           ;doprnt.c: 1332: if(val < dpowers[c])
  6428   000ACE  5017               	movf	printf@c^0,w,c
  6429   000AD0  0D02               	mullw	2
  6430   000AD2  0E6D               	movlw	low _dpowers
  6431   000AD4  24F3               	addwf	243,w,c
  6432   000AD6  6EF6               	movwf	tblptrl,c
  6433   000AD8  0E7E               	movlw	high _dpowers
  6434   000ADA  20F4               	addwfc	244,w,c
  6435   000ADC  6EF7               	movwf	tblptrh,c
  6436   000ADE                     	if	0	;There are less than 3 active tblptr bytes
  6437   000ADE                     	endif
  6438   000ADE  0009               	tblrd		*+
  6439   000AE0  50F5               	movf	tablat,w,c
  6440   000AE2  5C15               	subwf	printf@val^0,w,c
  6441   000AE4  0009               	tblrd		*+
  6442   000AE6  50F5               	movf	tablat,w,c
  6443   000AE8  5816               	subwfb	(printf@val+1)^0,w,c
  6444   000AEA  A0D8               	btfss	status,0,c
  6445   000AEC  D005               	goto	i2u220_40
  6446   000AEE  2A17               	incf	printf@c^0,f,c
  6447   000AF0  0E05               	movlw	5
  6448   000AF2  1817               	xorwf	printf@c^0,w,c
  6449   000AF4  A4D8               	btfss	status,2,c
  6450   000AF6  D7EB               	goto	i2l3662
  6451   000AF8                     i2u220_40:
  6452                           
  6453                           ;doprnt.c: 1448: {;doprnt.c: 1464: if(flag & 0x03)
  6454   000AF8  C013  F011         	movff	printf@flag,??_printf
  6455   000AFC  0E03               	movlw	3
  6456   000AFE  1611               	andwf	??_printf^0,f,c
  6457   000B00  B4D8               	btfsc	status,2,c
  6458   000B02  D003               	goto	i2l3674
  6459                           
  6460                           ;doprnt.c: 1465: (putch('-') );
  6461   000B04  0E2D               	movlw	45
  6462   000B06  EC5B  F00C         	call	_putch
  6463   000B0A                     i2l3674:
  6464                           
  6465                           ;doprnt.c: 1495: };doprnt.c: 1498: prec = c;
  6466   000B0A  C017  F014         	movff	printf@c,printf@prec
  6467                           
  6468                           ;doprnt.c: 1500: while(prec--) {
  6469   000B0E  D024               	goto	i2l3680
  6470   000B10                     i2l3676:
  6471                           
  6472                           ;doprnt.c: 1504: {;doprnt.c: 1515: c = (val / dpowers[(unsigned char)prec]) % 10 + '0';
  6473   000B10  5014               	movf	printf@prec^0,w,c
  6474   000B12  0D02               	mullw	2
  6475   000B14  0E6D               	movlw	low _dpowers
  6476   000B16  24F3               	addwf	243,w,c
  6477   000B18  6EF6               	movwf	tblptrl,c
  6478   000B1A  0E7E               	movlw	high _dpowers
  6479   000B1C  20F4               	addwfc	244,w,c
  6480   000B1E  6EF7               	movwf	tblptrh,c
  6481   000B20                     	if	0	;There are less than 3 active tblptr bytes
  6482   000B20                     	endif
  6483   000B20  0009               	tblrd		*+
  6484   000B22  CFF5 F003          	movff	tablat,i2___lwdiv@divisor
  6485   000B26  000A               	tblrd		*-
  6486   000B28  CFF5 F004          	movff	tablat,i2___lwdiv@divisor+1
  6487   000B2C  C015  F001         	movff	printf@val,i2___lwdiv@dividend
  6488   000B30  C016  F002         	movff	printf@val+1,i2___lwdiv@dividend+1
  6489   000B34  ECD0  F009         	call	i2___lwdiv	;wreg free
  6490   000B38  C001  F008         	movff	?i2___lwdiv,___lwmod@dividend
  6491   000B3C  C002  F009         	movff	?i2___lwdiv+1,___lwmod@dividend+1
  6492   000B40  0E00               	movlw	0
  6493   000B42  6E0B               	movwf	(___lwmod@divisor+1)^0,c
  6494   000B44  0E0A               	movlw	10
  6495   000B46  6E0A               	movwf	___lwmod@divisor^0,c
  6496   000B48  EC8D  F00A         	call	___lwmod	;wreg free
  6497   000B4C  5008               	movf	?___lwmod^0,w,c
  6498   000B4E  0F30               	addlw	48
  6499   000B50  6E17               	movwf	printf@c^0,c
  6500                           
  6501                           ;doprnt.c: 1549: };doprnt.c: 1550: (putch(c) );
  6502   000B52  5017               	movf	printf@c^0,w,c
  6503   000B54  EC5B  F00C         	call	_putch
  6504   000B58                     i2l3680:
  6505   000B58  0614               	decf	printf@prec^0,f,c
  6506   000B5A  2814               	incf	printf@prec^0,w,c
  6507   000B5C  A4D8               	btfss	status,2,c
  6508   000B5E  D7D8               	goto	i2l3676
  6509   000B60                     i2u222_40:
  6510   000B60  C00D  FFF6         	movff	printf@f,tblptrl
  6511   000B64  C00E  FFF7         	movff	printf@f+1,tblptrh
  6512   000B68  4A0D               	infsnz	printf@f^0,f,c
  6513   000B6A  2A0E               	incf	(printf@f+1)^0,f,c
  6514   000B6C                     	if	0	;tblptru may be non-zero
  6515   000B6C                     	endif
  6516   000B6C                     	if	0	;tblptru may be non-zero
  6517   000B6C                     	endif
  6518   000B6C  0008               	tblrd		*
  6519   000B6E  CFF5 F017          	movff	tablat,printf@c
  6520   000B72  5017               	movf	printf@c^0,w,c
  6521   000B74  B4D8               	btfsc	status,2,c
  6522   000B76  0012               	return	
  6523   000B78  D776               	goto	i2l3636
  6524   000B7A                     __end_of_printf:
  6525                           	callstack 0
  6526                           
  6527 ;; *************** function i2___lwdiv *****************
  6528 ;; Defined at:
  6529 ;;		line 7 in file "C:\Program Files\Microchip\xc8\v2.50\pic\sources\c90\common\lwdiv.c"
  6530 ;; Parameters:    Size  Location     Type
  6531 ;;  dividend        2    0[COMRAM] unsigned int 
  6532 ;;  divisor         2    2[COMRAM] unsigned int 
  6533 ;; Auto vars:     Size  Location     Type
  6534 ;;  quotient        2    4[COMRAM] unsigned int 
  6535 ;;  counter         1    6[COMRAM] unsigned char 
  6536 ;; Return value:  Size  Location     Type
  6537 ;;                  2    0[COMRAM] unsigned int 
  6538 ;; Registers used:
  6539 ;;		wreg, status,2, status,0
  6540 ;; Tracked objects:
  6541 ;;		On entry : 0/0
  6542 ;;		On exit  : 0/0
  6543 ;;		Unchanged: 0/0
  6544 ;; Data sizes:     COMRAM   BANK0   BANK1   BANK2   BANK3   BANK4   BANK5   BANK6   BANK7
  6545 ;;      Params:         4       0       0       0       0       0       0       0       0
  6546 ;;      Locals:         3       0       0       0       0       0       0       0       0
  6547 ;;      Temps:          0       0       0       0       0       0       0       0       0
  6548 ;;      Totals:         7       0       0       0       0       0       0       0       0
  6549 ;;Total ram usage:        7 bytes
  6550 ;; Hardware stack levels used: 1
  6551 ;; This function calls:
  6552 ;;		Nothing
  6553 ;; This function is called by:
  6554 ;;		_ISR
  6555 ;;		_printf
  6556 ;; This function uses a non-reentrant model
  6557 ;;
  6558                           
  6559                           	psect	text34
  6560   0013A0                     __ptext34:
  6561                           	callstack 0
  6562   0013A0                     i2___lwdiv:
  6563                           	callstack 22
  6564                           
  6565                           ;incstack = 0
  6566   0013A0  0E00               	movlw	0
  6567   0013A2  6E06               	movwf	(i2___lwdiv@quotient+1)^0,c
  6568   0013A4  0E00               	movlw	0
  6569   0013A6  6E05               	movwf	i2___lwdiv@quotient^0,c
  6570   0013A8  5003               	movf	i2___lwdiv@divisor^0,w,c
  6571   0013AA  1004               	iorwf	(i2___lwdiv@divisor+1)^0,w,c
  6572   0013AC  B4D8               	btfsc	status,2,c
  6573   0013AE  D01C               	goto	i2l1142
  6574   0013B0  0E01               	movlw	1
  6575   0013B2  6E07               	movwf	i2___lwdiv@counter^0,c
  6576   0013B4  D004               	goto	i2l3426
  6577   0013B6                     i2l3424:
  6578   0013B6  90D8               	bcf	status,0,c
  6579   0013B8  3603               	rlcf	i2___lwdiv@divisor^0,f,c
  6580   0013BA  3604               	rlcf	(i2___lwdiv@divisor+1)^0,f,c
  6581   0013BC  2A07               	incf	i2___lwdiv@counter^0,f,c
  6582   0013BE                     i2l3426:
  6583   0013BE  AE04               	btfss	(i2___lwdiv@divisor+1)^0,7,c
  6584   0013C0  D7FA               	goto	i2l3424
  6585   0013C2                     i2u202_40:
  6586   0013C2  90D8               	bcf	status,0,c
  6587   0013C4  3605               	rlcf	i2___lwdiv@quotient^0,f,c
  6588   0013C6  3606               	rlcf	(i2___lwdiv@quotient+1)^0,f,c
  6589   0013C8  5003               	movf	i2___lwdiv@divisor^0,w,c
  6590   0013CA  5C01               	subwf	i2___lwdiv@dividend^0,w,c
  6591   0013CC  5004               	movf	(i2___lwdiv@divisor+1)^0,w,c
  6592   0013CE  5802               	subwfb	(i2___lwdiv@dividend+1)^0,w,c
  6593   0013D0  A0D8               	btfss	status,0,c
  6594   0013D2  D005               	goto	i2l3436
  6595   0013D4  5003               	movf	i2___lwdiv@divisor^0,w,c
  6596   0013D6  5E01               	subwf	i2___lwdiv@dividend^0,f,c
  6597   0013D8  5004               	movf	(i2___lwdiv@divisor+1)^0,w,c
  6598   0013DA  5A02               	subwfb	(i2___lwdiv@dividend+1)^0,f,c
  6599   0013DC  8005               	bsf	i2___lwdiv@quotient^0,0,c
  6600   0013DE                     i2l3436:
  6601   0013DE  90D8               	bcf	status,0,c
  6602   0013E0  3204               	rrcf	(i2___lwdiv@divisor+1)^0,f,c
  6603   0013E2  3203               	rrcf	i2___lwdiv@divisor^0,f,c
  6604   0013E4  2E07               	decfsz	i2___lwdiv@counter^0,f,c
  6605   0013E6  D7ED               	goto	i2u202_40
  6606   0013E8                     i2l1142:
  6607   0013E8  C005  F001         	movff	i2___lwdiv@quotient,?i2___lwdiv
  6608   0013EC  C006  F002         	movff	i2___lwdiv@quotient+1,?i2___lwdiv+1
  6609   0013F0  0012               	return		;funcret
  6610   0013F2                     __end_ofi2___lwdiv:
  6611                           	callstack 0
  6612                           
  6613 ;; *************** function _putch *****************
  6614 ;; Defined at:
  6615 ;;		line 668 in file "Lab6.c"
  6616 ;; Parameters:    Size  Location     Type
  6617 ;;  data            1    wreg     unsigned char 
  6618 ;; Auto vars:     Size  Location     Type
  6619 ;;  data            1    0[COMRAM] unsigned char 
  6620 ;; Return value:  Size  Location     Type
  6621 ;;                  1    wreg      void 
  6622 ;; Registers used:
  6623 ;;		wreg
  6624 ;; Tracked objects:
  6625 ;;		On entry : 0/0
  6626 ;;		On exit  : 0/0
  6627 ;;		Unchanged: 0/0
  6628 ;; Data sizes:     COMRAM   BANK0   BANK1   BANK2   BANK3   BANK4   BANK5   BANK6   BANK7
  6629 ;;      Params:         0       0       0       0       0       0       0       0       0
  6630 ;;      Locals:         1       0       0       0       0       0       0       0       0
  6631 ;;      Temps:          0       0       0       0       0       0       0       0       0
  6632 ;;      Totals:         1       0       0       0       0       0       0       0       0
  6633 ;;Total ram usage:        1 bytes
  6634 ;; Hardware stack levels used: 1
  6635 ;; This function calls:
  6636 ;;		Nothing
  6637 ;; This function is called by:
  6638 ;;		_printf
  6639 ;; This function uses a non-reentrant model
  6640 ;;
  6641                           
  6642                           	psect	text35
  6643   0018B6                     __ptext35:
  6644                           	callstack 0
  6645   0018B6                     _putch:
  6646                           	callstack 21
  6647                           
  6648                           ;incstack = 0
  6649                           ;putch@data stored from wreg
  6650   0018B6  6E01               	movwf	putch@data^0,c
  6651   0018B8                     
  6652                           ;Lab6.c: 669: while(TRMT==0);
  6653   0018B8  A2AC               	btfss	4012,1,c	;volatile
  6654   0018BA  D7FE               	goto	i2l1734
  6655                           
  6656                           ;Lab6.c: 670: TXREG=data;
  6657   0018BC  C001  FFAD         	movff	putch@data,4013	;volatile
  6658   0018C0  0012               	return		;funcret
  6659   0018C2                     __end_of_putch:
  6660                           	callstack 0
  6661                           
  6662 ;; *************** function ___lwmod *****************
  6663 ;; Defined at:
  6664 ;;		line 7 in file "C:\Program Files\Microchip\xc8\v2.50\pic\sources\c90\common\lwmod.c"
  6665 ;; Parameters:    Size  Location     Type
  6666 ;;  dividend        2    7[COMRAM] unsigned int 
  6667 ;;  divisor         2    9[COMRAM] unsigned int 
  6668 ;; Auto vars:     Size  Location     Type
  6669 ;;  counter         1   11[COMRAM] unsigned char 
  6670 ;; Return value:  Size  Location     Type
  6671 ;;                  2    7[COMRAM] unsigned int 
  6672 ;; Registers used:
  6673 ;;		wreg, status,2, status,0
  6674 ;; Tracked objects:
  6675 ;;		On entry : 0/0
  6676 ;;		On exit  : 0/0
  6677 ;;		Unchanged: 0/0
  6678 ;; Data sizes:     COMRAM   BANK0   BANK1   BANK2   BANK3   BANK4   BANK5   BANK6   BANK7
  6679 ;;      Params:         4       0       0       0       0       0       0       0       0
  6680 ;;      Locals:         1       0       0       0       0       0       0       0       0
  6681 ;;      Temps:          0       0       0       0       0       0       0       0       0
  6682 ;;      Totals:         5       0       0       0       0       0       0       0       0
  6683 ;;Total ram usage:        5 bytes
  6684 ;; Hardware stack levels used: 1
  6685 ;; This function calls:
  6686 ;;		Nothing
  6687 ;; This function is called by:
  6688 ;;		_printf
  6689 ;; This function uses a non-reentrant model
  6690 ;;
  6691                           
  6692                           	psect	text36
  6693   00151A                     __ptext36:
  6694                           	callstack 0
  6695   00151A                     ___lwmod:
  6696                           	callstack 21
  6697                           
  6698                           ;incstack = 0
  6699   00151A  500A               	movf	___lwmod@divisor^0,w,c
  6700   00151C  100B               	iorwf	(___lwmod@divisor+1)^0,w,c
  6701   00151E  B4D8               	btfsc	status,2,c
  6702   001520  D018               	goto	i2l1152
  6703   001522  0E01               	movlw	1
  6704   001524  6E0C               	movwf	___lwmod@counter^0,c
  6705   001526  D004               	goto	i2l3340
  6706   001528                     i2l3338:
  6707   001528  90D8               	bcf	status,0,c
  6708   00152A  360A               	rlcf	___lwmod@divisor^0,f,c
  6709   00152C  360B               	rlcf	(___lwmod@divisor+1)^0,f,c
  6710   00152E  2A0C               	incf	___lwmod@counter^0,f,c
  6711   001530                     i2l3340:
  6712   001530  AE0B               	btfss	(___lwmod@divisor+1)^0,7,c
  6713   001532  D7FA               	goto	i2l3338
  6714   001534                     i2u198_40:
  6715   001534  500A               	movf	___lwmod@divisor^0,w,c
  6716   001536  5C08               	subwf	___lwmod@dividend^0,w,c
  6717   001538  500B               	movf	(___lwmod@divisor+1)^0,w,c
  6718   00153A  5809               	subwfb	(___lwmod@dividend+1)^0,w,c
  6719   00153C  A0D8               	btfss	status,0,c
  6720   00153E  D004               	goto	i2l3346
  6721   001540  500A               	movf	___lwmod@divisor^0,w,c
  6722   001542  5E08               	subwf	___lwmod@dividend^0,f,c
  6723   001544  500B               	movf	(___lwmod@divisor+1)^0,w,c
  6724   001546  5A09               	subwfb	(___lwmod@dividend+1)^0,f,c
  6725   001548                     i2l3346:
  6726   001548  90D8               	bcf	status,0,c
  6727   00154A  320B               	rrcf	(___lwmod@divisor+1)^0,f,c
  6728   00154C  320A               	rrcf	___lwmod@divisor^0,f,c
  6729   00154E  2E0C               	decfsz	___lwmod@counter^0,f,c
  6730   001550  D7F1               	goto	i2u198_40
  6731   001552                     i2l1152:
  6732   001552  C008  F008         	movff	___lwmod@dividend,?___lwmod
  6733   001556  C009  F009         	movff	___lwmod@dividend+1,?___lwmod+1
  6734   00155A  0012               	return		;funcret
  6735   00155C                     __end_of___lwmod:
  6736                           	callstack 0
  6737                           
  6738 ;; *************** function _PWM_SetPercent *****************
  6739 ;; Defined at:
  6740 ;;		line 89 in file "Lab6.c"
  6741 ;; Parameters:    Size  Location     Type
  6742 ;;  perc            1    wreg     unsigned char 
  6743 ;; Auto vars:     Size  Location     Type
  6744 ;;  perc            1   27[COMRAM] unsigned char 
  6745 ;;  val_reg         2   25[COMRAM] unsigned int 
  6746 ;; Return value:  Size  Location     Type
  6747 ;;                  1    wreg      void 
  6748 ;; Registers used:
  6749 ;;		wreg, status,2, status,0, cstack
  6750 ;; Tracked objects:
  6751 ;;		On entry : 0/0
  6752 ;;		On exit  : 0/0
  6753 ;;		Unchanged: 0/0
  6754 ;; Data sizes:     COMRAM   BANK0   BANK1   BANK2   BANK3   BANK4   BANK5   BANK6   BANK7
  6755 ;;      Params:         0       0       0       0       0       0       0       0       0
  6756 ;;      Locals:         3       0       0       0       0       0       0       0       0
  6757 ;;      Temps:          0       0       0       0       0       0       0       0       0
  6758 ;;      Totals:         3       0       0       0       0       0       0       0       0
  6759 ;;Total ram usage:        3 bytes
  6760 ;; Hardware stack levels used: 1
  6761 ;; Hardware stack levels required when called: 1
  6762 ;; This function calls:
  6763 ;;		_PWM_Set10bit
  6764 ;;		___lldiv
  6765 ;;		___lmul
  6766 ;; This function is called by:
  6767 ;;		_ISR
  6768 ;; This function uses a non-reentrant model
  6769 ;;
  6770                           
  6771                           	psect	text37
  6772   001076                     __ptext37:
  6773                           	callstack 0
  6774   001076                     _PWM_SetPercent:
  6775                           	callstack 21
  6776                           
  6777                           ;incstack = 0
  6778                           ;PWM_SetPercent@perc stored from wreg
  6779   001076  6E1C               	movwf	PWM_SetPercent@perc^0,c
  6780                           
  6781                           ;Lab6.c: 91: if(perc > 100) perc = 100;
  6782   001078  0E64               	movlw	100
  6783   00107A  641C               	cpfsgt	PWM_SetPercent@perc^0,c
  6784   00107C  D002               	goto	i2l3480
  6785   00107E  0E64               	movlw	100
  6786   001080  6E1C               	movwf	PWM_SetPercent@perc^0,c
  6787   001082                     i2l3480:
  6788                           
  6789                           ;Lab6.c: 93: unsigned int val_reg = (unsigned int)((unsigned long)perc * 1023UL / 100UL)
      +                          ;
  6790   001082  501C               	movf	PWM_SetPercent@perc^0,w,c
  6791   001084  6E01               	movwf	___lmul@multiplier^0,c
  6792   001086  6A02               	clrf	(___lmul@multiplier+1)^0,c
  6793   001088  6A03               	clrf	(___lmul@multiplier+2)^0,c
  6794   00108A  6A04               	clrf	(___lmul@multiplier+3)^0,c
  6795   00108C  0EFF               	movlw	255
  6796   00108E  6E05               	movwf	___lmul@multiplicand^0,c
  6797   001090  0E03               	movlw	3
  6798   001092  6E06               	movwf	(___lmul@multiplicand+1)^0,c
  6799   001094  0E00               	movlw	0
  6800   001096  6E07               	movwf	(___lmul@multiplicand+2)^0,c
  6801   001098  0E00               	movlw	0
  6802   00109A  6E08               	movwf	(___lmul@multiplicand+3)^0,c
  6803   00109C  EC26  F009         	call	___lmul	;wreg free
  6804   0010A0  C001  F00D         	movff	?___lmul,___lldiv@dividend
  6805   0010A4  C002  F00E         	movff	?___lmul+1,___lldiv@dividend+1
  6806   0010A8  C003  F00F         	movff	?___lmul+2,___lldiv@dividend+2
  6807   0010AC  C004  F010         	movff	?___lmul+3,___lldiv@dividend+3
  6808   0010B0  0E64               	movlw	100
  6809   0010B2  6E11               	movwf	___lldiv@divisor^0,c
  6810   0010B4  0E00               	movlw	0
  6811   0010B6  6E12               	movwf	(___lldiv@divisor+1)^0,c
  6812   0010B8  0E00               	movlw	0
  6813   0010BA  6E13               	movwf	(___lldiv@divisor+2)^0,c
  6814   0010BC  0E00               	movlw	0
  6815   0010BE  6E14               	movwf	(___lldiv@divisor+3)^0,c
  6816   0010C0  ECBF  F007         	call	___lldiv	;wreg free
  6817   0010C4  C00D  F01A         	movff	?___lldiv,PWM_SetPercent@val_reg
  6818   0010C8  C00E  F01B         	movff	?___lldiv+1,PWM_SetPercent@val_reg+1
  6819                           
  6820                           ;Lab6.c: 94: PWM_Set10bit(val_reg);
  6821   0010CC  C01A  F001         	movff	PWM_SetPercent@val_reg,PWM_Set10bit@duty10
  6822   0010D0  C01B  F002         	movff	PWM_SetPercent@val_reg+1,PWM_Set10bit@duty10+1
  6823   0010D4  EC51  F009         	call	_PWM_Set10bit	;wreg free
  6824   0010D8  0012               	return		;funcret
  6825   0010DA                     __end_of_PWM_SetPercent:
  6826                           	callstack 0
  6827                           
  6828 ;; *************** function ___lmul *****************
  6829 ;; Defined at:
  6830 ;;		line 15 in file "C:\Program Files\Microchip\xc8\v2.50\pic\sources\c90\common\Umul32.c"
  6831 ;; Parameters:    Size  Location     Type
  6832 ;;  multiplier      4    0[COMRAM] unsigned long 
  6833 ;;  multiplicand    4    4[COMRAM] unsigned long 
  6834 ;; Auto vars:     Size  Location     Type
  6835 ;;  product         4    8[COMRAM] unsigned long 
  6836 ;; Return value:  Size  Location     Type
  6837 ;;                  4    0[COMRAM] unsigned long 
  6838 ;; Registers used:
  6839 ;;		wreg, status,2, status,0
  6840 ;; Tracked objects:
  6841 ;;		On entry : 0/0
  6842 ;;		On exit  : 0/0
  6843 ;;		Unchanged: 0/0
  6844 ;; Data sizes:     COMRAM   BANK0   BANK1   BANK2   BANK3   BANK4   BANK5   BANK6   BANK7
  6845 ;;      Params:         8       0       0       0       0       0       0       0       0
  6846 ;;      Locals:         4       0       0       0       0       0       0       0       0
  6847 ;;      Temps:          0       0       0       0       0       0       0       0       0
  6848 ;;      Totals:        12       0       0       0       0       0       0       0       0
  6849 ;;Total ram usage:       12 bytes
  6850 ;; Hardware stack levels used: 1
  6851 ;; This function calls:
  6852 ;;		Nothing
  6853 ;; This function is called by:
  6854 ;;		_PWM_SetPercent
  6855 ;;		_ISR
  6856 ;; This function uses a non-reentrant model
  6857 ;;
  6858                           
  6859                           	psect	text38
  6860   00124C                     __ptext38:
  6861                           	callstack 0
  6862   00124C                     ___lmul:
  6863                           	callstack 22
  6864                           
  6865                           ;incstack = 0
  6866   00124C  0E00               	movlw	0
  6867   00124E  6E09               	movwf	___lmul@product^0,c
  6868   001250  0E00               	movlw	0
  6869   001252  6E0A               	movwf	(___lmul@product+1)^0,c
  6870   001254  0E00               	movlw	0
  6871   001256  6E0B               	movwf	(___lmul@product+2)^0,c
  6872   001258  0E00               	movlw	0
  6873   00125A  6E0C               	movwf	(___lmul@product+3)^0,c
  6874   00125C                     i2l3238:
  6875   00125C  A001               	btfss	___lmul@multiplier^0,0,c
  6876   00125E  D008               	goto	i2l3242
  6877   001260  5005               	movf	___lmul@multiplicand^0,w,c
  6878   001262  2609               	addwf	___lmul@product^0,f,c
  6879   001264  5006               	movf	(___lmul@multiplicand+1)^0,w,c
  6880   001266  220A               	addwfc	(___lmul@product+1)^0,f,c
  6881   001268  5007               	movf	(___lmul@multiplicand+2)^0,w,c
  6882   00126A  220B               	addwfc	(___lmul@product+2)^0,f,c
  6883   00126C  5008               	movf	(___lmul@multiplicand+3)^0,w,c
  6884   00126E  220C               	addwfc	(___lmul@product+3)^0,f,c
  6885   001270                     i2l3242:
  6886   001270  90D8               	bcf	status,0,c
  6887   001272  3605               	rlcf	___lmul@multiplicand^0,f,c
  6888   001274  3606               	rlcf	(___lmul@multiplicand+1)^0,f,c
  6889   001276  3607               	rlcf	(___lmul@multiplicand+2)^0,f,c
  6890   001278  3608               	rlcf	(___lmul@multiplicand+3)^0,f,c
  6891   00127A  90D8               	bcf	status,0,c
  6892   00127C  3204               	rrcf	(___lmul@multiplier+3)^0,f,c
  6893   00127E  3203               	rrcf	(___lmul@multiplier+2)^0,f,c
  6894   001280  3202               	rrcf	(___lmul@multiplier+1)^0,f,c
  6895   001282  3201               	rrcf	___lmul@multiplier^0,f,c
  6896   001284  5001               	movf	___lmul@multiplier^0,w,c
  6897   001286  1002               	iorwf	(___lmul@multiplier+1)^0,w,c
  6898   001288  1003               	iorwf	(___lmul@multiplier+2)^0,w,c
  6899   00128A  1004               	iorwf	(___lmul@multiplier+3)^0,w,c
  6900   00128C  A4D8               	btfss	status,2,c
  6901   00128E  D7E6               	goto	i2l3238
  6902   001290  C009  F001         	movff	___lmul@product,?___lmul
  6903   001294  C00A  F002         	movff	___lmul@product+1,?___lmul+1
  6904   001298  C00B  F003         	movff	___lmul@product+2,?___lmul+2
  6905   00129C  C00C  F004         	movff	___lmul@product+3,?___lmul+3
  6906   0012A0  0012               	return		;funcret
  6907   0012A2                     __end_of___lmul:
  6908                           	callstack 0
  6909                           
  6910 ;; *************** function ___lldiv *****************
  6911 ;; Defined at:
  6912 ;;		line 7 in file "C:\Program Files\Microchip\xc8\v2.50\pic\sources\c90\common\__lldiv.c"
  6913 ;; Parameters:    Size  Location     Type
  6914 ;;  dividend        4   12[COMRAM] unsigned long 
  6915 ;;  divisor         4   16[COMRAM] unsigned long 
  6916 ;; Auto vars:     Size  Location     Type
  6917 ;;  quotient        4   20[COMRAM] unsigned long 
  6918 ;;  counter         1   24[COMRAM] unsigned char 
  6919 ;; Return value:  Size  Location     Type
  6920 ;;                  4   12[COMRAM] unsigned long 
  6921 ;; Registers used:
  6922 ;;		wreg, status,2, status,0
  6923 ;; Tracked objects:
  6924 ;;		On entry : 0/0
  6925 ;;		On exit  : 0/0
  6926 ;;		Unchanged: 0/0
  6927 ;; Data sizes:     COMRAM   BANK0   BANK1   BANK2   BANK3   BANK4   BANK5   BANK6   BANK7
  6928 ;;      Params:         8       0       0       0       0       0       0       0       0
  6929 ;;      Locals:         5       0       0       0       0       0       0       0       0
  6930 ;;      Temps:          0       0       0       0       0       0       0       0       0
  6931 ;;      Totals:        13       0       0       0       0       0       0       0       0
  6932 ;;Total ram usage:       13 bytes
  6933 ;; Hardware stack levels used: 1
  6934 ;; This function calls:
  6935 ;;		Nothing
  6936 ;; This function is called by:
  6937 ;;		_PWM_SetPercent
  6938 ;;		_ISR
  6939 ;; This function uses a non-reentrant model
  6940 ;;
  6941                           
  6942                           	psect	text39
  6943   000F7E                     __ptext39:
  6944                           	callstack 0
  6945   000F7E                     ___lldiv:
  6946                           	callstack 22
  6947                           
  6948                           ;incstack = 0
  6949   000F7E  0E00               	movlw	0
  6950   000F80  6E15               	movwf	___lldiv@quotient^0,c
  6951   000F82  0E00               	movlw	0
  6952   000F84  6E16               	movwf	(___lldiv@quotient+1)^0,c
  6953   000F86  0E00               	movlw	0
  6954   000F88  6E17               	movwf	(___lldiv@quotient+2)^0,c
  6955   000F8A  0E00               	movlw	0
  6956   000F8C  6E18               	movwf	(___lldiv@quotient+3)^0,c
  6957   000F8E  5011               	movf	___lldiv@divisor^0,w,c
  6958   000F90  1012               	iorwf	(___lldiv@divisor+1)^0,w,c
  6959   000F92  1013               	iorwf	(___lldiv@divisor+2)^0,w,c
  6960   000F94  1014               	iorwf	(___lldiv@divisor+3)^0,w,c
  6961   000F96  B4D8               	btfsc	status,2,c
  6962   000F98  D02A               	goto	i2l690
  6963   000F9A  0E01               	movlw	1
  6964   000F9C  6E19               	movwf	___lldiv@counter^0,c
  6965   000F9E  D006               	goto	i2l3254
  6966   000FA0                     i2l3252:
  6967   000FA0  90D8               	bcf	status,0,c
  6968   000FA2  3611               	rlcf	___lldiv@divisor^0,f,c
  6969   000FA4  3612               	rlcf	(___lldiv@divisor+1)^0,f,c
  6970   000FA6  3613               	rlcf	(___lldiv@divisor+2)^0,f,c
  6971   000FA8  3614               	rlcf	(___lldiv@divisor+3)^0,f,c
  6972   000FAA  2A19               	incf	___lldiv@counter^0,f,c
  6973   000FAC                     i2l3254:
  6974   000FAC  AE14               	btfss	(___lldiv@divisor+3)^0,7,c
  6975   000FAE  D7F8               	goto	i2l3252
  6976   000FB0                     i2u188_40:
  6977   000FB0  90D8               	bcf	status,0,c
  6978   000FB2  3615               	rlcf	___lldiv@quotient^0,f,c
  6979   000FB4  3616               	rlcf	(___lldiv@quotient+1)^0,f,c
  6980   000FB6  3617               	rlcf	(___lldiv@quotient+2)^0,f,c
  6981   000FB8  3618               	rlcf	(___lldiv@quotient+3)^0,f,c
  6982   000FBA  5011               	movf	___lldiv@divisor^0,w,c
  6983   000FBC  5C0D               	subwf	___lldiv@dividend^0,w,c
  6984   000FBE  5012               	movf	(___lldiv@divisor+1)^0,w,c
  6985   000FC0  580E               	subwfb	(___lldiv@dividend+1)^0,w,c
  6986   000FC2  5013               	movf	(___lldiv@divisor+2)^0,w,c
  6987   000FC4  580F               	subwfb	(___lldiv@dividend+2)^0,w,c
  6988   000FC6  5014               	movf	(___lldiv@divisor+3)^0,w,c
  6989   000FC8  5810               	subwfb	(___lldiv@dividend+3)^0,w,c
  6990   000FCA  A0D8               	btfss	status,0,c
  6991   000FCC  D009               	goto	i2l3264
  6992   000FCE  5011               	movf	___lldiv@divisor^0,w,c
  6993   000FD0  5E0D               	subwf	___lldiv@dividend^0,f,c
  6994   000FD2  5012               	movf	(___lldiv@divisor+1)^0,w,c
  6995   000FD4  5A0E               	subwfb	(___lldiv@dividend+1)^0,f,c
  6996   000FD6  5013               	movf	(___lldiv@divisor+2)^0,w,c
  6997   000FD8  5A0F               	subwfb	(___lldiv@dividend+2)^0,f,c
  6998   000FDA  5014               	movf	(___lldiv@divisor+3)^0,w,c
  6999   000FDC  5A10               	subwfb	(___lldiv@dividend+3)^0,f,c
  7000   000FDE  8015               	bsf	___lldiv@quotient^0,0,c
  7001   000FE0                     i2l3264:
  7002   000FE0  90D8               	bcf	status,0,c
  7003   000FE2  3214               	rrcf	(___lldiv@divisor+3)^0,f,c
  7004   000FE4  3213               	rrcf	(___lldiv@divisor+2)^0,f,c
  7005   000FE6  3212               	rrcf	(___lldiv@divisor+1)^0,f,c
  7006   000FE8  3211               	rrcf	___lldiv@divisor^0,f,c
  7007   000FEA  2E19               	decfsz	___lldiv@counter^0,f,c
  7008   000FEC  D7E1               	goto	i2u188_40
  7009   000FEE                     i2l690:
  7010   000FEE  C015  F00D         	movff	___lldiv@quotient,?___lldiv
  7011   000FF2  C016  F00E         	movff	___lldiv@quotient+1,?___lldiv+1
  7012   000FF6  C017  F00F         	movff	___lldiv@quotient+2,?___lldiv+2
  7013   000FFA  C018  F010         	movff	___lldiv@quotient+3,?___lldiv+3
  7014   000FFE  0012               	return		;funcret
  7015   001000                     __end_of___lldiv:
  7016                           	callstack 0
  7017                           
  7018 ;; *************** function _Motor_Reversa *****************
  7019 ;; Defined at:
  7020 ;;		line 747 in file "Lab6.c"
  7021 ;; Parameters:    Size  Location     Type
  7022 ;;		None
  7023 ;; Auto vars:     Size  Location     Type
  7024 ;;		None
  7025 ;; Return value:  Size  Location     Type
  7026 ;;                  1    wreg      void 
  7027 ;; Registers used:
  7028 ;;		wreg, status,2, status,0, cstack
  7029 ;; Tracked objects:
  7030 ;;		On entry : 0/0
  7031 ;;		On exit  : 0/0
  7032 ;;		Unchanged: 0/0
  7033 ;; Data sizes:     COMRAM   BANK0   BANK1   BANK2   BANK3   BANK4   BANK5   BANK6   BANK7
  7034 ;;      Params:         0       0       0       0       0       0       0       0       0
  7035 ;;      Locals:         0       0       0       0       0       0       0       0       0
  7036 ;;      Temps:          0       0       0       0       0       0       0       0       0
  7037 ;;      Totals:         0       0       0       0       0       0       0       0       0
  7038 ;;Total ram usage:        0 bytes
  7039 ;; Hardware stack levels used: 1
  7040 ;; Hardware stack levels required when called: 1
  7041 ;; This function calls:
  7042 ;;		_PWM_Set10bit
  7043 ;; This function is called by:
  7044 ;;		_ISR
  7045 ;; This function uses a non-reentrant model
  7046 ;;
  7047                           
  7048                           	psect	text40
  7049   00182C                     __ptext40:
  7050                           	callstack 0
  7051   00182C                     _Motor_Reversa:
  7052                           	callstack 21
  7053                           
  7054                           ;Lab6.c: 748: modoReversa = 1;
  7055                           
  7056                           ;incstack = 0
  7057   00182C  0E01               	movlw	1
  7058   00182E  6E3D               	movwf	_modoReversa^0,c
  7059                           
  7060                           ;Lab6.c: 749: PWM_Set10bit(0);
  7061   001830  0E00               	movlw	0
  7062   001832  6E02               	movwf	(PWM_Set10bit@duty10+1)^0,c
  7063   001834  0E00               	movlw	0
  7064   001836  6E01               	movwf	PWM_Set10bit@duty10^0,c
  7065   001838  EC51  F009         	call	_PWM_Set10bit	;wreg free
  7066                           
  7067                           ;Lab6.c: 750: LATA6 = 1;
  7068   00183C  8C89               	bsf	3977,6,c	;volatile
  7069   00183E  0012               	return		;funcret
  7070   001840                     __end_of_Motor_Reversa:
  7071                           	callstack 0
  7072                           
  7073 ;; *************** function _Motor_Paro *****************
  7074 ;; Defined at:
  7075 ;;		line 753 in file "Lab6.c"
  7076 ;; Parameters:    Size  Location     Type
  7077 ;;		None
  7078 ;; Auto vars:     Size  Location     Type
  7079 ;;		None
  7080 ;; Return value:  Size  Location     Type
  7081 ;;                  1    wreg      void 
  7082 ;; Registers used:
  7083 ;;		wreg, status,2, status,0, cstack
  7084 ;; Tracked objects:
  7085 ;;		On entry : 0/0
  7086 ;;		On exit  : 0/0
  7087 ;;		Unchanged: 0/0
  7088 ;; Data sizes:     COMRAM   BANK0   BANK1   BANK2   BANK3   BANK4   BANK5   BANK6   BANK7
  7089 ;;      Params:         0       0       0       0       0       0       0       0       0
  7090 ;;      Locals:         0       0       0       0       0       0       0       0       0
  7091 ;;      Temps:          0       0       0       0       0       0       0       0       0
  7092 ;;      Totals:         0       0       0       0       0       0       0       0       0
  7093 ;;Total ram usage:        0 bytes
  7094 ;; Hardware stack levels used: 1
  7095 ;; Hardware stack levels required when called: 1
  7096 ;; This function calls:
  7097 ;;		_PWM_Set10bit
  7098 ;; This function is called by:
  7099 ;;		_ISR
  7100 ;; This function uses a non-reentrant model
  7101 ;;
  7102                           
  7103                           	psect	text41
  7104   001878                     __ptext41:
  7105                           	callstack 0
  7106   001878                     _Motor_Paro:
  7107                           	callstack 21
  7108                           
  7109                           ;Lab6.c: 754: modoReversa = 0;
  7110                           
  7111                           ;incstack = 0
  7112   001878  6A3D               	clrf	_modoReversa^0,c
  7113                           
  7114                           ;Lab6.c: 755: PWM_Set10bit(0);
  7115   00187A  0E00               	movlw	0
  7116   00187C  6E02               	movwf	(PWM_Set10bit@duty10+1)^0,c
  7117   00187E  0E00               	movlw	0
  7118   001880  6E01               	movwf	PWM_Set10bit@duty10^0,c
  7119   001882  EC51  F009         	call	_PWM_Set10bit	;wreg free
  7120                           
  7121                           ;Lab6.c: 756: LATA6 = 0;
  7122   001886  9C89               	bcf	3977,6,c	;volatile
  7123   001888  0012               	return		;funcret
  7124   00188A                     __end_of_Motor_Paro:
  7125                           	callstack 0
  7126                           
  7127 ;; *************** function _PWM_Set10bit *****************
  7128 ;; Defined at:
  7129 ;;		line 81 in file "Lab6.c"
  7130 ;; Parameters:    Size  Location     Type
  7131 ;;  duty10          2    0[COMRAM] unsigned int 
  7132 ;; Auto vars:     Size  Location     Type
  7133 ;;		None
  7134 ;; Return value:  Size  Location     Type
  7135 ;;                  1    wreg      void 
  7136 ;; Registers used:
  7137 ;;		wreg, status,2, status,0
  7138 ;; Tracked objects:
  7139 ;;		On entry : 0/0
  7140 ;;		On exit  : 0/0
  7141 ;;		Unchanged: 0/0
  7142 ;; Data sizes:     COMRAM   BANK0   BANK1   BANK2   BANK3   BANK4   BANK5   BANK6   BANK7
  7143 ;;      Params:         2       0       0       0       0       0       0       0       0
  7144 ;;      Locals:         0       0       0       0       0       0       0       0       0
  7145 ;;      Temps:          2       0       0       0       0       0       0       0       0
  7146 ;;      Totals:         4       0       0       0       0       0       0       0       0
  7147 ;;Total ram usage:        4 bytes
  7148 ;; Hardware stack levels used: 1
  7149 ;; This function calls:
  7150 ;;		Nothing
  7151 ;; This function is called by:
  7152 ;;		_PWM_SetPercent
  7153 ;;		_ISR
  7154 ;;		_Motor_Reversa
  7155 ;;		_Motor_Paro
  7156 ;; This function uses a non-reentrant model
  7157 ;;
  7158                           
  7159                           	psect	text42
  7160   0012A2                     __ptext42:
  7161                           	callstack 0
  7162   0012A2                     _PWM_Set10bit:
  7163                           	callstack 21
  7164                           
  7165                           ;Lab6.c: 83: if(duty10 > 1023) duty10 = 1023;
  7166                           
  7167                           ;incstack = 0
  7168   0012A2  0E04               	movlw	4
  7169   0012A4  5C02               	subwf	(PWM_Set10bit@duty10+1)^0,w,c
  7170   0012A6  A0D8               	btfss	status,0,c
  7171   0012A8  D003               	goto	i2l3210
  7172   0012AA  0E03               	movlw	3
  7173   0012AC  6E02               	movwf	(PWM_Set10bit@duty10+1)^0,c
  7174   0012AE  6801               	setf	PWM_Set10bit@duty10^0,c
  7175   0012B0                     i2l3210:
  7176                           
  7177                           ;Lab6.c: 84: CCPR1L = (unsigned char)(duty10 >> 2);
  7178   0012B0  C001  F003         	movff	PWM_Set10bit@duty10,??_PWM_Set10bit
  7179   0012B4  C002  F004         	movff	PWM_Set10bit@duty10+1,??_PWM_Set10bit+1
  7180   0012B8  90D8               	bcf	status,0,c
  7181   0012BA  3204               	rrcf	(??_PWM_Set10bit+1)^0,f,c
  7182   0012BC  3203               	rrcf	??_PWM_Set10bit^0,f,c
  7183   0012BE  90D8               	bcf	status,0,c
  7184   0012C0  3204               	rrcf	(??_PWM_Set10bit+1)^0,f,c
  7185   0012C2  3203               	rrcf	??_PWM_Set10bit^0,f,c
  7186   0012C4  5003               	movf	??_PWM_Set10bit^0,w,c
  7187   0012C6  6EBE               	movwf	190,c	;volatile
  7188                           
  7189                           ;Lab6.c: 85: CCP1CONbits.DC1B1 = (duty10 >> 1) & 1;
  7190   0012C8  C001  F003         	movff	PWM_Set10bit@duty10,??_PWM_Set10bit
  7191   0012CC  90D8               	bcf	status,0,c
  7192   0012CE  3203               	rrcf	??_PWM_Set10bit^0,f,c
  7193   0012D0  0E01               	movlw	1
  7194   0012D2  1603               	andwf	??_PWM_Set10bit^0,f,c
  7195   0012D4  3A03               	swapf	??_PWM_Set10bit^0,f,c
  7196   0012D6  4603               	rlncf	??_PWM_Set10bit^0,f,c
  7197   0012D8  50BD               	movf	189,w,c	;volatile
  7198   0012DA  1803               	xorwf	??_PWM_Set10bit^0,w,c
  7199   0012DC  0BDF               	andlw	-33
  7200   0012DE  1803               	xorwf	??_PWM_Set10bit^0,w,c
  7201   0012E0  6EBD               	movwf	189,c	;volatile
  7202                           
  7203                           ;Lab6.c: 86: CCP1CONbits.DC1B0 = (duty10 >> 0) & 1;
  7204   0012E2  C001  F003         	movff	PWM_Set10bit@duty10,??_PWM_Set10bit
  7205   0012E6  0E01               	movlw	1
  7206   0012E8  1603               	andwf	??_PWM_Set10bit^0,f,c
  7207   0012EA  3A03               	swapf	??_PWM_Set10bit^0,f,c
  7208   0012EC  50BD               	movf	189,w,c	;volatile
  7209   0012EE  1803               	xorwf	??_PWM_Set10bit^0,w,c
  7210   0012F0  0BEF               	andlw	-17
  7211   0012F2  1803               	xorwf	??_PWM_Set10bit^0,w,c
  7212   0012F4  6EBD               	movwf	189,c	;volatile
  7213   0012F6  0012               	return		;funcret
  7214   0012F8                     __end_of_PWM_Set10bit:
  7215                           	callstack 0
  7216                           
  7217 ;; *************** function _Motor_Avance *****************
  7218 ;; Defined at:
  7219 ;;		line 742 in file "Lab6.c"
  7220 ;; Parameters:    Size  Location     Type
  7221 ;;		None
  7222 ;; Auto vars:     Size  Location     Type
  7223 ;;		None
  7224 ;; Return value:  Size  Location     Type
  7225 ;;                  1    wreg      void 
  7226 ;; Registers used:
  7227 ;;		None
  7228 ;; Tracked objects:
  7229 ;;		On entry : 0/0
  7230 ;;		On exit  : 0/0
  7231 ;;		Unchanged: 0/0
  7232 ;; Data sizes:     COMRAM   BANK0   BANK1   BANK2   BANK3   BANK4   BANK5   BANK6   BANK7
  7233 ;;      Params:         0       0       0       0       0       0       0       0       0
  7234 ;;      Locals:         0       0       0       0       0       0       0       0       0
  7235 ;;      Temps:          0       0       0       0       0       0       0       0       0
  7236 ;;      Totals:         0       0       0       0       0       0       0       0       0
  7237 ;;Total ram usage:        0 bytes
  7238 ;; Hardware stack levels used: 1
  7239 ;; This function calls:
  7240 ;;		Nothing
  7241 ;; This function is called by:
  7242 ;;		_ISR
  7243 ;; This function uses a non-reentrant model
  7244 ;;
  7245                           
  7246                           	psect	text43
  7247   001904                     __ptext43:
  7248                           	callstack 0
  7249   001904                     _Motor_Avance:
  7250                           	callstack 22
  7251                           
  7252                           ;Lab6.c: 743: modoReversa = 0;
  7253                           
  7254                           ;incstack = 0
  7255   001904  6A3D               	clrf	_modoReversa^0,c
  7256                           
  7257                           ;Lab6.c: 744: LATA6 = 0;
  7258   001906  9C89               	bcf	3977,6,c	;volatile
  7259   001908  0012               	return		;funcret
  7260   00190A                     __end_of_Motor_Avance:
  7261                           	callstack 0
  7262                           
  7263 ;; *************** function _Conversion *****************
  7264 ;; Defined at:
  7265 ;;		line 660 in file "Lab6.c"
  7266 ;; Parameters:    Size  Location     Type
  7267 ;;  canal           1    wreg     unsigned char 
  7268 ;; Auto vars:     Size  Location     Type
  7269 ;;  canal           1    2[COMRAM] unsigned char 
  7270 ;; Return value:  Size  Location     Type
  7271 ;;                  2    0[COMRAM] unsigned int 
  7272 ;; Registers used:
  7273 ;;		wreg, status,2, status,0
  7274 ;; Tracked objects:
  7275 ;;		On entry : 0/0
  7276 ;;		On exit  : 0/0
  7277 ;;		Unchanged: 0/0
  7278 ;; Data sizes:     COMRAM   BANK0   BANK1   BANK2   BANK3   BANK4   BANK5   BANK6   BANK7
  7279 ;;      Params:         2       0       0       0       0       0       0       0       0
  7280 ;;      Locals:         1       0       0       0       0       0       0       0       0
  7281 ;;      Temps:          0       0       0       0       0       0       0       0       0
  7282 ;;      Totals:         3       0       0       0       0       0       0       0       0
  7283 ;;Total ram usage:        3 bytes
  7284 ;; Hardware stack levels used: 1
  7285 ;; This function calls:
  7286 ;;		Nothing
  7287 ;; This function is called by:
  7288 ;;		_ISR
  7289 ;; This function uses a non-reentrant model
  7290 ;;
  7291                           
  7292                           	psect	text44
  7293   00175C                     __ptext44:
  7294                           	callstack 0
  7295   00175C                     _Conversion:
  7296                           	callstack 22
  7297                           
  7298                           ;incstack = 0
  7299                           ;Conversion@canal stored from wreg
  7300   00175C  6E03               	movwf	Conversion@canal^0,c
  7301                           
  7302                           ;Lab6.c: 661: ADCON0=(canal<<2);
  7303   00175E  4403               	rlncf	Conversion@canal^0,w,c
  7304   001760  46E8               	rlncf	wreg,f,c
  7305   001762  0BFC               	andlw	252
  7306   001764  6EC2               	movwf	194,c	;volatile
  7307                           
  7308                           ;Lab6.c: 662: ADON=1;
  7309   001766  80C2               	bsf	4034,0,c	;volatile
  7310                           
  7311                           ;Lab6.c: 663: GO_DONE=1;
  7312   001768  82C2               	bsf	4034,1,c	;volatile
  7313   00176A                     i2l577:
  7314   00176A  B2C2               	btfsc	4034,1,c	;volatile
  7315   00176C  D7FE               	goto	i2l577
  7316                           
  7317                           ;Lab6.c: 665: return ADRES;
  7318   00176E  CFC3 F001          	movff	4035,?_Conversion	;volatile
  7319   001772  CFC4 F002          	movff	4036,?_Conversion+1	;volatile
  7320   001776  0012               	return		;funcret
  7321   001778                     __end_of_Conversion:
  7322                           	callstack 0
  7323                           
  7324 ;; *************** function _ConfigPregunta *****************
  7325 ;; Defined at:
  7326 ;;		line 636 in file "Lab6.c"
  7327 ;; Parameters:    Size  Location     Type
  7328 ;;		None
  7329 ;; Auto vars:     Size  Location     Type
  7330 ;;		None
  7331 ;; Return value:  Size  Location     Type
  7332 ;;                  1    wreg      void 
  7333 ;; Registers used:
  7334 ;;		wreg, status,2, status,0, prodl, prodh, cstack
  7335 ;; Tracked objects:
  7336 ;;		On entry : 0/0
  7337 ;;		On exit  : 0/0
  7338 ;;		Unchanged: 0/0
  7339 ;; Data sizes:     COMRAM   BANK0   BANK1   BANK2   BANK3   BANK4   BANK5   BANK6   BANK7
  7340 ;;      Params:         0       0       0       0       0       0       0       0       0
  7341 ;;      Locals:         0       0       0       0       0       0       0       0       0
  7342 ;;      Temps:          2       0       0       0       0       0       0       0       0
  7343 ;;      Totals:         2       0       0       0       0       0       0       0       0
  7344 ;;Total ram usage:        2 bytes
  7345 ;; Hardware stack levels used: 1
  7346 ;; Hardware stack levels required when called: 6
  7347 ;; This function calls:
  7348 ;;		i2_EscribeLCD_n8
  7349 ;;		i2_OcultarCursor
  7350 ;; This function is called by:
  7351 ;;		_ISR
  7352 ;; This function uses a non-reentrant model
  7353 ;;
  7354                           
  7355                           	psect	text45
  7356   0011F2                     __ptext45:
  7357                           	callstack 0
  7358   0011F2                     _ConfigPregunta:
  7359                           	callstack 16
  7360                           
  7361                           ;Lab6.c: 637: if(posicion==0 && editor==1){
  7362                           
  7363                           ;incstack = 0
  7364   0011F2  5047               	movf	_posicion^0,w,c
  7365   0011F4  A4D8               	btfss	status,2,c
  7366   0011F6  D00C               	goto	i2l3692
  7367   0011F8  0446               	decf	_editor^0,w,c
  7368   0011FA  A4D8               	btfss	status,2,c
  7369   0011FC  D009               	goto	i2l3692
  7370                           
  7371                           ;Lab6.c: 638: EscribeLCD_n8(Tecla,1);
  7372   0011FE  0E01               	movlw	1
  7373   001200  6E09               	movwf	i2EscribeLCD_n8@b^0,c
  7374   001202  5044               	movf	_Tecla^0,w,c
  7375   001204  ECAA  F006         	call	i2_EscribeLCD_n8
  7376                           
  7377                           ;Lab6.c: 639: Objetivo=Tecla;
  7378   001208  C044  F033         	movff	_Tecla,_Objetivo
  7379   00120C  6A34               	clrf	(_Objetivo+1)^0,c
  7380                           
  7381                           ;Lab6.c: 640: }else if(posicion==1 && editor==1){
  7382   00120E  D01C               	goto	i2l3702
  7383   001210                     i2l3692:
  7384   001210  0447               	decf	_posicion^0,w,c
  7385   001212  A4D8               	btfss	status,2,c
  7386   001214  D019               	goto	i2l3702
  7387   001216  0446               	decf	_editor^0,w,c
  7388   001218  A4D8               	btfss	status,2,c
  7389   00121A  D016               	goto	i2l3702
  7390                           
  7391                           ;Lab6.c: 641: EscribeLCD_n8(Tecla,1);
  7392   00121C  0E01               	movlw	1
  7393   00121E  6E09               	movwf	i2EscribeLCD_n8@b^0,c
  7394   001220  5044               	movf	_Tecla^0,w,c
  7395   001222  ECAA  F006         	call	i2_EscribeLCD_n8
  7396                           
  7397                           ;Lab6.c: 642: Objetivo=Objetivo*10+Tecla;
  7398   001226  0E0A               	movlw	10
  7399   001228  0233               	mulwf	_Objetivo^0,c
  7400   00122A  CFF3 F00E          	movff	prodl,??_ConfigPregunta
  7401   00122E  CFF4 F00F          	movff	prodh,??_ConfigPregunta+1
  7402   001232  0234               	mulwf	(_Objetivo+1)^0,c
  7403   001234  50F3               	movf	prodl,w,c
  7404   001236  260F               	addwf	(??_ConfigPregunta+1)^0,f,c
  7405   001238  5044               	movf	_Tecla^0,w,c
  7406   00123A  240E               	addwf	??_ConfigPregunta^0,w,c
  7407   00123C  6E33               	movwf	_Objetivo^0,c
  7408   00123E  0E00               	movlw	0
  7409   001240  200F               	addwfc	(??_ConfigPregunta+1)^0,w,c
  7410   001242  6E34               	movwf	(_Objetivo+1)^0,c
  7411                           
  7412                           ;Lab6.c: 643: OcultarCursor();
  7413   001244  EC76  F00C         	call	i2_OcultarCursor	;wreg free
  7414   001248                     i2l3702:
  7415                           
  7416                           ;Lab6.c: 644: };Lab6.c: 645: posicion++;
  7417   001248  2A47               	incf	_posicion^0,f,c
  7418   00124A  0012               	return		;funcret
  7419   00124C                     __end_of_ConfigPregunta:
  7420                           	callstack 0
  7421                           
  7422 ;; *************** function i2_OcultarCursor *****************
  7423 ;; Defined at:
  7424 ;;		line 323 in file "LibLCDXC8.h"
  7425 ;; Parameters:    Size  Location     Type
  7426 ;;		None
  7427 ;; Auto vars:     Size  Location     Type
  7428 ;;		None
  7429 ;; Return value:  Size  Location     Type
  7430 ;;                  1    wreg      void 
  7431 ;; Registers used:
  7432 ;;		wreg, status,2, status,0, cstack
  7433 ;; Tracked objects:
  7434 ;;		On entry : 0/0
  7435 ;;		On exit  : 0/0
  7436 ;;		Unchanged: 0/0
  7437 ;; Data sizes:     COMRAM   BANK0   BANK1   BANK2   BANK3   BANK4   BANK5   BANK6   BANK7
  7438 ;;      Params:         0       0       0       0       0       0       0       0       0
  7439 ;;      Locals:         0       0       0       0       0       0       0       0       0
  7440 ;;      Temps:          0       0       0       0       0       0       0       0       0
  7441 ;;      Totals:         0       0       0       0       0       0       0       0       0
  7442 ;;Total ram usage:        0 bytes
  7443 ;; Hardware stack levels used: 1
  7444 ;; Hardware stack levels required when called: 5
  7445 ;; This function calls:
  7446 ;;		i2_ComandoLCD
  7447 ;; This function is called by:
  7448 ;;		_ISR
  7449 ;;		_ConfigPregunta
  7450 ;; This function uses a non-reentrant model
  7451 ;;
  7452                           
  7453                           	psect	text46
  7454   0018EC                     __ptext46:
  7455                           	callstack 0
  7456   0018EC                     i2_OcultarCursor:
  7457                           	callstack 17
  7458                           
  7459                           ;LibLCDXC8.h: 324: ComandoLCD(0xC);
  7460                           
  7461                           ;incstack = 0
  7462   0018EC  0E0C               	movlw	12
  7463   0018EE  EC20  F00B         	call	i2_ComandoLCD
  7464   0018F2  0012               	return		;funcret
  7465   0018F4                     __end_ofi2_OcultarCursor:
  7466                           	callstack 0
  7467                           
  7468 ;; *************** function i2_EscribeLCD_n8 *****************
  7469 ;; Defined at:
  7470 ;;		line 149 in file "LibLCDXC8.h"
  7471 ;; Parameters:    Size  Location     Type
  7472 ;;  a               1    wreg     unsigned char 
  7473 ;;  b               1    8[COMRAM] unsigned char 
  7474 ;; Auto vars:     Size  Location     Type
  7475 ;;  a               1   12[COMRAM] unsigned char 
  7476 ;;  unidad          1   11[COMRAM] unsigned char 
  7477 ;;  decena          1   10[COMRAM] unsigned char 
  7478 ;;  centena         1    9[COMRAM] unsigned char 
  7479 ;; Return value:  Size  Location     Type
  7480 ;;                  1    wreg      void 
  7481 ;; Registers used:
  7482 ;;		wreg, status,2, status,0, cstack
  7483 ;; Tracked objects:
  7484 ;;		On entry : 0/0
  7485 ;;		On exit  : 0/0
  7486 ;;		Unchanged: 0/0
  7487 ;; Data sizes:     COMRAM   BANK0   BANK1   BANK2   BANK3   BANK4   BANK5   BANK6   BANK7
  7488 ;;      Params:         1       0       0       0       0       0       0       0       0
  7489 ;;      Locals:         4       0       0       0       0       0       0       0       0
  7490 ;;      Temps:          0       0       0       0       0       0       0       0       0
  7491 ;;      Totals:         5       0       0       0       0       0       0       0       0
  7492 ;;Total ram usage:        5 bytes
  7493 ;; Hardware stack levels used: 1
  7494 ;; Hardware stack levels required when called: 2
  7495 ;; This function calls:
  7496 ;;		i2_EnviaDato
  7497 ;;		i2_HabilitaLCD
  7498 ;;		i2_RetardoLCD
  7499 ;;		i2___lbdiv
  7500 ;;		i2___lbmod
  7501 ;; This function is called by:
  7502 ;;		_ISR
  7503 ;;		_ConfigPregunta
  7504 ;; This function uses a non-reentrant model
  7505 ;;
  7506                           
  7507                           	psect	text47
  7508   000D54                     __ptext47:
  7509                           	callstack 0
  7510   000D54                     i2_EscribeLCD_n8:
  7511                           	callstack 20
  7512                           
  7513                           ;incstack = 0
  7514                           ;i2EscribeLCD_n8@a stored from wreg
  7515   000D54  6E0D               	movwf	i2EscribeLCD_n8@a^0,c
  7516                           
  7517                           ;LibLCDXC8.h: 154: unsigned char centena,decena,unidad;;LibLCDXC8.h: 155: LATA4=1;
  7518   000D56  8889               	bsf	3977,4,c	;volatile
  7519                           
  7520                           ;LibLCDXC8.h: 156: switch(b){
  7521   000D58  D065               	goto	i2l3392
  7522   000D5A                     i2l3360:
  7523   000D5A  0E0A               	movlw	10
  7524   000D5C  6E01               	movwf	i2___lbmod@divisor^0,c
  7525   000D5E  500D               	movf	i2EscribeLCD_n8@a^0,w,c
  7526   000D60  EC79  F00B         	call	i2___lbmod
  7527   000D64  6E0C               	movwf	i2EscribeLCD_n8@unidad^0,c
  7528                           
  7529                           ;LibLCDXC8.h: 158: EnviaDato(unidad+48);
  7530   000D66  500C               	movf	i2EscribeLCD_n8@unidad^0,w,c
  7531   000D68  0F30               	addlw	48
  7532   000D6A  EC6A  F00A         	call	i2_EnviaDato
  7533                           
  7534                           ;LibLCDXC8.h: 159: HabilitaLCD();
  7535   000D6E  EC54  F00C         	call	i2_HabilitaLCD	;wreg free
  7536                           
  7537                           ;LibLCDXC8.h: 160: RetardoLCD(4);
  7538   000D72  0E04               	movlw	4
  7539   000D74  EC7C  F009         	call	i2_RetardoLCD
  7540                           
  7541                           ;LibLCDXC8.h: 161: break;
  7542   000D78  0012               	return	
  7543   000D7A                     i2l3366:
  7544   000D7A  0E0A               	movlw	10
  7545   000D7C  6E05               	movwf	i2___lbdiv@divisor^0,c
  7546   000D7E  0E64               	movlw	100
  7547   000D80  6E01               	movwf	i2___lbmod@divisor^0,c
  7548   000D82  500D               	movf	i2EscribeLCD_n8@a^0,w,c
  7549   000D84  EC79  F00B         	call	i2___lbmod
  7550   000D88  ECE9  F00A         	call	i2___lbdiv
  7551   000D8C  6E0B               	movwf	i2EscribeLCD_n8@decena^0,c
  7552                           
  7553                           ;LibLCDXC8.h: 163: unidad=a%10;
  7554   000D8E  0E0A               	movlw	10
  7555   000D90  6E01               	movwf	i2___lbmod@divisor^0,c
  7556   000D92  500D               	movf	i2EscribeLCD_n8@a^0,w,c
  7557   000D94  EC79  F00B         	call	i2___lbmod
  7558   000D98  6E0C               	movwf	i2EscribeLCD_n8@unidad^0,c
  7559                           
  7560                           ;LibLCDXC8.h: 164: EnviaDato(decena+48);
  7561   000D9A  500B               	movf	i2EscribeLCD_n8@decena^0,w,c
  7562   000D9C  0F30               	addlw	48
  7563   000D9E  EC6A  F00A         	call	i2_EnviaDato
  7564                           
  7565                           ;LibLCDXC8.h: 165: HabilitaLCD();
  7566   000DA2  EC54  F00C         	call	i2_HabilitaLCD	;wreg free
  7567                           
  7568                           ;LibLCDXC8.h: 166: RetardoLCD(4);
  7569   000DA6  0E04               	movlw	4
  7570   000DA8  EC7C  F009         	call	i2_RetardoLCD
  7571                           
  7572                           ;LibLCDXC8.h: 167: EnviaDato(unidad+48);
  7573   000DAC  500C               	movf	i2EscribeLCD_n8@unidad^0,w,c
  7574   000DAE  0F30               	addlw	48
  7575   000DB0  EC6A  F00A         	call	i2_EnviaDato
  7576                           
  7577                           ;LibLCDXC8.h: 168: HabilitaLCD();
  7578   000DB4  EC54  F00C         	call	i2_HabilitaLCD	;wreg free
  7579                           
  7580                           ;LibLCDXC8.h: 169: RetardoLCD(4);
  7581   000DB8  0E04               	movlw	4
  7582   000DBA  EC7C  F009         	call	i2_RetardoLCD
  7583                           
  7584                           ;LibLCDXC8.h: 170: break;
  7585   000DBE  0012               	return	
  7586   000DC0                     i2l3376:
  7587   000DC0  0E64               	movlw	100
  7588   000DC2  6E05               	movwf	i2___lbdiv@divisor^0,c
  7589   000DC4  500D               	movf	i2EscribeLCD_n8@a^0,w,c
  7590   000DC6  ECE9  F00A         	call	i2___lbdiv
  7591   000DCA  6E0A               	movwf	i2EscribeLCD_n8@centena^0,c
  7592                           
  7593                           ;LibLCDXC8.h: 172: decena=(a%100)/10;
  7594   000DCC  0E0A               	movlw	10
  7595   000DCE  6E05               	movwf	i2___lbdiv@divisor^0,c
  7596   000DD0  0E64               	movlw	100
  7597   000DD2  6E01               	movwf	i2___lbmod@divisor^0,c
  7598   000DD4  500D               	movf	i2EscribeLCD_n8@a^0,w,c
  7599   000DD6  EC79  F00B         	call	i2___lbmod
  7600   000DDA  ECE9  F00A         	call	i2___lbdiv
  7601   000DDE  6E0B               	movwf	i2EscribeLCD_n8@decena^0,c
  7602                           
  7603                           ;LibLCDXC8.h: 173: unidad=a%10;
  7604   000DE0  0E0A               	movlw	10
  7605   000DE2  6E01               	movwf	i2___lbmod@divisor^0,c
  7606   000DE4  500D               	movf	i2EscribeLCD_n8@a^0,w,c
  7607   000DE6  EC79  F00B         	call	i2___lbmod
  7608   000DEA  6E0C               	movwf	i2EscribeLCD_n8@unidad^0,c
  7609                           
  7610                           ;LibLCDXC8.h: 174: EnviaDato(centena+48);
  7611   000DEC  500A               	movf	i2EscribeLCD_n8@centena^0,w,c
  7612   000DEE  0F30               	addlw	48
  7613   000DF0  EC6A  F00A         	call	i2_EnviaDato
  7614                           
  7615                           ;LibLCDXC8.h: 175: HabilitaLCD();
  7616   000DF4  EC54  F00C         	call	i2_HabilitaLCD	;wreg free
  7617                           
  7618                           ;LibLCDXC8.h: 176: RetardoLCD(4);
  7619   000DF8  0E04               	movlw	4
  7620   000DFA  EC7C  F009         	call	i2_RetardoLCD
  7621                           
  7622                           ;LibLCDXC8.h: 177: EnviaDato(decena+48);
  7623   000DFE  500B               	movf	i2EscribeLCD_n8@decena^0,w,c
  7624   000E00  0F30               	addlw	48
  7625   000E02  EC6A  F00A         	call	i2_EnviaDato
  7626                           
  7627                           ;LibLCDXC8.h: 178: HabilitaLCD();
  7628   000E06  EC54  F00C         	call	i2_HabilitaLCD	;wreg free
  7629                           
  7630                           ;LibLCDXC8.h: 179: RetardoLCD(4);
  7631   000E0A  0E04               	movlw	4
  7632   000E0C  EC7C  F009         	call	i2_RetardoLCD
  7633                           
  7634                           ;LibLCDXC8.h: 180: EnviaDato(unidad+48);
  7635   000E10  500C               	movf	i2EscribeLCD_n8@unidad^0,w,c
  7636   000E12  0F30               	addlw	48
  7637   000E14  EC6A  F00A         	call	i2_EnviaDato
  7638                           
  7639                           ;LibLCDXC8.h: 181: HabilitaLCD();
  7640   000E18  EC54  F00C         	call	i2_HabilitaLCD	;wreg free
  7641                           
  7642                           ;LibLCDXC8.h: 182: RetardoLCD(4);
  7643   000E1C  0E04               	movlw	4
  7644   000E1E  EC7C  F009         	call	i2_RetardoLCD
  7645                           
  7646                           ;LibLCDXC8.h: 183: break;
  7647   000E22  0012               	return	
  7648   000E24                     i2l3392:
  7649   000E24  5009               	movf	i2EscribeLCD_n8@b^0,w,c
  7650                           
  7651                           ; Switch size 1, requested type "simple"
  7652                           ; Number of cases is 3, Range of values is 1 to 3
  7653                           ; switch strategies available:
  7654                           ; Name         Instructions Cycles
  7655                           ; simple_byte           10     6 (average)
  7656                           ;	Chosen strategy is simple_byte
  7657   000E26  0A01               	xorlw	1	; case 1
  7658   000E28  B4D8               	btfsc	status,2,c
  7659   000E2A  D797               	goto	i2l3360
  7660   000E2C  0A03               	xorlw	3	; case 2
  7661   000E2E  B4D8               	btfsc	status,2,c
  7662   000E30  D7A4               	goto	i2l3366
  7663   000E32  0A01               	xorlw	1	; case 3
  7664   000E34  A4D8               	btfss	status,2,c
  7665   000E36  0012               	return	
  7666   000E38  D7C3               	goto	i2l3376
  7667   000E3A                     __end_ofi2_EscribeLCD_n8:
  7668                           	callstack 0
  7669                           
  7670 ;; *************** function i2___lbmod *****************
  7671 ;; Defined at:
  7672 ;;		line 4 in file "C:\Program Files\Microchip\xc8\v2.50\pic\sources\c90\common\lbmod.c"
  7673 ;; Parameters:    Size  Location     Type
  7674 ;;  dividend        1    wreg     unsigned char 
  7675 ;;  divisor         1    0[COMRAM] unsigned char 
  7676 ;; Auto vars:     Size  Location     Type
  7677 ;;  dividend        1    1[COMRAM] unsigned char 
  7678 ;;  rem             1    3[COMRAM] unsigned char 
  7679 ;;  counter         1    2[COMRAM] unsigned char 
  7680 ;; Return value:  Size  Location     Type
  7681 ;;                  1    wreg      unsigned char 
  7682 ;; Registers used:
  7683 ;;		wreg, status,2, status,0
  7684 ;; Tracked objects:
  7685 ;;		On entry : 0/0
  7686 ;;		On exit  : 0/0
  7687 ;;		Unchanged: 0/0
  7688 ;; Data sizes:     COMRAM   BANK0   BANK1   BANK2   BANK3   BANK4   BANK5   BANK6   BANK7
  7689 ;;      Params:         1       0       0       0       0       0       0       0       0
  7690 ;;      Locals:         3       0       0       0       0       0       0       0       0
  7691 ;;      Temps:          0       0       0       0       0       0       0       0       0
  7692 ;;      Totals:         4       0       0       0       0       0       0       0       0
  7693 ;;Total ram usage:        4 bytes
  7694 ;; Hardware stack levels used: 1
  7695 ;; This function calls:
  7696 ;;		Nothing
  7697 ;; This function is called by:
  7698 ;;		i2_EscribeLCD_n8
  7699 ;; This function uses a non-reentrant model
  7700 ;;
  7701                           
  7702                           	psect	text48
  7703   0016F2                     __ptext48:
  7704                           	callstack 0
  7705   0016F2                     i2___lbmod:
  7706                           	callstack 21
  7707                           
  7708                           ;incstack = 0
  7709                           ;i2___lbmod@dividend stored from wreg
  7710   0016F2  6E02               	movwf	i2___lbmod@dividend^0,c
  7711   0016F4  0E08               	movlw	8
  7712   0016F6  6E03               	movwf	i2___lbmod@counter^0,c
  7713   0016F8  6A04               	clrf	i2___lbmod@rem^0,c
  7714   0016FA                     i2l3084:
  7715   0016FA  90D8               	bcf	status,0,c
  7716   0016FC  3402               	rlcf	i2___lbmod@dividend^0,w,c
  7717   0016FE  3404               	rlcf	i2___lbmod@rem^0,w,c
  7718   001700  6E04               	movwf	i2___lbmod@rem^0,c
  7719   001702  90D8               	bcf	status,0,c
  7720   001704  3602               	rlcf	i2___lbmod@dividend^0,f,c
  7721   001706  5001               	movf	i2___lbmod@divisor^0,w,c
  7722   001708  5C04               	subwf	i2___lbmod@rem^0,w,c
  7723   00170A  A0D8               	btfss	status,0,c
  7724   00170C  D002               	goto	i2l3092
  7725   00170E  5001               	movf	i2___lbmod@divisor^0,w,c
  7726   001710  5E04               	subwf	i2___lbmod@rem^0,f,c
  7727   001712                     i2l3092:
  7728   001712  2E03               	decfsz	i2___lbmod@counter^0,f,c
  7729   001714  D7F2               	goto	i2l3084
  7730   001716  5004               	movf	i2___lbmod@rem^0,w,c
  7731   001718  0012               	return		;funcret
  7732   00171A                     __end_ofi2___lbmod:
  7733                           	callstack 0
  7734                           
  7735 ;; *************** function i2___lbdiv *****************
  7736 ;; Defined at:
  7737 ;;		line 4 in file "C:\Program Files\Microchip\xc8\v2.50\pic\sources\c90\common\lbdiv.c"
  7738 ;; Parameters:    Size  Location     Type
  7739 ;;  dividend        1    wreg     unsigned char 
  7740 ;;  divisor         1    4[COMRAM] unsigned char 
  7741 ;; Auto vars:     Size  Location     Type
  7742 ;;  dividend        1    5[COMRAM] unsigned char 
  7743 ;;  quotient        1    7[COMRAM] unsigned char 
  7744 ;;  counter         1    6[COMRAM] unsigned char 
  7745 ;; Return value:  Size  Location     Type
  7746 ;;                  1    wreg      unsigned char 
  7747 ;; Registers used:
  7748 ;;		wreg, status,2, status,0
  7749 ;; Tracked objects:
  7750 ;;		On entry : 0/0
  7751 ;;		On exit  : 0/0
  7752 ;;		Unchanged: 0/0
  7753 ;; Data sizes:     COMRAM   BANK0   BANK1   BANK2   BANK3   BANK4   BANK5   BANK6   BANK7
  7754 ;;      Params:         1       0       0       0       0       0       0       0       0
  7755 ;;      Locals:         3       0       0       0       0       0       0       0       0
  7756 ;;      Temps:          0       0       0       0       0       0       0       0       0
  7757 ;;      Totals:         4       0       0       0       0       0       0       0       0
  7758 ;;Total ram usage:        4 bytes
  7759 ;; Hardware stack levels used: 1
  7760 ;; This function calls:
  7761 ;;		Nothing
  7762 ;; This function is called by:
  7763 ;;		i2_EscribeLCD_n8
  7764 ;; This function uses a non-reentrant model
  7765 ;;
  7766                           
  7767                           	psect	text49
  7768   0015D2                     __ptext49:
  7769                           	callstack 0
  7770   0015D2                     i2___lbdiv:
  7771                           	callstack 21
  7772                           
  7773                           ;incstack = 0
  7774                           ;i2___lbdiv@dividend stored from wreg
  7775   0015D2  6E06               	movwf	i2___lbdiv@dividend^0,c
  7776   0015D4  6A08               	clrf	i2___lbdiv@quotient^0,c
  7777   0015D6  5005               	movf	i2___lbdiv@divisor^0,w,c
  7778   0015D8  B4D8               	btfsc	status,2,c
  7779   0015DA  D015               	goto	i2l3076
  7780   0015DC  0E01               	movlw	1
  7781   0015DE  6E07               	movwf	i2___lbdiv@counter^0,c
  7782   0015E0  D003               	goto	i2l3064
  7783   0015E2                     i2l3060:
  7784   0015E2  90D8               	bcf	status,0,c
  7785   0015E4  3605               	rlcf	i2___lbdiv@divisor^0,f,c
  7786   0015E6  2A07               	incf	i2___lbdiv@counter^0,f,c
  7787   0015E8                     i2l3064:
  7788   0015E8  AE05               	btfss	i2___lbdiv@divisor^0,7,c
  7789   0015EA  D7FB               	goto	i2l3060
  7790   0015EC                     i2u172_40:
  7791   0015EC  90D8               	bcf	status,0,c
  7792   0015EE  3608               	rlcf	i2___lbdiv@quotient^0,f,c
  7793   0015F0  5005               	movf	i2___lbdiv@divisor^0,w,c
  7794   0015F2  5C06               	subwf	i2___lbdiv@dividend^0,w,c
  7795   0015F4  A0D8               	btfss	status,0,c
  7796   0015F6  D003               	goto	i2l3072
  7797   0015F8  5005               	movf	i2___lbdiv@divisor^0,w,c
  7798   0015FA  5E06               	subwf	i2___lbdiv@dividend^0,f,c
  7799   0015FC  8008               	bsf	i2___lbdiv@quotient^0,0,c
  7800   0015FE                     i2l3072:
  7801   0015FE  90D8               	bcf	status,0,c
  7802   001600  3205               	rrcf	i2___lbdiv@divisor^0,f,c
  7803   001602  2E07               	decfsz	i2___lbdiv@counter^0,f,c
  7804   001604  D7F3               	goto	i2u172_40
  7805   001606                     i2l3076:
  7806   001606  5008               	movf	i2___lbdiv@quotient^0,w,c
  7807   001608  0012               	return		;funcret
  7808   00160A                     __end_ofi2___lbdiv:
  7809                           	callstack 0
  7810                           
  7811 ;; *************** function _Borrar *****************
  7812 ;; Defined at:
  7813 ;;		line 648 in file "Lab6.c"
  7814 ;; Parameters:    Size  Location     Type
  7815 ;;		None
  7816 ;; Auto vars:     Size  Location     Type
  7817 ;;		None
  7818 ;; Return value:  Size  Location     Type
  7819 ;;                  1    wreg      void 
  7820 ;; Registers used:
  7821 ;;		wreg, status,2, status,0, cstack
  7822 ;; Tracked objects:
  7823 ;;		On entry : 0/0
  7824 ;;		On exit  : 0/0
  7825 ;;		Unchanged: 0/0
  7826 ;; Data sizes:     COMRAM   BANK0   BANK1   BANK2   BANK3   BANK4   BANK5   BANK6   BANK7
  7827 ;;      Params:         0       0       0       0       0       0       0       0       0
  7828 ;;      Locals:         0       0       0       0       0       0       0       0       0
  7829 ;;      Temps:          0       0       0       0       0       0       0       0       0
  7830 ;;      Totals:         0       0       0       0       0       0       0       0       0
  7831 ;;Total ram usage:        0 bytes
  7832 ;; Hardware stack levels used: 1
  7833 ;; Hardware stack levels required when called: 6
  7834 ;; This function calls:
  7835 ;;		i2_DireccionaLCD
  7836 ;;		i2_EscribeLCD_c
  7837 ;;		i2_MostrarCursor
  7838 ;; This function is called by:
  7839 ;;		_ISR
  7840 ;; This function uses a non-reentrant model
  7841 ;;
  7842                           
  7843                           	psect	text50
  7844   001672                     __ptext50:
  7845                           	callstack 0
  7846   001672                     _Borrar:
  7847                           	callstack 16
  7848                           
  7849                           ;Lab6.c: 649: if(editor==1){
  7850                           
  7851                           ;incstack = 0
  7852   001672  0446               	decf	_editor^0,w,c
  7853   001674  A4D8               	btfss	status,2,c
  7854   001676  0012               	return	
  7855                           
  7856                           ;Lab6.c: 650: MostrarCursor();
  7857   001678  EC7A  F00C         	call	i2_MostrarCursor	;wreg free
  7858                           
  7859                           ;Lab6.c: 651: Objetivo=0;
  7860   00167C  0E00               	movlw	0
  7861   00167E  6E34               	movwf	(_Objetivo+1)^0,c
  7862   001680  0E00               	movlw	0
  7863   001682  6E33               	movwf	_Objetivo^0,c
  7864                           
  7865                           ;Lab6.c: 652: posicion=0;
  7866   001684  6A47               	clrf	_posicion^0,c
  7867                           
  7868                           ;Lab6.c: 653: DireccionaLCD(0xC7);
  7869   001686  0EC7               	movlw	199
  7870   001688  ECEC  F00B         	call	i2_DireccionaLCD
  7871                           
  7872                           ;Lab6.c: 654: EscribeLCD_c(1);
  7873   00168C  0E01               	movlw	1
  7874   00168E  ECF7  F00B         	call	i2_EscribeLCD_c
  7875                           
  7876                           ;Lab6.c: 655: EscribeLCD_c(1);
  7877   001692  0E01               	movlw	1
  7878   001694  ECF7  F00B         	call	i2_EscribeLCD_c
  7879                           
  7880                           ;Lab6.c: 656: DireccionaLCD(0xC7);
  7881   001698  0EC7               	movlw	199
  7882   00169A  ECEC  F00B         	call	i2_DireccionaLCD
  7883   00169E  0012               	return		;funcret
  7884   0016A0                     __end_of_Borrar:
  7885                           	callstack 0
  7886                           
  7887 ;; *************** function i2_MostrarCursor *****************
  7888 ;; Defined at:
  7889 ;;		line 326 in file "LibLCDXC8.h"
  7890 ;; Parameters:    Size  Location     Type
  7891 ;;		None
  7892 ;; Auto vars:     Size  Location     Type
  7893 ;;		None
  7894 ;; Return value:  Size  Location     Type
  7895 ;;                  1    wreg      void 
  7896 ;; Registers used:
  7897 ;;		wreg, status,2, status,0, cstack
  7898 ;; Tracked objects:
  7899 ;;		On entry : 0/0
  7900 ;;		On exit  : 0/0
  7901 ;;		Unchanged: 0/0
  7902 ;; Data sizes:     COMRAM   BANK0   BANK1   BANK2   BANK3   BANK4   BANK5   BANK6   BANK7
  7903 ;;      Params:         0       0       0       0       0       0       0       0       0
  7904 ;;      Locals:         0       0       0       0       0       0       0       0       0
  7905 ;;      Temps:          0       0       0       0       0       0       0       0       0
  7906 ;;      Totals:         0       0       0       0       0       0       0       0       0
  7907 ;;Total ram usage:        0 bytes
  7908 ;; Hardware stack levels used: 1
  7909 ;; Hardware stack levels required when called: 5
  7910 ;; This function calls:
  7911 ;;		i2_ComandoLCD
  7912 ;; This function is called by:
  7913 ;;		_Borrar
  7914 ;; This function uses a non-reentrant model
  7915 ;;
  7916                           
  7917                           	psect	text51
  7918   0018F4                     __ptext51:
  7919                           	callstack 0
  7920   0018F4                     i2_MostrarCursor:
  7921                           	callstack 16
  7922                           
  7923                           ;LibLCDXC8.h: 327: ComandoLCD(0xF);
  7924                           
  7925                           ;incstack = 0
  7926   0018F4  0E0F               	movlw	15
  7927   0018F6  EC20  F00B         	call	i2_ComandoLCD
  7928   0018FA  0012               	return		;funcret
  7929   0018FC                     __end_ofi2_MostrarCursor:
  7930                           	callstack 0
  7931                           
  7932 ;; *************** function i2_ComandoLCD *****************
  7933 ;; Defined at:
  7934 ;;		line 127 in file "LibLCDXC8.h"
  7935 ;; Parameters:    Size  Location     Type
  7936 ;;  a               1    wreg     unsigned char 
  7937 ;; Auto vars:     Size  Location     Type
  7938 ;;  a               1    5[COMRAM] unsigned char 
  7939 ;; Return value:  Size  Location     Type
  7940 ;;                  1    wreg      void 
  7941 ;; Registers used:
  7942 ;;		wreg, status,2, status,0, cstack
  7943 ;; Tracked objects:
  7944 ;;		On entry : 0/0
  7945 ;;		On exit  : 0/0
  7946 ;;		Unchanged: 0/0
  7947 ;; Data sizes:     COMRAM   BANK0   BANK1   BANK2   BANK3   BANK4   BANK5   BANK6   BANK7
  7948 ;;      Params:         0       0       0       0       0       0       0       0       0
  7949 ;;      Locals:         1       0       0       0       0       0       0       0       0
  7950 ;;      Temps:          0       0       0       0       0       0       0       0       0
  7951 ;;      Totals:         1       0       0       0       0       0       0       0       0
  7952 ;;Total ram usage:        1 bytes
  7953 ;; Hardware stack levels used: 1
  7954 ;; Hardware stack levels required when called: 4
  7955 ;; This function calls:
  7956 ;;		i2_BorraLCD
  7957 ;;		i2_CursorAInicio
  7958 ;;		i2_EnviaDato
  7959 ;;		i2_HabilitaLCD
  7960 ;;		i2_RetardoLCD
  7961 ;; This function is called by:
  7962 ;;		i2_OcultarCursor
  7963 ;;		i2_MostrarCursor
  7964 ;; This function uses a non-reentrant model
  7965 ;;
  7966                           
  7967                           	psect	text52
  7968   001640                     __ptext52:
  7969                           	callstack 0
  7970   001640                     i2_ComandoLCD:
  7971                           	callstack 17
  7972                           
  7973                           ;incstack = 0
  7974                           ;i2ComandoLCD@a stored from wreg
  7975   001640  6E06               	movwf	i2ComandoLCD@a^0,c
  7976                           
  7977                           ;LibLCDXC8.h: 129: LATA4=0;
  7978   001642  9889               	bcf	3977,4,c	;volatile
  7979                           
  7980                           ;LibLCDXC8.h: 130: if(a==1)
  7981   001644  0406               	decf	i2ComandoLCD@a^0,w,c
  7982   001646  A4D8               	btfss	status,2,c
  7983   001648  D003               	goto	i2l3044
  7984                           
  7985                           ;LibLCDXC8.h: 131: BorraLCD();
  7986   00164A  EC20  F00C         	call	i2_BorraLCD	;wreg free
  7987   00164E  0012               	return	
  7988   001650                     i2l3044:
  7989                           
  7990                           ;LibLCDXC8.h: 132: else if((a&0b11111110)==2)
  7991   001650  5006               	movf	i2ComandoLCD@a^0,w,c
  7992   001652  0BFE               	andlw	254
  7993   001654  0A02               	xorlw	2
  7994   001656  A4D8               	btfss	status,2,c
  7995   001658  D003               	goto	i2l3048
  7996                           
  7997                           ;LibLCDXC8.h: 133: CursorAInicio();
  7998   00165A  EC7E  F00C         	call	i2_CursorAInicio	;wreg free
  7999   00165E  0012               	return	
  8000   001660                     i2l3048:
  8001                           
  8002                           ;LibLCDXC8.h: 134: else{;LibLCDXC8.h: 135: EnviaDato(a);
  8003   001660  5006               	movf	i2ComandoLCD@a^0,w,c
  8004   001662  EC6A  F00A         	call	i2_EnviaDato
  8005                           
  8006                           ;LibLCDXC8.h: 136: HabilitaLCD();
  8007   001666  EC54  F00C         	call	i2_HabilitaLCD	;wreg free
  8008                           
  8009                           ;LibLCDXC8.h: 137: RetardoLCD(4);
  8010   00166A  0E04               	movlw	4
  8011   00166C  EC7C  F009         	call	i2_RetardoLCD
  8012   001670  0012               	return		;funcret
  8013   001672                     __end_ofi2_ComandoLCD:
  8014                           	callstack 0
  8015                           
  8016 ;; *************** function i2_CursorAInicio *****************
  8017 ;; Defined at:
  8018 ;;		line 121 in file "LibLCDXC8.h"
  8019 ;; Parameters:    Size  Location     Type
  8020 ;;		None
  8021 ;; Auto vars:     Size  Location     Type
  8022 ;;		None
  8023 ;; Return value:  Size  Location     Type
  8024 ;;                  1    wreg      void 
  8025 ;; Registers used:
  8026 ;;		wreg, status,2, status,0, cstack
  8027 ;; Tracked objects:
  8028 ;;		On entry : 0/0
  8029 ;;		On exit  : 0/0
  8030 ;;		Unchanged: 0/0
  8031 ;; Data sizes:     COMRAM   BANK0   BANK1   BANK2   BANK3   BANK4   BANK5   BANK6   BANK7
  8032 ;;      Params:         0       0       0       0       0       0       0       0       0
  8033 ;;      Locals:         0       0       0       0       0       0       0       0       0
  8034 ;;      Temps:          0       0       0       0       0       0       0       0       0
  8035 ;;      Totals:         0       0       0       0       0       0       0       0       0
  8036 ;;Total ram usage:        0 bytes
  8037 ;; Hardware stack levels used: 1
  8038 ;; Hardware stack levels required when called: 3
  8039 ;; This function calls:
  8040 ;;		i2_DireccionaLCD
  8041 ;; This function is called by:
  8042 ;;		i2_ComandoLCD
  8043 ;; This function uses a non-reentrant model
  8044 ;;
  8045                           
  8046                           	psect	text53
  8047   0018FC                     __ptext53:
  8048                           	callstack 0
  8049   0018FC                     i2_CursorAInicio:
  8050                           	callstack 17
  8051                           
  8052                           ;LibLCDXC8.h: 124: DireccionaLCD(0x80);
  8053                           
  8054                           ;incstack = 0
  8055   0018FC  0E80               	movlw	128
  8056   0018FE  ECEC  F00B         	call	i2_DireccionaLCD
  8057   001902  0012               	return		;funcret
  8058   001904                     __end_ofi2_CursorAInicio:
  8059                           	callstack 0
  8060                           
  8061 ;; *************** function i2_DireccionaLCD *****************
  8062 ;; Defined at:
  8063 ;;		line 245 in file "LibLCDXC8.h"
  8064 ;; Parameters:    Size  Location     Type
  8065 ;;  a               1    wreg     unsigned char 
  8066 ;; Auto vars:     Size  Location     Type
  8067 ;;  a               1    4[COMRAM] unsigned char 
  8068 ;; Return value:  Size  Location     Type
  8069 ;;                  1    wreg      void 
  8070 ;; Registers used:
  8071 ;;		wreg, status,2, status,0, cstack
  8072 ;; Tracked objects:
  8073 ;;		On entry : 0/0
  8074 ;;		On exit  : 0/0
  8075 ;;		Unchanged: 0/0
  8076 ;; Data sizes:     COMRAM   BANK0   BANK1   BANK2   BANK3   BANK4   BANK5   BANK6   BANK7
  8077 ;;      Params:         0       0       0       0       0       0       0       0       0
  8078 ;;      Locals:         1       0       0       0       0       0       0       0       0
  8079 ;;      Temps:          0       0       0       0       0       0       0       0       0
  8080 ;;      Totals:         1       0       0       0       0       0       0       0       0
  8081 ;;Total ram usage:        1 bytes
  8082 ;; Hardware stack levels used: 1
  8083 ;; Hardware stack levels required when called: 2
  8084 ;; This function calls:
  8085 ;;		i2_EnviaDato
  8086 ;;		i2_HabilitaLCD
  8087 ;;		i2_RetardoLCD
  8088 ;; This function is called by:
  8089 ;;		_ISR
  8090 ;;		_Borrar
  8091 ;;		i2_CursorAInicio
  8092 ;; This function uses a non-reentrant model
  8093 ;;
  8094                           
  8095                           	psect	text54
  8096   0017D8                     __ptext54:
  8097                           	callstack 0
  8098   0017D8                     i2_DireccionaLCD:
  8099                           	callstack 17
  8100                           
  8101                           ;incstack = 0
  8102                           ;i2DireccionaLCD@a stored from wreg
  8103   0017D8  6E05               	movwf	i2DireccionaLCD@a^0,c
  8104                           
  8105                           ;LibLCDXC8.h: 248: LATA4=0;
  8106   0017DA  9889               	bcf	3977,4,c	;volatile
  8107                           
  8108                           ;LibLCDXC8.h: 249: EnviaDato(a);
  8109   0017DC  5005               	movf	i2DireccionaLCD@a^0,w,c
  8110   0017DE  EC6A  F00A         	call	i2_EnviaDato
  8111                           
  8112                           ;LibLCDXC8.h: 250: HabilitaLCD();
  8113   0017E2  EC54  F00C         	call	i2_HabilitaLCD	;wreg free
  8114                           
  8115                           ;LibLCDXC8.h: 251: RetardoLCD(4);
  8116   0017E6  0E04               	movlw	4
  8117   0017E8  EC7C  F009         	call	i2_RetardoLCD
  8118   0017EC  0012               	return		;funcret
  8119   0017EE                     __end_ofi2_DireccionaLCD:
  8120                           	callstack 0
  8121                           
  8122 ;; *************** function i2_BorraLCD *****************
  8123 ;; Defined at:
  8124 ;;		line 114 in file "LibLCDXC8.h"
  8125 ;; Parameters:    Size  Location     Type
  8126 ;;		None
  8127 ;; Auto vars:     Size  Location     Type
  8128 ;;		None
  8129 ;; Return value:  Size  Location     Type
  8130 ;;                  1    wreg      void 
  8131 ;; Registers used:
  8132 ;;		wreg, status,2, status,0, cstack
  8133 ;; Tracked objects:
  8134 ;;		On entry : 0/0
  8135 ;;		On exit  : 0/0
  8136 ;;		Unchanged: 0/0
  8137 ;; Data sizes:     COMRAM   BANK0   BANK1   BANK2   BANK3   BANK4   BANK5   BANK6   BANK7
  8138 ;;      Params:         0       0       0       0       0       0       0       0       0
  8139 ;;      Locals:         0       0       0       0       0       0       0       0       0
  8140 ;;      Temps:          0       0       0       0       0       0       0       0       0
  8141 ;;      Totals:         0       0       0       0       0       0       0       0       0
  8142 ;;Total ram usage:        0 bytes
  8143 ;; Hardware stack levels used: 1
  8144 ;; Hardware stack levels required when called: 2
  8145 ;; This function calls:
  8146 ;;		i2_EnviaDato
  8147 ;;		i2_HabilitaLCD
  8148 ;;		i2_RetardoLCD
  8149 ;; This function is called by:
  8150 ;;		_ISR
  8151 ;;		i2_ComandoLCD
  8152 ;; This function uses a non-reentrant model
  8153 ;;
  8154                           
  8155                           	psect	text55
  8156   001840                     __ptext55:
  8157                           	callstack 0
  8158   001840                     i2_BorraLCD:
  8159                           	callstack 18
  8160                           
  8161                           ;LibLCDXC8.h: 116: LATA4=0;
  8162                           
  8163                           ;incstack = 0
  8164   001840  9889               	bcf	3977,4,c	;volatile
  8165                           
  8166                           ;LibLCDXC8.h: 117: EnviaDato(0x01);
  8167   001842  0E01               	movlw	1
  8168   001844  EC6A  F00A         	call	i2_EnviaDato
  8169                           
  8170                           ;LibLCDXC8.h: 118: HabilitaLCD();
  8171   001848  EC54  F00C         	call	i2_HabilitaLCD	;wreg free
  8172                           
  8173                           ;LibLCDXC8.h: 119: RetardoLCD(2);
  8174   00184C  0E02               	movlw	2
  8175   00184E  EC7C  F009         	call	i2_RetardoLCD
  8176   001852  0012               	return		;funcret
  8177   001854                     __end_ofi2_BorraLCD:
  8178                           	callstack 0
  8179                           
  8180 ;; *************** function i2_EscribeLCD_c *****************
  8181 ;; Defined at:
  8182 ;;		line 140 in file "LibLCDXC8.h"
  8183 ;; Parameters:    Size  Location     Type
  8184 ;;  a               1    wreg     unsigned char 
  8185 ;; Auto vars:     Size  Location     Type
  8186 ;;  a               1    4[COMRAM] unsigned char 
  8187 ;; Return value:  Size  Location     Type
  8188 ;;                  1    wreg      void 
  8189 ;; Registers used:
  8190 ;;		wreg, status,2, status,0, cstack
  8191 ;; Tracked objects:
  8192 ;;		On entry : 0/0
  8193 ;;		On exit  : 0/0
  8194 ;;		Unchanged: 0/0
  8195 ;; Data sizes:     COMRAM   BANK0   BANK1   BANK2   BANK3   BANK4   BANK5   BANK6   BANK7
  8196 ;;      Params:         0       0       0       0       0       0       0       0       0
  8197 ;;      Locals:         1       0       0       0       0       0       0       0       0
  8198 ;;      Temps:          0       0       0       0       0       0       0       0       0
  8199 ;;      Totals:         1       0       0       0       0       0       0       0       0
  8200 ;;Total ram usage:        1 bytes
  8201 ;; Hardware stack levels used: 1
  8202 ;; Hardware stack levels required when called: 2
  8203 ;; This function calls:
  8204 ;;		i2_EnviaDato
  8205 ;;		i2_HabilitaLCD
  8206 ;;		i2_RetardoLCD
  8207 ;; This function is called by:
  8208 ;;		_Borrar
  8209 ;;		i2_MensajeLCD_Var
  8210 ;; This function uses a non-reentrant model
  8211 ;;
  8212                           
  8213                           	psect	text56
  8214   0017EE                     __ptext56:
  8215                           	callstack 0
  8216   0017EE                     i2_EscribeLCD_c:
  8217                           	callstack 19
  8218                           
  8219                           ;incstack = 0
  8220                           ;i2EscribeLCD_c@a stored from wreg
  8221   0017EE  6E05               	movwf	i2EscribeLCD_c@a^0,c
  8222                           
  8223                           ;LibLCDXC8.h: 144: LATA4=1;
  8224   0017F0  8889               	bsf	3977,4,c	;volatile
  8225                           
  8226                           ;LibLCDXC8.h: 145: EnviaDato(a);
  8227   0017F2  5005               	movf	i2EscribeLCD_c@a^0,w,c
  8228   0017F4  EC6A  F00A         	call	i2_EnviaDato
  8229                           
  8230                           ;LibLCDXC8.h: 146: HabilitaLCD();
  8231   0017F8  EC54  F00C         	call	i2_HabilitaLCD	;wreg free
  8232                           
  8233                           ;LibLCDXC8.h: 147: RetardoLCD(4);
  8234   0017FC  0E04               	movlw	4
  8235   0017FE  EC7C  F009         	call	i2_RetardoLCD
  8236   001802  0012               	return		;funcret
  8237   001804                     __end_ofi2_EscribeLCD_c:
  8238                           	callstack 0
  8239                           
  8240 ;; *************** function i2_EnviaDato *****************
  8241 ;; Defined at:
  8242 ;;		line 61 in file "LibLCDXC8.h"
  8243 ;; Parameters:    Size  Location     Type
  8244 ;;  a               1    wreg     unsigned char 
  8245 ;; Auto vars:     Size  Location     Type
  8246 ;;  a               1    3[COMRAM] unsigned char 
  8247 ;; Return value:  Size  Location     Type
  8248 ;;                  1    wreg      void 
  8249 ;; Registers used:
  8250 ;;		wreg, status,2, status,0, cstack
  8251 ;; Tracked objects:
  8252 ;;		On entry : 0/0
  8253 ;;		On exit  : 0/0
  8254 ;;		Unchanged: 0/0
  8255 ;; Data sizes:     COMRAM   BANK0   BANK1   BANK2   BANK3   BANK4   BANK5   BANK6   BANK7
  8256 ;;      Params:         0       0       0       0       0       0       0       0       0
  8257 ;;      Locals:         1       0       0       0       0       0       0       0       0
  8258 ;;      Temps:          1       0       0       0       0       0       0       0       0
  8259 ;;      Totals:         2       0       0       0       0       0       0       0       0
  8260 ;;Total ram usage:        2 bytes
  8261 ;; Hardware stack levels used: 1
  8262 ;; Hardware stack levels required when called: 1
  8263 ;; This function calls:
  8264 ;;		i2_HabilitaLCD
  8265 ;;		i2_RetardoLCD
  8266 ;; This function is called by:
  8267 ;;		i2_BorraLCD
  8268 ;;		i2_ComandoLCD
  8269 ;;		i2_EscribeLCD_c
  8270 ;;		i2_EscribeLCD_n8
  8271 ;;		i2_DireccionaLCD
  8272 ;; This function uses a non-reentrant model
  8273 ;;
  8274                           
  8275                           	psect	text57
  8276   0014D4                     __ptext57:
  8277                           	callstack 0
  8278   0014D4                     i2_EnviaDato:
  8279                           	callstack 19
  8280                           
  8281                           ;incstack = 0
  8282                           ;i2EnviaDato@a stored from wreg
  8283   0014D4  6E04               	movwf	i2EnviaDato@a^0,c
  8284                           
  8285                           ;LibLCDXC8.h: 62: if(interfaz==4){
  8286   0014D6  0E04               	movlw	4
  8287   0014D8  1848               	xorwf	_interfaz^0,w,c
  8288   0014DA  A4D8               	btfss	status,2,c
  8289   0014DC  D017               	goto	i2l2974
  8290                           
  8291                           ;LibLCDXC8.h: 63: LATD=(LATD & 0b00001111) | (a & 0b11110000);
  8292   0014DE  C004  F003         	movff	i2EnviaDato@a,??i2_EnviaDato
  8293   0014E2  0EF0               	movlw	240
  8294   0014E4  1603               	andwf	??i2_EnviaDato^0,f,c
  8295   0014E6  508C               	movf	140,w,c	;volatile
  8296   0014E8  0B0F               	andlw	15
  8297   0014EA  1003               	iorwf	??i2_EnviaDato^0,w,c
  8298   0014EC  6E8C               	movwf	140,c	;volatile
  8299                           
  8300                           ;LibLCDXC8.h: 64: HabilitaLCD();
  8301   0014EE  EC54  F00C         	call	i2_HabilitaLCD	;wreg free
  8302                           
  8303                           ;LibLCDXC8.h: 65: RetardoLCD(1);
  8304   0014F2  0E01               	movlw	1
  8305   0014F4  EC7C  F009         	call	i2_RetardoLCD
  8306                           
  8307                           ;LibLCDXC8.h: 66: LATD=(LATD & 0b00001111) | (a<<4);
  8308   0014F8  C004  F003         	movff	i2EnviaDato@a,??i2_EnviaDato
  8309   0014FC  3A03               	swapf	??i2_EnviaDato^0,f,c
  8310   0014FE  0EF0               	movlw	240
  8311   001500  1603               	andwf	??i2_EnviaDato^0,f,c
  8312   001502  508C               	movf	140,w,c	;volatile
  8313   001504  0B0F               	andlw	15
  8314   001506  1003               	iorwf	??i2_EnviaDato^0,w,c
  8315   001508  6E8C               	movwf	140,c	;volatile
  8316                           
  8317                           ;LibLCDXC8.h: 69: }else if(interfaz==8){
  8318   00150A  0012               	return	
  8319   00150C                     i2l2974:
  8320   00150C  0E08               	movlw	8
  8321   00150E  1848               	xorwf	_interfaz^0,w,c
  8322   001510  A4D8               	btfss	status,2,c
  8323   001512  0012               	return	
  8324                           
  8325                           ;LibLCDXC8.h: 70: LATD=a;
  8326   001514  C004  FF8C         	movff	i2EnviaDato@a,3980	;volatile
  8327   001518  0012               	return		;funcret
  8328   00151A                     __end_ofi2_EnviaDato:
  8329                           	callstack 0
  8330                           
  8331 ;; *************** function i2_RetardoLCD *****************
  8332 ;; Defined at:
  8333 ;;		line 290 in file "LibLCDXC8.h"
  8334 ;; Parameters:    Size  Location     Type
  8335 ;;  a               1    wreg     unsigned char 
  8336 ;; Auto vars:     Size  Location     Type
  8337 ;;  a               1    1[COMRAM] unsigned char 
  8338 ;; Return value:  Size  Location     Type
  8339 ;;                  1    wreg      void 
  8340 ;; Registers used:
  8341 ;;		wreg, status,2, status,0
  8342 ;; Tracked objects:
  8343 ;;		On entry : 0/0
  8344 ;;		On exit  : 0/0
  8345 ;;		Unchanged: 0/0
  8346 ;; Data sizes:     COMRAM   BANK0   BANK1   BANK2   BANK3   BANK4   BANK5   BANK6   BANK7
  8347 ;;      Params:         0       0       0       0       0       0       0       0       0
  8348 ;;      Locals:         1       0       0       0       0       0       0       0       0
  8349 ;;      Temps:          1       0       0       0       0       0       0       0       0
  8350 ;;      Totals:         2       0       0       0       0       0       0       0       0
  8351 ;;Total ram usage:        2 bytes
  8352 ;; Hardware stack levels used: 1
  8353 ;; This function calls:
  8354 ;;		Nothing
  8355 ;; This function is called by:
  8356 ;;		i2_EnviaDato
  8357 ;;		i2_BorraLCD
  8358 ;;		i2_ComandoLCD
  8359 ;;		i2_EscribeLCD_c
  8360 ;;		i2_EscribeLCD_n8
  8361 ;;		i2_DireccionaLCD
  8362 ;; This function uses a non-reentrant model
  8363 ;;
  8364                           
  8365                           	psect	text58
  8366   0012F8                     __ptext58:
  8367                           	callstack 0
  8368   0012F8                     i2_RetardoLCD:
  8369                           	callstack 20
  8370                           
  8371                           ;incstack = 0
  8372                           ;i2RetardoLCD@a stored from wreg
  8373   0012F8  6E02               	movwf	i2RetardoLCD@a^0,c
  8374                           
  8375                           ;LibLCDXC8.h: 291: switch(a){
  8376   0012FA  D01B               	goto	i2l2948
  8377   0012FC                     i2l2938:
  8378   0012FC  0E05               	movlw	5
  8379   0012FE  6E01               	movwf	??i2_RetardoLCD^0,c
  8380   001300  0EDE               	movlw	222
  8381   001302                     i2u407_47:
  8382   001302  2EE8               	decfsz	wreg,f,c
  8383   001304  D7FE               	bra	i2u407_47
  8384   001306  2E01               	decfsz	??i2_RetardoLCD^0,f,c
  8385   001308  D7FC               	bra	i2u407_47
  8386                           
  8387                           ;LibLCDXC8.h: 294: break;
  8388   00130A  0012               	return	
  8389   00130C                     i2l2940:
  8390   00130C  0E53               	movlw	83
  8391   00130E                     i2u408_47:
  8392   00130E  2EE8               	decfsz	wreg,f,c
  8393   001310  D7FE               	bra	i2u408_47
  8394   001312  0000               	nop	
  8395                           
  8396                           ;LibLCDXC8.h: 296: _delay((unsigned long)((640)*(1000000/4000000.0)));
  8397   001314  0E35               	movlw	53
  8398   001316                     i2u409_47:
  8399   001316  2EE8               	decfsz	wreg,f,c
  8400   001318  D7FE               	bra	i2u409_47
  8401   00131A  0000               	nop	
  8402                           
  8403                           ;LibLCDXC8.h: 298: break;
  8404   00131C  0012               	return	
  8405   00131E                     i2l2942:
  8406   00131E  0E08               	movlw	8
  8407   001320                     i2u410_47:
  8408   001320  2EE8               	decfsz	wreg,f,c
  8409   001322  D7FE               	bra	i2u410_47
  8410   001324  0000               	nop	
  8411                           
  8412                           ;LibLCDXC8.h: 301: break;
  8413   001326  0012               	return	
  8414   001328                     i2l2944:
  8415   001328  0E03               	movlw	3
  8416   00132A                     i2u411_47:
  8417   00132A  2EE8               	decfsz	wreg,f,c
  8418   00132C  D7FE               	bra	i2u411_47
  8419   00132E  0000               	nop	
  8420                           
  8421                           ;LibLCDXC8.h: 304: break;
  8422   001330  0012               	return	
  8423   001332                     i2l2948:
  8424   001332  5002               	movf	i2RetardoLCD@a^0,w,c
  8425                           
  8426                           ; Switch size 1, requested type "simple"
  8427                           ; Number of cases is 4, Range of values is 1 to 4
  8428                           ; switch strategies available:
  8429                           ; Name         Instructions Cycles
  8430                           ; simple_byte           13     7 (average)
  8431                           ;	Chosen strategy is simple_byte
  8432   001334  0A01               	xorlw	1	; case 1
  8433   001336  B4D8               	btfsc	status,2,c
  8434   001338  D7E1               	goto	i2l2938
  8435   00133A  0A03               	xorlw	3	; case 2
  8436   00133C  B4D8               	btfsc	status,2,c
  8437   00133E  D7E6               	goto	i2l2940
  8438   001340  0A01               	xorlw	1	; case 3
  8439   001342  B4D8               	btfsc	status,2,c
  8440   001344  D7EC               	goto	i2l2942
  8441   001346  0A07               	xorlw	7	; case 4
  8442   001348  A4D8               	btfss	status,2,c
  8443   00134A  0012               	return	
  8444   00134C  D7ED               	goto	i2l2944
  8445   00134E                     __end_ofi2_RetardoLCD:
  8446                           	callstack 0
  8447                           
  8448 ;; *************** function i2_HabilitaLCD *****************
  8449 ;; Defined at:
  8450 ;;		line 107 in file "LibLCDXC8.h"
  8451 ;; Parameters:    Size  Location     Type
  8452 ;;		None
  8453 ;; Auto vars:     Size  Location     Type
  8454 ;;		None
  8455 ;; Return value:  Size  Location     Type
  8456 ;;                  1    wreg      void 
  8457 ;; Registers used:
  8458 ;;		wreg
  8459 ;; Tracked objects:
  8460 ;;		On entry : 0/0
  8461 ;;		On exit  : 0/0
  8462 ;;		Unchanged: 0/0
  8463 ;; Data sizes:     COMRAM   BANK0   BANK1   BANK2   BANK3   BANK4   BANK5   BANK6   BANK7
  8464 ;;      Params:         0       0       0       0       0       0       0       0       0
  8465 ;;      Locals:         0       0       0       0       0       0       0       0       0
  8466 ;;      Temps:          0       0       0       0       0       0       0       0       0
  8467 ;;      Totals:         0       0       0       0       0       0       0       0       0
  8468 ;;Total ram usage:        0 bytes
  8469 ;; Hardware stack levels used: 1
  8470 ;; This function calls:
  8471 ;;		Nothing
  8472 ;; This function is called by:
  8473 ;;		i2_EnviaDato
  8474 ;;		i2_BorraLCD
  8475 ;;		i2_ComandoLCD
  8476 ;;		i2_EscribeLCD_c
  8477 ;;		i2_EscribeLCD_n8
  8478 ;;		i2_DireccionaLCD
  8479 ;; This function uses a non-reentrant model
  8480 ;;
  8481                           
  8482                           	psect	text59
  8483   0018A8                     __ptext59:
  8484                           	callstack 0
  8485   0018A8                     i2_HabilitaLCD:
  8486                           	callstack 20
  8487                           
  8488                           ;LibLCDXC8.h: 109: LATA5=1;
  8489                           
  8490                           ;incstack = 0
  8491   0018A8  8A89               	bsf	3977,5,c	;volatile
  8492                           
  8493                           ;LibLCDXC8.h: 110: _delay((unsigned long)((40)*(1000000/4000000.0)));
  8494   0018AA  0E03               	movlw	3
  8495   0018AC                     i2u412_47:
  8496   0018AC  2EE8               	decfsz	wreg,f,c
  8497   0018AE  D7FE               	bra	i2u412_47
  8498   0018B0  0000               	nop	
  8499                           
  8500                           ;LibLCDXC8.h: 112: LATA5=0;
  8501   0018B2  9A89               	bcf	3977,5,c	;volatile
  8502   0018B4  0012               	return		;funcret
  8503   0018B6                     __end_ofi2_HabilitaLCD:
  8504                           	callstack 0
  8505                           
  8506                           	psect	rparam
  8507   000001                     ___rparam_used  equ	1
  8508   000000                     ___param_bank   equ	0
  8509   000000                     __Lparam        equ	__Lrparam
  8510   000000                     __Hparam        equ	__Hrparam
  8511                           
  8512                           	psect	temp
  8513   000052                     btemp:
  8514                           	callstack 0
  8515   000052                     	ds	1
  8516   000052                     int$flags       set	btemp
  8517   000053                     wtemp8          set	btemp+1
  8518   000053                     ttemp5          set	btemp+1
  8519   000056                     ttemp6          set	btemp+4
  8520   00005A                     ttemp7          set	btemp+8
  8521                           
  8522                           	psect	idloc
  8523                           
  8524                           ;Config register IDLOC0 @ 0x200000
  8525                           ;	unspecified, using default values
  8526   200000                     	org	2097152
  8527   200000  FF                 	db	255
  8528                           
  8529                           ;Config register IDLOC1 @ 0x200001
  8530                           ;	unspecified, using default values
  8531   200001                     	org	2097153
  8532   200001  FF                 	db	255
  8533                           
  8534                           ;Config register IDLOC2 @ 0x200002
  8535                           ;	unspecified, using default values
  8536   200002                     	org	2097154
  8537   200002  FF                 	db	255
  8538                           
  8539                           ;Config register IDLOC3 @ 0x200003
  8540                           ;	unspecified, using default values
  8541   200003                     	org	2097155
  8542   200003  FF                 	db	255
  8543                           
  8544                           ;Config register IDLOC4 @ 0x200004
  8545                           ;	unspecified, using default values
  8546   200004                     	org	2097156
  8547   200004  FF                 	db	255
  8548                           
  8549                           ;Config register IDLOC5 @ 0x200005
  8550                           ;	unspecified, using default values
  8551   200005                     	org	2097157
  8552   200005  FF                 	db	255
  8553                           
  8554                           ;Config register IDLOC6 @ 0x200006
  8555                           ;	unspecified, using default values
  8556   200006                     	org	2097158
  8557   200006  FF                 	db	255
  8558                           
  8559                           ;Config register IDLOC7 @ 0x200007
  8560                           ;	unspecified, using default values
  8561   200007                     	org	2097159
  8562   200007  FF                 	db	255
  8563                           
  8564                           	psect	config
  8565                           
  8566                           ;Config register CONFIG1L @ 0x300000
  8567                           ;	unspecified, using default values
  8568                           ;	PLL Prescaler Selection bits
  8569                           ;	PLLDIV = 0x0, unprogrammed default
  8570                           ;	System Clock Postscaler Selection bits
  8571                           ;	CPUDIV = 0x0, unprogrammed default
  8572                           ;	USB Clock Selection bit (used in Full-Speed USB mode only; UCFG:FSEN = 1)
  8573                           ;	USBDIV = 0x0, unprogrammed default
  8574   300000                     	org	3145728
  8575   300000  00                 	db	0
  8576                           
  8577                           ;Config register CONFIG1H @ 0x300001
  8578                           ;	Oscillator Selection bits
  8579                           ;	FOSC = INTOSCIO_EC, Internal oscillator, port function on RA6, EC used by USB (INTIO)
  8580                           ;	Fail-Safe Clock Monitor Enable bit
  8581                           ;	FCMEN = 0x0, unprogrammed default
  8582                           ;	Internal/External Oscillator Switchover bit
  8583                           ;	IESO = 0x0, unprogrammed default
  8584   300001                     	org	3145729
  8585   300001  08                 	db	8
  8586                           
  8587                           ;Config register CONFIG2L @ 0x300002
  8588                           ;	unspecified, using default values
  8589                           ;	Power-up Timer Enable bit
  8590                           ;	PWRT = 0x1, unprogrammed default
  8591                           ;	Brown-out Reset Enable bits
  8592                           ;	BOR = 0x3, unprogrammed default
  8593                           ;	Brown-out Reset Voltage bits
  8594                           ;	BORV = 0x3, unprogrammed default
  8595                           ;	USB Voltage Regulator Enable bit
  8596                           ;	VREGEN = 0x0, unprogrammed default
  8597   300002                     	org	3145730
  8598   300002  1F                 	db	31
  8599                           
  8600                           ;Config register CONFIG2H @ 0x300003
  8601                           ;	Watchdog Timer Enable bit
  8602                           ;	WDT = OFF, WDT disabled (control is placed on the SWDTEN bit)
  8603                           ;	Watchdog Timer Postscale Select bits
  8604                           ;	WDTPS = 0xF, unprogrammed default
  8605   300003                     	org	3145731
  8606   300003  1E                 	db	30
  8607                           
  8608                           ; Padding undefined space
  8609   300004                     	org	3145732
  8610   300004  FF                 	db	255
  8611                           
  8612                           ;Config register CONFIG3H @ 0x300005
  8613                           ;	unspecified, using default values
  8614                           ;	CCP2 MUX bit
  8615                           ;	CCP2MX = 0x1, unprogrammed default
  8616                           ;	PORTB A/D Enable bit
  8617                           ;	PBADEN = 0x1, unprogrammed default
  8618                           ;	Low-Power Timer 1 Oscillator Enable bit
  8619                           ;	LPT1OSC = 0x0, unprogrammed default
  8620                           ;	MCLR Pin Enable bit
  8621                           ;	MCLRE = 0x1, unprogrammed default
  8622   300005                     	org	3145733
  8623   300005  83                 	db	131
  8624                           
  8625                           ;Config register CONFIG4L @ 0x300006
  8626                           ;	Stack Full/Underflow Reset Enable bit
  8627                           ;	STVREN = 0x1, unprogrammed default
  8628                           ;	Single-Supply ICSP Enable bit
  8629                           ;	LVP = OFF, Single-Supply ICSP disabled
  8630                           ;	Dedicated In-Circuit Debug/Programming Port (ICPORT) Enable bit
  8631                           ;	ICPRT = 0x0, unprogrammed default
  8632                           ;	Extended Instruction Set Enable bit
  8633                           ;	XINST = 0x0, unprogrammed default
  8634                           ;	Background Debugger Enable bit
  8635                           ;	DEBUG = 0x1, unprogrammed default
  8636   300006                     	org	3145734
  8637   300006  81                 	db	129
  8638                           
  8639                           ; Padding undefined space
  8640   300007                     	org	3145735
  8641   300007  FF                 	db	255
  8642                           
  8643                           ;Config register CONFIG5L @ 0x300008
  8644                           ;	unspecified, using default values
  8645                           ;	Code Protection bit
  8646                           ;	CP0 = 0x1, unprogrammed default
  8647                           ;	Code Protection bit
  8648                           ;	CP1 = 0x1, unprogrammed default
  8649                           ;	Code Protection bit
  8650                           ;	CP2 = 0x1, unprogrammed default
  8651                           ;	Code Protection bit
  8652                           ;	CP3 = 0x1, unprogrammed default
  8653   300008                     	org	3145736
  8654   300008  0F                 	db	15
  8655                           
  8656                           ;Config register CONFIG5H @ 0x300009
  8657                           ;	unspecified, using default values
  8658                           ;	Boot Block Code Protection bit
  8659                           ;	CPB = 0x1, unprogrammed default
  8660                           ;	Data EEPROM Code Protection bit
  8661                           ;	CPD = 0x1, unprogrammed default
  8662   300009                     	org	3145737
  8663   300009  C0                 	db	192
  8664                           
  8665                           ;Config register CONFIG6L @ 0x30000A
  8666                           ;	unspecified, using default values
  8667                           ;	Write Protection bit
  8668                           ;	WRT0 = 0x1, unprogrammed default
  8669                           ;	Write Protection bit
  8670                           ;	WRT1 = 0x1, unprogrammed default
  8671                           ;	Write Protection bit
  8672                           ;	WRT2 = 0x1, unprogrammed default
  8673                           ;	Write Protection bit
  8674                           ;	WRT3 = 0x1, unprogrammed default
  8675   30000A                     	org	3145738
  8676   30000A  0F                 	db	15
  8677                           
  8678                           ;Config register CONFIG6H @ 0x30000B
  8679                           ;	unspecified, using default values
  8680                           ;	Configuration Register Write Protection bit
  8681                           ;	WRTC = 0x1, unprogrammed default
  8682                           ;	Boot Block Write Protection bit
  8683                           ;	WRTB = 0x1, unprogrammed default
  8684                           ;	Data EEPROM Write Protection bit
  8685                           ;	WRTD = 0x1, unprogrammed default
  8686   30000B                     	org	3145739
  8687   30000B  E0                 	db	224
  8688                           
  8689                           ;Config register CONFIG7L @ 0x30000C
  8690                           ;	unspecified, using default values
  8691                           ;	Table Read Protection bit
  8692                           ;	EBTR0 = 0x1, unprogrammed default
  8693                           ;	Table Read Protection bit
  8694                           ;	EBTR1 = 0x1, unprogrammed default
  8695                           ;	Table Read Protection bit
  8696                           ;	EBTR2 = 0x1, unprogrammed default
  8697                           ;	Table Read Protection bit
  8698                           ;	EBTR3 = 0x1, unprogrammed default
  8699   30000C                     	org	3145740
  8700   30000C  0F                 	db	15
  8701                           
  8702                           ;Config register CONFIG7H @ 0x30000D
  8703                           ;	unspecified, using default values
  8704                           ;	Boot Block Table Read Protection bit
  8705                           ;	EBTRB = 0x1, unprogrammed default
  8706   30000D                     	org	3145741
  8707   30000D  40                 	db	64
  8708                           tosu	equ	0xFFF
  8709                           tosh	equ	0xFFE
  8710                           tosl	equ	0xFFD
  8711                           stkptr	equ	0xFFC
  8712                           pclatu	equ	0xFFB
  8713                           pclath	equ	0xFFA
  8714                           pcl	equ	0xFF9
  8715                           tblptru	equ	0xFF8
  8716                           tblptrh	equ	0xFF7
  8717                           tblptrl	equ	0xFF6
  8718                           tablat	equ	0xFF5
  8719                           prodh	equ	0xFF4
  8720                           prodl	equ	0xFF3
  8721                           indf0	equ	0xFEF
  8722                           postinc0	equ	0xFEE
  8723                           postdec0	equ	0xFED
  8724                           preinc0	equ	0xFEC
  8725                           plusw0	equ	0xFEB
  8726                           fsr0h	equ	0xFEA
  8727                           fsr0l	equ	0xFE9
  8728                           wreg	equ	0xFE8
  8729                           indf1	equ	0xFE7
  8730                           postinc1	equ	0xFE6
  8731                           postdec1	equ	0xFE5
  8732                           preinc1	equ	0xFE4
  8733                           plusw1	equ	0xFE3
  8734                           fsr1h	equ	0xFE2
  8735                           fsr1l	equ	0xFE1
  8736                           bsr	equ	0xFE0
  8737                           indf2	equ	0xFDF
  8738                           postinc2	equ	0xFDE
  8739                           postdec2	equ	0xFDD
  8740                           preinc2	equ	0xFDC
  8741                           plusw2	equ	0xFDB
  8742                           fsr2h	equ	0xFDA
  8743                           fsr2l	equ	0xFD9
  8744                           status	equ	0xFD8

Data Sizes:
    Strings     392
    Constant    10
    Data        17
    BSS         31
    Persistent  1
    Stack       0

Auto Spaces:
    Space          Size  Autos    Used
    COMRAM           94     40      81
    BANK0           160     19      27
    BANK1           256      0       0
    BANK2           256      0       0
    BANK3           256      0       0
    BANK4           256      0       0
    BANK5           256      0       0
    BANK6           256      0       0
    BANK7           256      0       0

Pointer List with Targets:

    CrearCaracter@arreglo	PTR unsigned char  size(1) Largest target is 8
		 -> Estrella(COMRAM[8]), RayaAlPiso(BANK0[8]), 

    MensajeLCD_Var@a	PTR unsigned char  size(2) Largest target is 17
		 -> STR_1(CODE[13]), STR_10(CODE[11]), STR_11(CODE[13]), STR_12(CODE[13]), 
		 -> STR_13(CODE[12]), STR_14(CODE[11]), STR_15(CODE[16]), STR_16(CODE[15]), 
		 -> STR_17(CODE[13]), STR_18(CODE[14]), STR_2(CODE[13]), STR_23(CODE[13]), 
		 -> STR_24(CODE[14]), STR_25(CODE[15]), STR_26(CODE[12]), STR_27(CODE[17]), 
		 -> STR_28(CODE[13]), STR_29(CODE[14]), STR_3(CODE[16]), STR_30(CODE[14]), 
		 -> STR_4(CODE[12]), STR_5(CODE[12]), STR_6(CODE[12]), STR_7(CODE[7]), 
		 -> STR_8(CODE[11]), STR_9(CODE[7]), 

    printf@ap	PTR void [1] size(1) Largest target is 2
		 -> ?_printf(COMRAM[2]), 

    printf@f	PTR const unsigned char  size(2) Largest target is 32
		 -> STR_19(CODE[19]), STR_20(CODE[21]), STR_21(CODE[21]), STR_22(CODE[32]), 


Critical Paths under _main in COMRAM

    None.

Critical Paths under _ISR in COMRAM

    _ISR->_PWM_SetPercent
    i2_MensajeLCD_Var->i2_EscribeLCD_c
    i2_GuardarContador->i2_EEPROM_Write
    _printf->___lwmod
    ___lwmod->i2___lwdiv
    _PWM_SetPercent->___lldiv
    ___lldiv->___lmul
    _Motor_Reversa->_PWM_Set10bit
    _Motor_Paro->_PWM_Set10bit
    _ConfigPregunta->i2_EscribeLCD_n8
    i2_OcultarCursor->i2_ComandoLCD
    i2_EscribeLCD_n8->i2___lbdiv
    i2___lbdiv->i2___lbmod
    i2_MostrarCursor->i2_ComandoLCD
    i2_CursorAInicio->i2_DireccionaLCD
    i2_DireccionaLCD->i2_EnviaDato
    i2_BorraLCD->i2_EnviaDato
    i2_EscribeLCD_c->i2_EnviaDato
    i2_EnviaDato->i2_RetardoLCD

Critical Paths under _main in BANK0

    _main->_Bienvenida
    _PreguntaAlUsuario->_MensajeLCD_Var
    _MostrarCursor->_ComandoLCD
    _MedirDistancia->___lwdiv
    _LeerObjetivo->_EEPROM_Read
    _LeerContador->_EEPROM_Read
    _GuardarContador->_EEPROM_Write
    _EscribeLCD_n8->___lbdiv
    ___lbdiv->___lbmod
    _Bienvenida->_MensajeLCD_Var
    _OcultarCursor->_ComandoLCD
    _CursorAInicio->_DireccionaLCD
    _MensajeLCD_Var->_EscribeLCD_c
    _EscribeLCD_c->_EnviaDato
    _InicializaLCD->_EnviaDato
    _BorraLCD->_EnviaDato
    _DesplazaPantallaD->_EnviaDato
    _CrearCaracter->_DireccionaLCD
    _DireccionaLCD->_EnviaDato
    _EnviaDato->_RetardoLCD

Critical Paths under _ISR in BANK0

    None.

Critical Paths under _main in BANK1

    None.

Critical Paths under _ISR in BANK1

    None.

Critical Paths under _main in BANK2

    None.

Critical Paths under _ISR in BANK2

    None.

Critical Paths under _main in BANK3

    None.

Critical Paths under _ISR in BANK3

    None.

Critical Paths under _main in BANK4

    None.

Critical Paths under _ISR in BANK4

    None.

Critical Paths under _main in BANK5

    None.

Critical Paths under _ISR in BANK5

    None.

Critical Paths under _main in BANK6

    None.

Critical Paths under _ISR in BANK6

    None.

Critical Paths under _main in BANK7

    None.

Critical Paths under _ISR in BANK7

    None.

Call Graph Tables:

 ---------------------------------------------------------------------------------
 (Depth) Function   	        Calls       Base Space   Used Autos Params    Refs
 ---------------------------------------------------------------------------------
 (0) _main                                                 4     4      0   11343
                                             15 BANK0      4     4      0
                         _Bienvenida
                           _BorraLCD
                    _ConfigVariables
                      _DireccionaLCD
                       _EEPROM_Write
                      _EscribeLCD_n8
                    _GuardarContador
                       _LeerContador
                       _LeerObjetivo
                     _MedirDistancia
                     _MensajeLCD_Var
                      _OcultarCursor
                  _PreguntaAlUsuario
                            ___lwdiv
 ---------------------------------------------------------------------------------
 (1) _PreguntaAlUsuario                                    2     2      0    3753
                                             11 BANK0      2     2      0
                           _BorraLCD
                      _CrearCaracter
                      _DireccionaLCD
                       _EscribeLCD_c
                     _MensajeLCD_Var
                      _MostrarCursor
                      _OcultarCursor
 ---------------------------------------------------------------------------------
 (2) _MostrarCursor                                        0     0      0     893
                         _ComandoLCD
 ---------------------------------------------------------------------------------
 (1) _MedirDistancia                                       1     1      0     293
                                              7 BANK0      1     1      0
                            ___lwdiv
 ---------------------------------------------------------------------------------
 (1) ___lwdiv                                              7     3      4     253
                                              0 BANK0      7     3      4
 ---------------------------------------------------------------------------------
 (1) _LeerObjetivo                                         3     1      2      29
                                              1 BANK0      3     1      2
                        _EEPROM_Read
 ---------------------------------------------------------------------------------
 (1) _LeerContador                                         3     1      2      29
                                              1 BANK0      3     1      2
                        _EEPROM_Read
 ---------------------------------------------------------------------------------
 (2) _EEPROM_Read                                          1     1      0      29
                                              0 BANK0      1     1      0
 ---------------------------------------------------------------------------------
 (1) _GuardarContador                                      4     0      4     164
                                              2 BANK0      4     0      4
                       _EEPROM_Write
 ---------------------------------------------------------------------------------
 (2) _EEPROM_Write                                         2     1      1      96
                                              0 BANK0      2     1      1
 ---------------------------------------------------------------------------------
 (1) _EscribeLCD_n8                                        5     4      1    1299
                                              8 BANK0      5     4      1
                          _EnviaDato
                        _HabilitaLCD
                         _RetardoLCD
                            ___lbdiv
                            ___lbmod
 ---------------------------------------------------------------------------------
 (2) ___lbmod                                              4     3      1     266
                                              0 BANK0      4     3      1
 ---------------------------------------------------------------------------------
 (2) ___lbdiv                                              4     3      1     269
                                              4 BANK0      4     3      1
                            ___lbmod (ARG)
 ---------------------------------------------------------------------------------
 (1) _ConfigVariables                                      0     0      0       0
 ---------------------------------------------------------------------------------
 (1) _Bienvenida                                           4     4      0    3539
                                             11 BANK0      4     4      0
                       _ConfiguraLCD
                      _CrearCaracter
                  _DesplazaPantallaD
                      _DireccionaLCD
                       _EscribeLCD_c
                      _InicializaLCD
                     _MensajeLCD_Var
                      _OcultarCursor
 ---------------------------------------------------------------------------------
 (2) _OcultarCursor                                        0     0      0     893
                         _ComandoLCD
 ---------------------------------------------------------------------------------
 (3) _ComandoLCD                                           1     1      0     893
                                              5 BANK0      1     1      0
                           _BorraLCD
                      _CursorAInicio
                          _EnviaDato
                        _HabilitaLCD
                         _RetardoLCD
 ---------------------------------------------------------------------------------
 (4) _CursorAInicio                                        0     0      0     282
                      _DireccionaLCD
 ---------------------------------------------------------------------------------
 (2) _MensajeLCD_Var                                       6     4      2     478
                                              5 BANK0      6     4      2
                       _EscribeLCD_c
 ---------------------------------------------------------------------------------
 (3) _EscribeLCD_c                                         1     1      0     282
                                              4 BANK0      1     1      0
                          _EnviaDato
                        _HabilitaLCD
                         _RetardoLCD
 ---------------------------------------------------------------------------------
 (2) _InicializaLCD                                        0     0      0     470
                           _BorraLCD
                          _EnviaDato
                        _HabilitaLCD
                         _RetardoLCD
 ---------------------------------------------------------------------------------
 (4) _BorraLCD                                             0     0      0     235
                          _EnviaDato
                        _HabilitaLCD
                         _RetardoLCD
 ---------------------------------------------------------------------------------
 (2) _DesplazaPantallaD                                    0     0      0     235
                          _EnviaDato
                        _HabilitaLCD
                         _RetardoLCD
 ---------------------------------------------------------------------------------
 (2) _CrearCaracter                                        4     2      2     690
                                              5 BANK0      4     2      2
                      _DireccionaLCD
                          _EnviaDato
                        _HabilitaLCD
                         _RetardoLCD
 ---------------------------------------------------------------------------------
 (5) _DireccionaLCD                                        1     1      0     282
                                              4 BANK0      1     1      0
                          _EnviaDato
                        _HabilitaLCD
                         _RetardoLCD
 ---------------------------------------------------------------------------------
 (4) _EnviaDato                                            2     2      0     188
                                              2 BANK0      2     2      0
                        _HabilitaLCD
                         _RetardoLCD
 ---------------------------------------------------------------------------------
 (4) _RetardoLCD                                           2     2      0      47
                                              0 BANK0      2     2      0
 ---------------------------------------------------------------------------------
 (4) _HabilitaLCD                                          0     0      0       0
 ---------------------------------------------------------------------------------
 (2) _ConfiguraLCD                                         1     1      0     141
                                              0 BANK0      1     1      0
 ---------------------------------------------------------------------------------
 Estimated maximum stack depth 5
 ---------------------------------------------------------------------------------
 (Depth) Function   	        Calls       Base Space   Used Autos Params    Refs
 ---------------------------------------------------------------------------------
 (8) _ISR                                                 12    12      0    6289
                                             28 COMRAM    12    12      0
                             _Borrar
                     _ConfigPregunta
                         _Conversion
                       _Motor_Avance
                         _Motor_Paro
                      _Motor_Reversa
                       _PWM_Set10bit
                     _PWM_SetPercent
                            ___lldiv
                             ___lmul
                             _printf
                         i2_BorraLCD
                    i2_DireccionaLCD
                    i2_EscribeLCD_n8
                  i2_GuardarContador
                   i2_MensajeLCD_Var
                    i2_OcultarCursor
                          i2___lwdiv
 ---------------------------------------------------------------------------------
 (9) i2_MensajeLCD_Var                                     6     4      2     268
                                              5 COMRAM     6     4      2
                     i2_EscribeLCD_c
 ---------------------------------------------------------------------------------
 (9) i2_GuardarContador                                    4     0      4     101
                                              2 COMRAM     4     0      4
                     i2_EEPROM_Write
 ---------------------------------------------------------------------------------
 (10) i2_EEPROM_Write                                      2     1      1      53
                                              0 COMRAM     2     1      1
 ---------------------------------------------------------------------------------
 (9) _printf                                              19    15      4     754
                                             12 COMRAM    11     7      4
                            ___lwmod
                              _putch
                          i2___lwdiv
 ---------------------------------------------------------------------------------
 (9) i2___lwdiv                                            7     3      4     166
                                              0 COMRAM     7     3      4
 ---------------------------------------------------------------------------------
 (10) _putch                                               1     1      0      15
                                              0 COMRAM     1     1      0
 ---------------------------------------------------------------------------------
 (10) ___lwmod                                             5     1      4     161
                                              7 COMRAM     5     1      4
                          i2___lwdiv (ARG)
 ---------------------------------------------------------------------------------
 (9) _PWM_SetPercent                                       3     3      0     442
                                             25 COMRAM     3     3      0
                       _PWM_Set10bit
                            ___lldiv
                             ___lmul
 ---------------------------------------------------------------------------------
 (9) ___lmul                                              12     4      8      96
                                              0 COMRAM    12     4      8
 ---------------------------------------------------------------------------------
 (9) ___lldiv                                             13     5      8     166
                                             12 COMRAM    13     5      8
                             ___lmul (ARG)
 ---------------------------------------------------------------------------------
 (9) _Motor_Reversa                                        0     0      0      97
                       _PWM_Set10bit
 ---------------------------------------------------------------------------------
 (9) _Motor_Paro                                           0     0      0      97
                       _PWM_Set10bit
 ---------------------------------------------------------------------------------
 (10) _PWM_Set10bit                                        4     2      2      97
                                              0 COMRAM     4     2      2
 ---------------------------------------------------------------------------------
 (9) _Motor_Avance                                         0     0      0       0
 ---------------------------------------------------------------------------------
 (9) _Conversion                                           3     1      2      29
                                              0 COMRAM     3     1      2
 ---------------------------------------------------------------------------------
 (9) _ConfigPregunta                                       2     2      0    1379
                                             13 COMRAM     2     2      0
                    i2_EscribeLCD_n8
                    i2_OcultarCursor
 ---------------------------------------------------------------------------------
 (9) i2_OcultarCursor                                      0     0      0     551
                       i2_ComandoLCD
 ---------------------------------------------------------------------------------
 (9) i2_EscribeLCD_n8                                      5     4      1     828
                                              8 COMRAM     5     4      1
                        i2_EnviaDato
                      i2_HabilitaLCD
                       i2_RetardoLCD
                          i2___lbdiv
                          i2___lbmod
 ---------------------------------------------------------------------------------
 (10) i2___lbmod                                           4     3      1     172
                                              0 COMRAM     4     3      1
 ---------------------------------------------------------------------------------
 (10) i2___lbdiv                                           4     3      1     173
                                              4 COMRAM     4     3      1
                          i2___lbmod (ARG)
 ---------------------------------------------------------------------------------
 (9) _Borrar                                               0     0      0     899
                    i2_DireccionaLCD
                     i2_EscribeLCD_c
                    i2_MostrarCursor
 ---------------------------------------------------------------------------------
 (10) i2_MostrarCursor                                     0     0      0     551
                       i2_ComandoLCD
 ---------------------------------------------------------------------------------
 (10) i2_ComandoLCD                                        1     1      0     551
                                              5 COMRAM     1     1      0
                         i2_BorraLCD
                    i2_CursorAInicio
                        i2_EnviaDato
                      i2_HabilitaLCD
                       i2_RetardoLCD
 ---------------------------------------------------------------------------------
 (11) i2_CursorAInicio                                     0     0      0     174
                    i2_DireccionaLCD
 ---------------------------------------------------------------------------------
 (12) i2_DireccionaLCD                                     1     1      0     174
                                              4 COMRAM     1     1      0
                        i2_EnviaDato
                      i2_HabilitaLCD
                       i2_RetardoLCD
 ---------------------------------------------------------------------------------
 (11) i2_BorraLCD                                          0     0      0     145
                        i2_EnviaDato
                      i2_HabilitaLCD
                       i2_RetardoLCD
 ---------------------------------------------------------------------------------
 (10) i2_EscribeLCD_c                                      1     1      0     174
                                              4 COMRAM     1     1      0
                        i2_EnviaDato
                      i2_HabilitaLCD
                       i2_RetardoLCD
 ---------------------------------------------------------------------------------
 (11) i2_EnviaDato                                         2     2      0     116
                                              2 COMRAM     2     2      0
                      i2_HabilitaLCD
                       i2_RetardoLCD
 ---------------------------------------------------------------------------------
 (11) i2_RetardoLCD                                        2     2      0      29
                                              0 COMRAM     2     2      0
 ---------------------------------------------------------------------------------
 (11) i2_HabilitaLCD                                       0     0      0       0
 ---------------------------------------------------------------------------------
 Estimated maximum stack depth 12
 ---------------------------------------------------------------------------------

 Call Graph Graphs:

 _main (ROOT)
   _Bienvenida
     _ConfiguraLCD
     _CrearCaracter
       _DireccionaLCD
         _EnviaDato
           _HabilitaLCD
           _RetardoLCD
         _HabilitaLCD
         _RetardoLCD
       _EnviaDato
       _HabilitaLCD
       _RetardoLCD
     _DesplazaPantallaD
       _EnviaDato
       _HabilitaLCD
       _RetardoLCD
     _DireccionaLCD
     _EscribeLCD_c
       _EnviaDato
       _HabilitaLCD
       _RetardoLCD
     _InicializaLCD
       _BorraLCD
         _EnviaDato
         _HabilitaLCD
         _RetardoLCD
       _EnviaDato
       _HabilitaLCD
       _RetardoLCD
     _MensajeLCD_Var
       _EscribeLCD_c
     _OcultarCursor
       _ComandoLCD
         _BorraLCD
         _CursorAInicio
           _DireccionaLCD
         _EnviaDato
         _HabilitaLCD
         _RetardoLCD
   _BorraLCD
   _ConfigVariables
   _DireccionaLCD
   _EEPROM_Write
   _EscribeLCD_n8
     _EnviaDato
     _HabilitaLCD
     _RetardoLCD
     ___lbdiv
       ___lbmod (ARG)
     ___lbmod
   _GuardarContador
     _EEPROM_Write
   _LeerContador
     _EEPROM_Read
   _LeerObjetivo
     _EEPROM_Read
   _MedirDistancia
     ___lwdiv
   _MensajeLCD_Var
   _OcultarCursor
   _PreguntaAlUsuario
     _BorraLCD
     _CrearCaracter
     _DireccionaLCD
     _EscribeLCD_c
     _MensajeLCD_Var
     _MostrarCursor
       _ComandoLCD
     _OcultarCursor
   ___lwdiv

 _ISR (ROOT)
   _Borrar
     i2_DireccionaLCD
       i2_EnviaDato
         i2_HabilitaLCD
         i2_RetardoLCD
       i2_HabilitaLCD
       i2_RetardoLCD
     i2_EscribeLCD_c
       i2_EnviaDato
       i2_HabilitaLCD
       i2_RetardoLCD
     i2_MostrarCursor
       i2_ComandoLCD
         i2_BorraLCD
           i2_EnviaDato
           i2_HabilitaLCD
           i2_RetardoLCD
         i2_CursorAInicio
           i2_DireccionaLCD
         i2_EnviaDato
         i2_HabilitaLCD
         i2_RetardoLCD
   _ConfigPregunta
     i2_EscribeLCD_n8
       i2_EnviaDato
       i2_HabilitaLCD
       i2_RetardoLCD
       i2___lbdiv
         i2___lbmod (ARG)
       i2___lbmod
     i2_OcultarCursor
       i2_ComandoLCD
   _Conversion
   _Motor_Avance
   _Motor_Paro
     _PWM_Set10bit
   _Motor_Reversa
     _PWM_Set10bit
   _PWM_Set10bit
   _PWM_SetPercent
     _PWM_Set10bit
     ___lldiv
       ___lmul (ARG)
     ___lmul
   ___lldiv
   ___lmul
   _printf
     ___lwmod
       i2___lwdiv (ARG)
     _putch
     i2___lwdiv
   i2_BorraLCD
   i2_DireccionaLCD
   i2_EscribeLCD_n8
   i2_GuardarContador
     i2_EEPROM_Write
   i2_MensajeLCD_Var
     i2_EscribeLCD_c
   i2_OcultarCursor
   i2___lwdiv

Address spaces:
Name               Size   Autos  Total    Usage
BIGRAM            2047      0       0      0.0%
BITBANK7           256      0       0      0.0%
BANK7              256      0       0      0.0%
BITBANK6           256      0       0      0.0%
BANK6              256      0       0      0.0%
BITBANK5           256      0       0      0.0%
BANK5              256      0       0      0.0%
BITBANK4           256      0       0      0.0%
BANK4              256      0       0      0.0%
BITBANK3           256      0       0      0.0%
BANK3              256      0       0      0.0%
BITBANK2           256      0       0      0.0%
BANK2              256      0       0      0.0%
BITBANK1           256      0       0      0.0%
BANK1              256      0       0      0.0%
BITBANK0           160      0       0      0.0%
BANK0              160     19      27     16.9%
BITCOMRAM           94      0       0      0.0%
COMRAM              94     40      81     86.2%
BITBIGSFRh          82      0       0      0.0%
BITBIGSFRllh        36      0       0      0.0%
BITBIGSFRlll        33      0       0      0.0%
BITBIGSFRlh          6      0       0      0.0%
STACK                0      0       0      0.0%
DATA                 0      0     108      0.0%


Microchip Technology PIC18 Macro Assembler V2.50 build 20240725155939 
Symbol Table                                                                                   Mon Dec 15 16:21:14 2025

                         _d 0041           i2_GuardarContador 17C2            i2DireccionaLCD@a 0005  
                        _RD 7D30                          _WR 7D31            i2EscribeLCD_n8@a 000D  
          i2EscribeLCD_n8@b 0009                  EnviaDato@a 0063          i2___lwdiv@dividend 0001  
        ?i2_GuardarContador 0003              ??_LeerContador 0063               _InicializaLCD 0EE2  
                       l419 0532                         l391 027A                         l560 0CC6  
                       l609 16EA                         l558 0D48                         l594 102E  
                       l596 1030                         l589 101A                         _GIE 7F97  
                       _RC0 7C10                         _RC1 7C11                         _RB4 7C0C  
                       _RB5 7C0D                         _RB6 7C0E                         _RB7 7C0F  
                       _PR2 0FCB                         _ISR 0008                         _POR 7E81  
                       wreg 0FE8              ??_LeerObjetivo 0063         ??i2_GuardarContador 0007  
             _pwm_duty_perc 003B                        ?_ISR 0001            ??i2_EscribeLCD_c 0005  
                      l1142 1396                        l5002 01B8                        l5020 0238  
                      l5120 0434                        l5032 0260                        l5024 0244  
                      l5132 045E                        l5124 0440                        l5036 0270  
                      l5028 0252                        l5052 02C0                        l5062 0304  
                      l4408 147C                        l4504 0F68                        l4440 162E  
                      l4600 15AA                        l5080 0380                        l4514 13FC  
                      l5082 0384                        l4436 161E                        l4612 15C6  
                      l4604 15B0                        l5180 050A                        l5172 04F0  
                      l5076 0364                        l4390 1166                        l4518 141E  
                      l4392 1170                        l4464 0EF4                        l4616 15CE  
                      l4632 16C2                        l4624 16AA                        l5184 0518  
                      l5176 04FC                        l5168 04E4                        l5096 03C6  
                      l4386 1140                        l4546 1104                        l4474 0F12  
                      l4388 1154                        l4396 117A                        l4484 0F30  
                      l4644 1364                        l5188 0528                        l4662 0B80  
                      l4646 136C                        l5198 055A                        l4656 138C  
                      l4832 1044                        l4738 0EB2                        l4668 0BA0  
                      l4836 1058                        l4678 0BE8                        l4694 0C50  
                      l4838 1072                        l4774 0CAA                        _ADON 7E10  
                      _CFGS 7D36                _PWM_Set10bit 12A2                        STR_1 7F74  
          ?i2_OcultarCursor 0001                        STR_2 7F5A                        STR_3 7EF5  
                      STR_4 7F9B                        STR_5 7FBF                        STR_6 7FB3  
                      STR_7 7FF8                        STR_8 7FED                        STR_9 7FF8  
                      _LATB 0F8A                        _LATD 0F8C                        _LATE 0F8D  
                      u4007 1148                        u4017 1156                        u4027 115E  
                      u3420 1370                        u4037 1168                        u3350 1132  
                      u4047 1172                        u3440 0EE0                        u3520 1038  
                      u3600 01C6                        u4057 189E                        u3290 1756  
                      u3380 15B4                        u3470 0CC6                        u3720 045A  
                      u3490 1024                        u3571 013A                        _PEIE 7F96  
                      u3750 0470                        _RBIE 7F93                        _RBIF 7F90  
                      u3907 0370                        _RCIE 7CED                        _RCIF 7CF5  
                      u3917 03CE                        u3927 03FA                        u3937 04A4  
                      u3857 00AA                        u3947 04D0                        u3867 011A  
                      u3957 0552                        u3877 0182                        u3967 0CF4  
                      u3887 02AC                        u3977 0D34                        u3897 033A  
                      u3987 0E9C                        u3997 0EBE                        _RBPU 7F8F  
                      _TMR0 0FD6                        _TMR1 0FCE                        _TMR2 0FCC  
                      _TRMT 7D61                        _WREN 7D32              ??_EscribeLCD_c 0064  
                      _main 0012          i2___lwdiv@quotient 0005                        fsr2h 0FDA  
                      indf2 0FDF                        fsr1l 0FE1                        fsr2l 0FD9  
                      btemp 0052                  _Bienvenida 0E3A                        prodh 0FF4  
                      prodl 0FF3                        start 000E   __end_ofi2_GuardarContador 17D8  
            CrearCaracter@i 0067                ___param_bank 0000                       ??_ISR 001D  
      __end_of_EEPROM_Write 16F2             i2_DireccionaLCD 17D8           ??i2_EscribeLCD_n8 000A  
            ?_InicializaLCD 0001                       ?_main 0001             __end_of___lbdiv 15D2  
                     _ADRES 0FC3                       _EEADR 0FA9                       STR_10 7FE2  
                     _CCPR2 0FBB                       STR_11 7F81                       STR_12 7F8E  
                     STR_20 7E97                       STR_13 7FA7                       STR_21 7EAC  
                     STR_14 7FD7                       STR_30 7F23                       STR_22 7E77  
                     STR_23 7F67                       STR_15 7EE5                       STR_24 7F3F  
                     STR_16 7F14                       STR_17 7F67                       STR_25 7F05  
                     STR_26 7FCB                       STR_18 7F3F                       STR_27 7ED4  
                     STR_19 7EC1                       STR_28 7F4D                       STR_29 7F31  
                _ComandoLCD 160A               EscribeLCD_c@a 0064             __end_of___lbmod 16CA  
                     _EEPGD 7D37           ??_GuardarContador 0066             i2_MostrarCursor 18F4  
           __end_of___lldiv 1000                       _T0CON 0FD5                       _T1CON 0FCD  
                     _T2CON 0FCA                       _LATA1 7C49                       _LATA2 7C4A  
                     _LATA3 7C4B                       _LATA4 7C4C                       _LATC0 7C58  
                     _LATA5 7C4D                       _LATA6 7C4E             __end_of___lwdiv 13A0  
           __end_of___lwmod 155C                       i2l501 0882                       i2l520 0904  
                     i2l512 08E6                       i2l521 0A28                       i2l505 0898  
                     i2l450 0640                       i2l434 0598                       i2l507 08A0  
                     i2l524 0964                       i2l516 08F4                       i2l509 08A8  
                     i2l518 08FC                       i2l527 096C                       i2l543 0A3C  
                     i2l471 0732                       i2l609 1738                       i2l529 0A18  
                     i2l643 0A76                       i2l483 0852                       i2l468 06AA  
                     i2l494 084A                       i2l488 0804                       i2l577 176A  
                     i2l497 0872                       i2l690 0FEE                       i2l499 087A  
                     _RCREG 0FAE                       _RCSTA 0FAB                       _SPBRG 0FAF  
                     _PORTB 0F81                       _TRISB 0F93                       _TRISD 0F95  
                     _TRISE 0F96                       _TXREG 0FAD                       _TXSTA 0FAC  
       ___lmul@multiplicand 0005             ??_EscribeLCD_n8 0069                       _Tecla 0044  
   __end_of_ConfigVariables 1598             __end_of_dpowers 7E77                 ?i2_BorraLCD 0001  
                     _salir 0045                       _putch 18B6                       tablat 0FF5  
                _Conversion 175C                 _HabilitaLCD 189A                       ttemp5 0053  
                     ttemp6 0056                       ttemp7 005A                       status 0FD8  
                     wtemp8 0053               i2___lbmod@rem 0004               _Supercontador 0039  
           ___lbdiv@divisor 0064            EEPROM_Write@data 0060             ___lbdiv@counter 0066  
          __end_of_BorraLCD 1818             __initialization 1198                __end_of_main 056A  
             _CursorAInicio 18E4            i2_MensajeLCD_Var 148A       __end_of_Motor_Reversa 1840  
                    ??_main 006F        __end_of_ConfiguraLCD 175C               __activetblptr 0002  
                _RayaAlPiso 0073       __end_of_CrearCaracter 113A                      _ADCON0 0FC2  
                    _ADCON1 0FC1                      _ADCON2 0FC0                      _CCP2IF 7D08  
                    _EEDATA 0FA8              DireccionaLCD@a 0064                      _CCPR1L 0FBE  
                    _EECON2 0FA7              EscribeLCD_n8@a 006C              EscribeLCD_n8@b 0068  
                    ?_putch 0001                      i2l1142 13E8                      i2l1152 1552  
                    i2l3210 12B0                      i2l3044 1650                      i2l3060 15E2  
                    i2l4110 05CE                      i2l3048 1660                      i2l3072 15FE  
                    i2l3064 15E8                      i2l4104 05B6                      i2l3242 1270  
                    i2l4122 05FE                      i2l3076 1606                      i2l3092 1712  
                    i2l3084 16FA                      i2l3252 0FA0                      i2l3340 1530  
                    i2l4116 05E6                      i2l3254 0FAC                      i2l3238 125C  
                    i2l1734 18B8                      i2l4302 08E8                      i2l4230 0806  
                    i2l4222 07DC                      i2l4134 0630                      i2l3360 0D5A  
                    i2l3264 0FE0                      i2l3424 13B6                      i2l4320 090E  
                    i2l4240 0834                      i2l4224 07E8                      i2l4216 07CA  
                    i2l4144 0654                      i2l4128 0616                      i2l3346 1548  
                    i2l3338 1528                      i2l3426 13BE                      i2l4234 080E  
                    i2l4146 0660                      i2l3436 13DE                      i2l3366 0D7A  
                    i2l3702 1248                      i2l4350 09D2                      i2l4334 095E  
                    i2l4270 088C                      i2l4238 0822                      i2l4190 0720  
                    i2l4166 06AC                      i2l3376 0DC0                      i2l3392 0E24  
                    i2l3480 1082                      i2l3640 0A7A                      i2l4184 070A  
                    i2l3722 1494                      i2l4362 09FA                      i2l4354 09DE  
                    i2l4258 086C                      i2l2940 130C                      i2l3644 0A82  
                    i2l3636 0A66                      i2l2942 131E                      i2l3662 0ACE  
                    i2l3646 0AA8                      i2l3726 14B4                      i2l4366 0A0A  
                    i2l4358 09EC                      i2l4374 0A2C                      i2l2944 1328  
                    i2l3680 0B58                      i2l3656 0ACA                      i2l2938 12FC  
                    i2l3674 0B0A                      i2l2948 1332                      i2l3692 1210  
                    i2l3676 0B10                      i2l2974 150C                      _OSCCON 0FD3  
                    _TMR0IE 7F95                      _TMR0IF 7F92                      _TMR1IF 7CF0  
                    _TMR0ON 7EAF                      _SPBRGH 0FB0                      _TMR1ON 7E68  
                    _TRISA1 7C91                      _TRISA2 7C92                      _TRISA3 7C93  
                    _TRISC0 7CA0                      _TRISA4 7C94                      _TRISC1 7CA1  
                    _TRISA5 7C95                      _TRISC2 7CA2                      _TRISA6 7C96  
                    _TRISC6 7CA6                      _TRISC7 7CA7       __end_of_DireccionaLCD 17AC  
                _RetardoLCD 113A                 ?_Bienvenida 0001        __end_of_LeerContador 1878  
                    _Borrar 1672     __end_ofi2_DireccionaLCD 17EE       __end_of_MostrarCursor 18DC  
      __end_of_LeerObjetivo 1866                  _Motor_Paro 1878        EscribeLCD_n8@centena 0069  
            ?_CursorAInicio 0001                      ___lmul 124C     __end_ofi2_MostrarCursor 18FC  
                 ??___lbdiv 0065                   ??___lbmod 0061                   ??___lldiv 0015  
                    _editor 0046                   ??___lwdiv 0064                   ??___lwmod 000C  
           ??_InicializaLCD 0064                      clear_0 11DE                      isa$std 0001  
                    _printf 0A60        __end_of_EscribeLCD_c 1792                 ?_ComandoLCD 0001  
              ?i2_EnviaDato 0001                __pdataCOMRAM 0048           __end_ofi2___lbdiv 160A  
         __end_ofi2___lbmod 171A           __end_ofi2___lwdiv 13F2                __mediumconst 7E6C  
                    tblptrh 0FF7                      tblptrl 0FF6                      tblptru 0FF8  
          ?_ConfigVariables 0001                 _Inactividad 0043              _PWM_SetPercent 1076  
         MedirDistancia@aux 0067          PWM_Set10bit@duty10 0001            ___lbdiv@dividend 0065  
               ?_Conversion 0001            ??_MedirDistancia 0067             ___lbmod@divisor 0060  
     __end_ofi2_HabilitaLCD 18B6                  __accesstop 0060     __end_of__initialization 11E4  
           ___lbmod@counter 0062               ___rparam_used 0001  CrearCaracter@posicionCGRAM 0066  
            __pcstackCOMRAM 0001                __pidataBANK0 18CB           __end_of_EnviaDato 148A  
             __end_of_putch 18C2            ___lbdiv@quotient 0067      __end_of_PWM_SetPercent 10DA  
                 ?_BorraLCD 0001              _MensajeLCD_Var 13F2                     ??_putch 0001  
              _EEPROM_Write 16CA          PWM_SetPercent@perc 001C             MensajeLCD_Var@a 0065  
           MensajeLCD_Var@i 0069           ??i2_CursorAInicio 0006                  __pnvCOMRAM 0051  
               ?_RetardoLCD 0001                 RetardoLCD@a 0061                  _anchoPulso 002D  
                _datoSerial 0042                     ?_Borrar 0001             i2_EscribeLCD_n8 0D54  
           ??_CursorAInicio 0065            ?i2_DireccionaLCD 0001        CrearCaracter@arreglo 0065  
           _GuardarContador 17AC                 ?_Motor_Paro 0001               ?_Motor_Avance 0001  
          _objetivoGuardado 0029                     ?___lmul 0001            ?i2_MostrarCursor 0001  
                   _CCP1CON 0FBD                     _CCP2CON 0FBA                     _BAUDCON 0FB8  
            ___lmul@product 0009                     ?_printf 000D                     _GO_DONE 7E11  
           ?_PWM_SetPercent 0001      __end_of_MensajeLCD_Var 143E                ??i2_BorraLCD 0005  
                ??_BorraLCD 0064               _OcultarCursor 18DC    __end_ofi2_MensajeLCD_Var 14D4  
              ?_HabilitaLCD 0001                _ConfiguraLCD 1740                     __Hparam 0000  
     i2EscribeLCD_n8@decena 000B              ??_Motor_Avance 0001                     __Lparam 0000  
                   _Pulsado 0051      i2GuardarContador@valor 0003                     ___lbdiv 1598  
                   ___lbmod 16A0                     ___lldiv 0F7E       i2EscribeLCD_n8@unidad 000C  
                   ___lwdiv 134E                     ___lwmod 151A          __end_ofi2_BorraLCD 1854  
                   __pcinit 1198                     __ramtop 0800                     __ptext0 0012  
                   __ptext1 0C68                     __ptext2 18D4                     __ptext3 1000  
                   __ptext4 134E                     __ptext5 1854                     __ptext6 1866  
                   __ptext7 188A                     __ptext8 17AC                     __ptext9 16CA  
             ?i2_ComandoLCD 0001                     _dpowers 7E6D                   _T2CONbits 0FCA  
              _LeerContador 1866             ?_MensajeLCD_Var 0065                _LeerObjetivo 1854  
            ?_OcultarCursor 0001       __end_of_EscribeLCD_n8 0C68              __pintcode_body 056A  
      end_of_initialization 11E4     __end_ofi2_EscribeLCD_n8 0E3A             Conversion@canal 0003  
   __end_of_GuardarContador 17C2               ??_EEPROM_Read 0060               __Lmediumconst 7E6C  
                   int_func 056A                _EscribeLCD_c 1778          _control_manual_pwm 003C  
              ??_Bienvenida 006B     GuardarContador@objetivo 0064             ___lldiv@divisor 0011  
           ___lldiv@counter 0019                   _RCSTAbits 0FAB                     printf@c 0017  
                   printf@f 000D                     postdec1 0FE5                     postdec2 0FDD  
                   postinc0 0FEE                     postinc2 0FDE          i2EEPROM_Write@data 0001  
            ??i2_ComandoLCD 0006                ??_ComandoLCD 0065              _ConfigPregunta 11F2  
          ___lbmod@dividend 0061       PWM_SetPercent@val_reg 001A          __end_of_Bienvenida 0EE2  
           i2EscribeLCD_c@a 0005                   i2___lbdiv 15D2                   i2___lbmod 16F2  
         i2___lwdiv@divisor 0003                   i2___lwdiv 13A0           i2___lwdiv@counter 0007  
              ??_Conversion 0003                 ___lbmod@rem 0063                 _CCP1CONbits 0FBD  
            i2_EEPROM_Write 171A               i2ComandoLCD@a 0006               ?i2_RetardoLCD 0001  
        __end_of_ComandoLCD 1640              __end_of_Borrar 16A0         __end_of_EEPROM_Read 189A  
            __end_of___lmul 12A2           ??i2_OcultarCursor 0007               __pidataCOMRAM 18C2  
     __end_of_InicializaLCD 0F7E      __end_of_ConfigPregunta 124C          __end_of_Conversion 1778  
                 _EnviaDato 143E              __end_of_printf 0B7A             i2_CursorAInicio 18FC  
           ??_OcultarCursor 0066         start_initialization 1198                 __end_of_ISR 0A60  
      __end_of_Motor_Avance 190A                  ?i2___lbdiv 0005                  ?i2___lbmod 0001  
             ?_PWM_Set10bit 0001                  ?i2___lwdiv 0001      __end_ofi2_EEPROM_Write 1740  
          ?i2_EscribeLCD_n8 0009            ?_GuardarContador 0062              ??i2_RetardoLCD 0001  
              ??_RetardoLCD 0060          i2___lbdiv@dividend 0006                    ??_Borrar 0007  
       EscribeLCD_n8@decena 006A                ??_Motor_Paro 0005                    ??___lmul 0009  
               __pdataBANK0 0073         EscribeLCD_n8@unidad 006B            ??_PWM_SetPercent 001A  
                  ??_printf 0011             ?_ConfigPregunta 0001               _Motor_Reversa 182C  
                ?_EnviaDato 0001                 __pbssCOMRAM 0029          __end_of_RetardoLCD 1198  
             __pcstackBANK0 0060               _CrearCaracter 10DA          i2___lbdiv@quotient 0008  
            ??_PWM_Set10bit 0003          __end_of_Motor_Paro 188A             ?i2_EEPROM_Write 0001  
         ?i2_MensajeLCD_Var 0006                 _EEPROM_Read 188A        __end_ofi2_ComandoLCD 1672  
        ??i2_MensajeLCD_Var 0008               _DireccionaLCD 1792              i2_EscribeLCD_c 17EE  
          ___lwdiv@dividend 0060               _MostrarCursor 18D4       __end_of_CursorAInicio 18EC  
                 __pintcode 0008               __pmediumconst 7E6C                    ?___lbdiv 0064  
                  ?___lbmod 0060                    ?___lldiv 000D     __end_ofi2_CursorAInicio 1904  
                  ?___lwdiv 0060                    ?___lwmod 0008              ?_Motor_Reversa 0001  
          ??_MensajeLCD_Var 0067              ?_CrearCaracter 0065            ___lwdiv@quotient 0065  
               ??i2___lbdiv 0006           _PreguntaAlUsuario 0C68                 ??i2___lbmod 0002  
               ??i2___lwdiv 0005          ?_PreguntaAlUsuario 0001               i2_HabilitaLCD 18A8  
            ?_DireccionaLCD 0001      __end_ofi2_EscribeLCD_c 1804                   _valorADC2 002F  
                  i2u202_40 13C2                    i2u220_40 0AF8                    i2u222_40 0B60  
       ??_PreguntaAlUsuario 006B                    i2u322_40 0A24                    i2u410_47 1320  
                  i2u323_45 0A26                    i2u411_47 132A                    i2u172_40 15EC  
                  i2u412_47 18AC                    i2u406_47 0A32                    i2u271_40 060E  
                  i2u263_40 05AE                    i2u407_47 1302                    i2u408_47 130E  
                  i2u273_40 0626                    i2u265_40 05C6                    i2u409_47 1316  
                  i2u282_40 06C2                    i2u275_40 063E                    i2u267_40 05DE  
                  i2u188_40 0FB0                    i2u284_40 071A              ?_MostrarCursor 0001  
                  i2u269_40 05F6                    i2u198_40 1534                    i2u286_40 072E  
                  i2u279_40 0670                    i2u288_40 074A                    i2u289_45 074C  
         ??_ConfigVariables 0060                 _contadorRGB 0035               ??i2_EnviaDato 0003  
      __end_ofi2_RetardoLCD 134E                 ??_EnviaDato 0062                  printf@flag 0013  
                printf@prec 0014   __end_of_PreguntaAlUsuario 0D54               _valorGuardado 002B  
                  _BorraLCD 1804           ___lmul@multiplier 0001                   copy_data0 11AC  
                 copy_data1 11CC              ?i2_HabilitaLCD 0001                    _Objetivo 0033  
                  _Estrella 0049           _DesplazaPantallaD 1818             ?i2_EscribeLCD_c 0001  
           i2_OcultarCursor 18EC       i2EEPROM_Write@address 0002                    __Hrparam 0000  
        ?_DesplazaPantallaD 0001           i2___lbdiv@divisor 0005      i2EscribeLCD_n8@centena 000A  
               Bienvenida@i 006D           i2___lbdiv@counter 0007                    __Lrparam 0000  
              _Motor_Avance 1904        __end_of_PWM_Set10bit 12F8        GuardarContador@valor 0062  
          ?i2_CursorAInicio 0001             ??_Motor_Reversa 0005         ??_DesplazaPantallaD 0064  
              i2EnviaDato@a 0004             ??_CrearCaracter 0067               ConfiguraLCD@a 0060  
 i2GuardarContador@objetivo 0005           ??i2_DireccionaLCD 0005             ___lwdiv@divisor 0062  
           ___lwdiv@counter 0064                    __ptext10 0B7A                    __ptext11 16A0  
                  __ptext20 0EE2                    __ptext12 1598                    __ptext21 1804  
                  __ptext13 155C                    __ptext30 148A                    __ptext22 1818  
                  __ptext14 0E3A                    __ptext31 17C2                    __ptext23 10DA  
                  __ptext15 18DC                    __ptext40 182C                    __ptext32 171A  
                  __ptext24 1792                    __ptext16 160A                    __ptext41 1878  
                  __ptext33 0A60                    __ptext25 143E                    __ptext17 18E4  
                  __ptext50 1672                    __ptext42 12A2                    __ptext34 13A0  
                  __ptext26 113A                    __ptext18 13F2                    __ptext51 18F4  
                  __ptext43 1904                    __ptext35 18B6                    __ptext27 189A  
                  __ptext19 1778                    __ptext52 1640                    __ptext44 175C  
                  __ptext36 151A                    __ptext28 1740                    __ptext53 18FC  
                  __ptext45 11F2                    __ptext37 1076                    __ptext54 17D8  
                  __ptext46 18EC                    __ptext38 124C                    __ptext55 1840  
                  __ptext47 0D54                    __ptext39 0F7E                    __ptext56 17EE  
                  __ptext48 16F2                    __ptext57 14D4                    __ptext49 15D2  
                  __ptext58 12F8                    __ptext59 18A8         __end_ofi2_EnviaDato 151A  
             ?_EEPROM_Write 0060           ??i2_MostrarCursor 0007                    _contador 0037  
        i2___lbmod@dividend 0002                    _ctimeout 003F             ??_DireccionaLCD 0064  
 __end_of_DesplazaPantallaD 182C                    _etimeout 0040                    _interfaz 0048  
               _modoReversa 003D             ??_MostrarCursor 0066               _porcentajeADC 003E  
                  _valorADC 0031                    isa$xinst 0000              _MedirDistancia 1000  
                  _posicion 0047            ??_ConfigPregunta 000E                    int$flags 0052  
                 printf@val 0015                i2_ComandoLCD 1640                   putch@data 0001  
          ??i2_EEPROM_Write 0002       __end_of_OcultarCursor 18E4              ??_EEPROM_Write 0061  
             _EscribeLCD_n8 0B7A     __end_ofi2_OcultarCursor 18F4             ??i2_HabilitaLCD 0001  
                  intlevel2 0000               ??_HabilitaLCD 0060                 ComandoLCD@a 0065  
          ___lwmod@dividend 0008                ?_EEPROM_Read 0001            ___lldiv@dividend 000D  
             ?_ConfiguraLCD 0001           i2___lbmod@divisor 0001           i2___lbmod@counter 0003  
             i2RetardoLCD@a 0002      __end_of_MedirDistancia 1076          EEPROM_Read@address 0060  
                  printf@ap 0012               ?_LeerContador 0061                 i2_EnviaDato 14D4  
          ___lldiv@quotient 0015             ___lwmod@divisor 000A             ___lwmod@counter 000C  
             ?_LeerObjetivo 0061              ?_EscribeLCD_n8 0068                  i2_BorraLCD 1840  
            ??_ConfiguraLCD 0060               ?_EscribeLCD_c 0001             _ConfigVariables 155C  
         i2MensajeLCD_Var@a 0006           i2MensajeLCD_Var@i 000A                i2_RetardoLCD 12F8  
           ?_MedirDistancia 0001         EEPROM_Write@address 0061         __end_of_HabilitaLCD 18A8  
