

Microchip MPLAB XC8 Assembler V2.50 build 20240725155939 
                                                                                               Thu Dec 04 12:11:25 2025

Microchip MPLAB XC8 C Compiler v2.50 (Free license) build 20240725155939 Og9 
     1                           	processor	18F4550
     2                           	fnconf	rparam,??,?,0
     3                           	pagewidth 120
     4                           	opt	flic
     5                           	psect	idataCOMRAM,global,class=CODE,space=0,delta=1,noexec
     6                           	psect	idataBANK0,global,class=CODE,space=0,delta=1,noexec
     7                           	psect	mediumconst,global,reloc=2,class=MEDIUMCONST,space=0,delta=1,noexec
     8                           	psect	nvCOMRAM,global,class=COMRAM,space=1,delta=1,lowdata,noexec
     9                           	psect	cinit,global,reloc=2,class=CODE,space=0,delta=1
    10                           	psect	bssCOMRAM,global,class=COMRAM,space=1,delta=1,lowdata,noexec
    11                           	psect	dataCOMRAM,global,class=COMRAM,space=1,delta=1,lowdata,noexec
    12                           	psect	dataBANK0,global,class=BANK0,space=1,delta=1,lowdata,noexec
    13                           	psect	cstackBANK0,global,class=BANK0,space=1,delta=1,lowdata,noexec
    14                           	psect	cstackCOMRAM,global,class=COMRAM,space=1,delta=1,lowdata,noexec
    15                           	psect	text0,global,reloc=2,class=CODE,space=0,delta=1
    16                           	psect	text1,global,reloc=2,class=CODE,space=0,delta=1,group=1
    17                           	psect	text2,global,reloc=2,class=CODE,space=0,delta=1
    18                           	psect	text3,global,reloc=2,class=CODE,space=0,delta=1,group=2
    19                           	psect	text4,global,reloc=2,class=CODE,space=0,delta=1,group=2
    20                           	psect	text5,global,reloc=2,class=CODE,space=0,delta=1,group=2
    21                           	psect	text6,global,reloc=2,class=CODE,space=0,delta=1,group=2
    22                           	psect	text7,global,reloc=2,class=CODE,space=0,delta=1
    23                           	psect	text8,global,reloc=2,class=CODE,space=0,delta=1
    24                           	psect	text9,global,reloc=2,class=CODE,space=0,delta=1
    25                           	psect	text10,global,reloc=2,class=CODE,space=0,delta=1
    26                           	psect	text11,global,reloc=2,class=CODE,space=0,delta=1
    27                           	psect	text12,global,reloc=2,class=CODE,space=0,delta=1
    28                           	psect	text13,global,reloc=2,class=CODE,space=0,delta=1,group=2
    29                           	psect	text14,global,reloc=2,class=CODE,space=0,delta=1,group=2
    30                           	psect	text15,global,reloc=2,class=CODE,space=0,delta=1
    31                           	psect	text16,global,reloc=2,class=CODE,space=0,delta=1
    32                           	psect	text17,global,reloc=2,class=CODE,space=0,delta=1
    33                           	psect	text18,global,reloc=2,class=CODE,space=0,delta=1
    34                           	psect	text19,global,reloc=2,class=CODE,space=0,delta=1
    35                           	psect	text20,global,reloc=2,class=CODE,space=0,delta=1
    36                           	psect	text21,global,reloc=2,class=CODE,space=0,delta=1
    37                           	psect	text22,global,reloc=2,class=CODE,space=0,delta=1
    38                           	psect	text23,global,reloc=2,class=CODE,space=0,delta=1
    39                           	psect	text24,global,reloc=2,class=CODE,space=0,delta=1
    40                           	psect	text25,global,reloc=2,class=CODE,space=0,delta=1
    41                           	psect	text26,global,reloc=2,class=CODE,space=0,delta=1
    42                           	psect	text27,global,reloc=2,class=CODE,space=0,delta=1
    43                           	psect	text28,global,reloc=2,class=CODE,space=0,delta=1
    44                           	psect	text29,global,reloc=2,class=CODE,space=0,delta=1
    45                           	psect	text30,global,reloc=2,class=CODE,space=0,delta=1
    46                           	psect	text31,global,reloc=2,class=CODE,space=0,delta=1
    47                           	psect	text32,global,reloc=2,class=CODE,space=0,delta=1
    48                           	psect	text33,global,reloc=2,class=CODE,space=0,delta=1
    49                           	psect	intcode,global,reloc=2,class=CODE,space=0,delta=1
    50                           	psect	intcode_body,global,reloc=2,class=CODE,space=0,delta=1
    51                           	psect	text35,global,reloc=2,class=CODE,space=0,delta=1
    52                           	psect	text36,global,reloc=2,class=CODE,space=0,delta=1
    53                           	psect	text37,global,reloc=2,class=CODE,space=0,delta=1
    54                           	psect	text38,global,reloc=2,class=CODE,space=0,delta=1
    55                           	psect	text39,global,reloc=2,class=CODE,space=0,delta=1
    56                           	psect	text40,global,reloc=2,class=CODE,space=0,delta=1
    57                           	psect	text41,global,reloc=2,class=CODE,space=0,delta=1
    58                           	psect	text42,global,reloc=2,class=CODE,space=0,delta=1
    59                           	psect	text43,global,reloc=2,class=CODE,space=0,delta=1
    60                           	psect	text44,global,reloc=2,class=CODE,space=0,delta=1
    61                           	psect	text45,global,reloc=2,class=CODE,space=0,delta=1
    62                           	psect	text46,global,reloc=2,class=CODE,space=0,delta=1
    63                           	psect	text47,global,reloc=2,class=CODE,space=0,delta=1
    64                           	psect	text48,global,reloc=2,class=CODE,space=0,delta=1
    65                           	psect	text49,global,reloc=2,class=CODE,space=0,delta=1
    66                           	psect	text50,global,reloc=2,class=CODE,space=0,delta=1
    67                           	psect	text51,global,reloc=2,class=CODE,space=0,delta=1
    68                           	psect	text52,global,reloc=2,class=CODE,space=0,delta=1
    69                           	psect	text53,global,reloc=2,class=CODE,space=0,delta=1
    70                           	psect	text54,global,reloc=2,class=CODE,space=0,delta=1
    71                           	psect	intsave_regs,global,class=BIGRAM,space=1,delta=1,noexec
    72                           	psect	rparam,global,class=COMRAM,space=1,delta=1,noexec
    73                           	psect	temp,global,ovrld,common,class=COMRAM,space=1,delta=1,lowdata
    74                           	psect	idloc,global,abs,ovrld,class=IDLOC,space=5,delta=1,noexec
    75                           	psect	config,global,abs,ovrld,class=CONFIG,space=4,delta=1,noexec
    76   000000                     
    77                           ; Generated 25/07/2024 GMT
    78                           ; 
    79                           ; Copyright © 2024, Microchip Technology Inc. and its subsidiaries ("Microchip")
    80                           ; All rights reserved.
    81                           ; 
    82                           ; This software is developed by Microchip Technology Inc. and its subsidiaries ("Microch
      +                          ip").
    83                           ; 
    84                           ; Redistribution and use in source and binary forms, with or without modification, are
    85                           ; permitted provided that the following conditions are met:
    86                           ; 
    87                           ;     1. Redistributions of source code must retain the above copyright notice, this lis
      +                          t of
    88                           ;        conditions and the following disclaimer.
    89                           ; 
    90                           ;     2. Redistributions in binary form must reproduce the above copyright notice, this 
      +                          list
    91                           ;        of conditions and the following disclaimer in the documentation and/or other
    92                           ;        materials provided with the distribution. Publication is not required when
    93                           ;        this file is used in an embedded application.
    94                           ; 
    95                           ;     3. Microchip's name may not be used to endorse or promote products derived from th
      +                          is
    96                           ;        software without specific prior written permission.
    97                           ; 
    98                           ; THIS SOFTWARE IS PROVIDED BY MICROCHIP "AS IS" AND ANY EXPRESS OR IMPLIED WARRANTIES,
    99                           ; INCLUDING, BUT NOT LIMITED TO, THE IMPLIED WARRANTIES OF MERCHANTABILITY AND FITNESS F
      +                          OR
   100                           ; PURPOSE ARE DISCLAIMED.  IN NO EVENT SHALL MICROCHIP BE LIABLE FOR ANY DIRECT, INDIREC
      +                          T,
   101                           ; INCIDENTAL, SPECIAL, EXEMPLARY, OR CONSEQUENTIAL DAMAGES (INCLUDING BUT NOT LIMITED TO
   102                           ; PROCUREMENT OF SUBSTITUTE GOODS OR SERVICES; LOSS OF USE, DATA OR PROFITS; OR BUSINESS
   103                           ; INTERRUPTION) HOWSOEVER CAUSED AND ON ANY THEORY OF LIABILITY, WHETHER IN CONTRACT, ST
      +                          RICT
   104                           ; LIABILITY, OR TORT (INCLUDING NEGLIGENCE OR OTHERWISE) ARISING IN ANY WAY OUT OF THE U
      +                          SE OF
   105                           ; THIS SOFTWARE, EVEN IF ADVISED OF THE POSSIBILITY OF SUCH DAMAGE.
   106                           ; 
   107                           ; 
   108                           ; Code-generator required, PIC18F4550 Definitions
   109                           ; 
   110                           ; SFR Addresses
   111   000FE0                     bsr             equ	4064
   112   000FE9                     fsr0            equ	4073
   113   000FEA                     fsr0h           equ	4074
   114   000FE9                     fsr0l           equ	4073
   115   000FE1                     fsr1            equ	4065
   116   000FE2                     fsr1h           equ	4066
   117   000FE1                     fsr1l           equ	4065
   118   000FD9                     fsr2            equ	4057
   119   000FDA                     fsr2h           equ	4058
   120   000FD9                     fsr2l           equ	4057
   121   000FEF                     indf0           equ	4079
   122   000FE7                     indf1           equ	4071
   123   000FDF                     indf2           equ	4063
   124   000FF2                     intcon          equ	4082
   125   000000                     nvmcon          equ	0
   126   000FF9                     pcl             equ	4089
   127   000FFA                     pclath          equ	4090
   128   000FFB                     pclatu          equ	4091
   129   000FEB                     plusw0          equ	4075
   130   000FE3                     plusw1          equ	4067
   131   000FDB                     plusw2          equ	4059
   132   000FED                     postdec0        equ	4077
   133   000FE5                     postdec1        equ	4069
   134   000FDD                     postdec2        equ	4061
   135   000FEE                     postinc0        equ	4078
   136   000FE6                     postinc1        equ	4070
   137   000FDE                     postinc2        equ	4062
   138   000FEC                     preinc0         equ	4076
   139   000FE4                     preinc1         equ	4068
   140   000FDC                     preinc2         equ	4060
   141   000FF3                     prod            equ	4083
   142   000FF4                     prodh           equ	4084
   143   000FF3                     prodl           equ	4083
   144   000FD8                     status          equ	4056
   145   000FF5                     tablat          equ	4085
   146   000FF6                     tblptr          equ	4086
   147   000FF7                     tblptrh         equ	4087
   148   000FF6                     tblptrl         equ	4086
   149   000FF8                     tblptru         equ	4088
   150   000FFD                     tosl            equ	4093
   151   000FE8                     wreg            equ	4072
   152   000F62                     SPPDATA         equ	3938	;# 
   153   000F63                     SPPCFG          equ	3939	;# 
   154   000F64                     SPPEPS          equ	3940	;# 
   155   000F65                     SPPCON          equ	3941	;# 
   156   000F66                     UFRM            equ	3942	;# 
   157   000F66                     UFRML           equ	3942	;# 
   158   000F67                     UFRMH           equ	3943	;# 
   159   000F68                     UIR             equ	3944	;# 
   160   000F69                     UIE             equ	3945	;# 
   161   000F6A                     UEIR            equ	3946	;# 
   162   000F6B                     UEIE            equ	3947	;# 
   163   000F6C                     USTAT           equ	3948	;# 
   164   000F6D                     UCON            equ	3949	;# 
   165   000F6E                     UADDR           equ	3950	;# 
   166   000F6F                     UCFG            equ	3951	;# 
   167   000F70                     UEP0            equ	3952	;# 
   168   000F71                     UEP1            equ	3953	;# 
   169   000F72                     UEP2            equ	3954	;# 
   170   000F73                     UEP3            equ	3955	;# 
   171   000F74                     UEP4            equ	3956	;# 
   172   000F75                     UEP5            equ	3957	;# 
   173   000F76                     UEP6            equ	3958	;# 
   174   000F77                     UEP7            equ	3959	;# 
   175   000F78                     UEP8            equ	3960	;# 
   176   000F79                     UEP9            equ	3961	;# 
   177   000F7A                     UEP10           equ	3962	;# 
   178   000F7B                     UEP11           equ	3963	;# 
   179   000F7C                     UEP12           equ	3964	;# 
   180   000F7D                     UEP13           equ	3965	;# 
   181   000F7E                     UEP14           equ	3966	;# 
   182   000F7F                     UEP15           equ	3967	;# 
   183   000F80                     PORTA           equ	3968	;# 
   184   000F81                     PORTB           equ	3969	;# 
   185   000F82                     PORTC           equ	3970	;# 
   186   000F83                     PORTD           equ	3971	;# 
   187   000F84                     PORTE           equ	3972	;# 
   188   000F89                     LATA            equ	3977	;# 
   189   000F8A                     LATB            equ	3978	;# 
   190   000F8B                     LATC            equ	3979	;# 
   191   000F8C                     LATD            equ	3980	;# 
   192   000F8D                     LATE            equ	3981	;# 
   193   000F92                     TRISA           equ	3986	;# 
   194   000F92                     DDRA            equ	3986	;# 
   195   000F93                     TRISB           equ	3987	;# 
   196   000F93                     DDRB            equ	3987	;# 
   197   000F94                     TRISC           equ	3988	;# 
   198   000F94                     DDRC            equ	3988	;# 
   199   000F95                     TRISD           equ	3989	;# 
   200   000F95                     DDRD            equ	3989	;# 
   201   000F96                     TRISE           equ	3990	;# 
   202   000F96                     DDRE            equ	3990	;# 
   203   000F9B                     OSCTUNE         equ	3995	;# 
   204   000F9D                     PIE1            equ	3997	;# 
   205   000F9E                     PIR1            equ	3998	;# 
   206   000F9F                     IPR1            equ	3999	;# 
   207   000FA0                     PIE2            equ	4000	;# 
   208   000FA1                     PIR2            equ	4001	;# 
   209   000FA2                     IPR2            equ	4002	;# 
   210   000FA6                     EECON1          equ	4006	;# 
   211   000FA7                     EECON2          equ	4007	;# 
   212   000FA8                     EEDATA          equ	4008	;# 
   213   000FA9                     EEADR           equ	4009	;# 
   214   000FAB                     RCSTA           equ	4011	;# 
   215   000FAB                     RCSTA1          equ	4011	;# 
   216   000FAC                     TXSTA           equ	4012	;# 
   217   000FAC                     TXSTA1          equ	4012	;# 
   218   000FAD                     TXREG           equ	4013	;# 
   219   000FAD                     TXREG1          equ	4013	;# 
   220   000FAE                     RCREG           equ	4014	;# 
   221   000FAE                     RCREG1          equ	4014	;# 
   222   000FAF                     SPBRG           equ	4015	;# 
   223   000FAF                     SPBRG1          equ	4015	;# 
   224   000FB0                     SPBRGH          equ	4016	;# 
   225   000FB1                     T3CON           equ	4017	;# 
   226   000FB2                     TMR3            equ	4018	;# 
   227   000FB2                     TMR3L           equ	4018	;# 
   228   000FB3                     TMR3H           equ	4019	;# 
   229   000FB4                     CMCON           equ	4020	;# 
   230   000FB5                     CVRCON          equ	4021	;# 
   231   000FB6                     ECCP1AS         equ	4022	;# 
   232   000FB6                     CCP1AS          equ	4022	;# 
   233   000FB7                     ECCP1DEL        equ	4023	;# 
   234   000FB7                     CCP1DEL         equ	4023	;# 
   235   000FB8                     BAUDCON         equ	4024	;# 
   236   000FB8                     BAUDCTL         equ	4024	;# 
   237   000FBA                     CCP2CON         equ	4026	;# 
   238   000FBB                     CCPR2           equ	4027	;# 
   239   000FBB                     CCPR2L          equ	4027	;# 
   240   000FBC                     CCPR2H          equ	4028	;# 
   241   000FBD                     CCP1CON         equ	4029	;# 
   242   000FBD                     ECCP1CON        equ	4029	;# 
   243   000FBE                     CCPR1           equ	4030	;# 
   244   000FBE                     CCPR1L          equ	4030	;# 
   245   000FBF                     CCPR1H          equ	4031	;# 
   246   000FC0                     ADCON2          equ	4032	;# 
   247   000FC1                     ADCON1          equ	4033	;# 
   248   000FC2                     ADCON0          equ	4034	;# 
   249   000FC3                     ADRES           equ	4035	;# 
   250   000FC3                     ADRESL          equ	4035	;# 
   251   000FC4                     ADRESH          equ	4036	;# 
   252   000FC5                     SSPCON2         equ	4037	;# 
   253   000FC6                     SSPCON1         equ	4038	;# 
   254   000FC7                     SSPSTAT         equ	4039	;# 
   255   000FC8                     SSPADD          equ	4040	;# 
   256   000FC9                     SSPBUF          equ	4041	;# 
   257   000FCA                     T2CON           equ	4042	;# 
   258   000FCB                     PR2             equ	4043	;# 
   259   000FCB                     MEMCON          equ	4043	;# 
   260   000FCC                     TMR2            equ	4044	;# 
   261   000FCD                     T1CON           equ	4045	;# 
   262   000FCE                     TMR1            equ	4046	;# 
   263   000FCE                     TMR1L           equ	4046	;# 
   264   000FCF                     TMR1H           equ	4047	;# 
   265   000FD0                     RCON            equ	4048	;# 
   266   000FD1                     WDTCON          equ	4049	;# 
   267   000FD2                     HLVDCON         equ	4050	;# 
   268   000FD2                     LVDCON          equ	4050	;# 
   269   000FD3                     OSCCON          equ	4051	;# 
   270   000FD5                     T0CON           equ	4053	;# 
   271   000FD6                     TMR0            equ	4054	;# 
   272   000FD6                     TMR0L           equ	4054	;# 
   273   000FD7                     TMR0H           equ	4055	;# 
   274   000FD8                     STATUS          equ	4056	;# 
   275   000FD9                     FSR2            equ	4057	;# 
   276   000FD9                     FSR2L           equ	4057	;# 
   277   000FDA                     FSR2H           equ	4058	;# 
   278   000FDB                     PLUSW2          equ	4059	;# 
   279   000FDC                     PREINC2         equ	4060	;# 
   280   000FDD                     POSTDEC2        equ	4061	;# 
   281   000FDE                     POSTINC2        equ	4062	;# 
   282   000FDF                     INDF2           equ	4063	;# 
   283   000FE0                     BSR             equ	4064	;# 
   284   000FE1                     FSR1            equ	4065	;# 
   285   000FE1                     FSR1L           equ	4065	;# 
   286   000FE2                     FSR1H           equ	4066	;# 
   287   000FE3                     PLUSW1          equ	4067	;# 
   288   000FE4                     PREINC1         equ	4068	;# 
   289   000FE5                     POSTDEC1        equ	4069	;# 
   290   000FE6                     POSTINC1        equ	4070	;# 
   291   000FE7                     INDF1           equ	4071	;# 
   292   000FE8                     WREG            equ	4072	;# 
   293   000FE9                     FSR0            equ	4073	;# 
   294   000FE9                     FSR0L           equ	4073	;# 
   295   000FEA                     FSR0H           equ	4074	;# 
   296   000FEB                     PLUSW0          equ	4075	;# 
   297   000FEC                     PREINC0         equ	4076	;# 
   298   000FED                     POSTDEC0        equ	4077	;# 
   299   000FEE                     POSTINC0        equ	4078	;# 
   300   000FEF                     INDF0           equ	4079	;# 
   301   000FF0                     INTCON3         equ	4080	;# 
   302   000FF1                     INTCON2         equ	4081	;# 
   303   000FF2                     INTCON          equ	4082	;# 
   304   000FF3                     PROD            equ	4083	;# 
   305   000FF3                     PRODL           equ	4083	;# 
   306   000FF4                     PRODH           equ	4084	;# 
   307   000FF5                     TABLAT          equ	4085	;# 
   308   000FF6                     TBLPTR          equ	4086	;# 
   309   000FF6                     TBLPTRL         equ	4086	;# 
   310   000FF7                     TBLPTRH         equ	4087	;# 
   311   000FF8                     TBLPTRU         equ	4088	;# 
   312   000FF9                     PCLAT           equ	4089	;# 
   313   000FF9                     PC              equ	4089	;# 
   314   000FF9                     PCL             equ	4089	;# 
   315   000FFA                     PCLATH          equ	4090	;# 
   316   000FFB                     PCLATU          equ	4091	;# 
   317   000FFC                     STKPTR          equ	4092	;# 
   318   000FFD                     TOS             equ	4093	;# 
   319   000FFD                     TOSL            equ	4093	;# 
   320   000FFE                     TOSH            equ	4094	;# 
   321   000FFF                     TOSU            equ	4095	;# 
   322                           
   323                           	psect	idataCOMRAM
   324   0018C2                     __pidataCOMRAM:
   325                           	callstack 0
   326                           
   327                           ;initializer for _interfaz
   328   0018C2  08                 	db	8
   329                           
   330                           	psect	idataBANK0
   331   00181A                     __pidataBANK0:
   332                           	callstack 0
   333                           
   334                           ;initializer for _RayaAlPiso
   335   00181A  00                 	db	0
   336   00181B  00                 	db	0
   337   00181C  00                 	db	0
   338   00181D  00                 	db	0
   339   00181E  00                 	db	0
   340   00181F  00                 	db	0
   341   001820  00                 	db	0
   342   001821  1F                 	db	31
   343                           
   344                           ;initializer for _Corazon
   345   001822  0A                 	db	10
   346   001823  1F                 	db	31
   347   001824  1F                 	db	31
   348   001825  1F                 	db	31
   349   001826  0E                 	db	14
   350   001827  04                 	db	4
   351   001828  00                 	db	0
   352   001829  00                 	db	0
   353                           
   354                           	psect	mediumconst
   355   007EC0                     __pmediumconst:
   356                           	callstack 0
   357   007EC0  00                 	db	0
   358   007EC1                     _dpowers:
   359                           	callstack 0
   360   007EC1  0001               	dw	1
   361   007EC3  000A               	dw	10
   362   007EC5  0064               	dw	100
   363   007EC7  03E8               	dw	1000
   364   007EC9  2710               	dw	10000
   365   007ECB                     __end_of_dpowers:
   366                           	callstack 0
   367   007ECB                     STR_8:
   368   007ECB  0D                 	db	13
   369   007ECC  0A                 	db	10
   370   007ECD  44                 	db	68	;'D'
   371   007ECE  69                 	db	105	;'i'
   372   007ECF  73                 	db	115	;'s'
   373   007ED0  74                 	db	116	;'t'
   374   007ED1  61                 	db	97	;'a'
   375   007ED2  6E                 	db	110	;'n'
   376   007ED3  63                 	db	99	;'c'
   377   007ED4  69                 	db	105	;'i'
   378   007ED5  61                 	db	97	;'a'
   379   007ED6  20                 	db	32
   380   007ED7  6F                 	db	111	;'o'
   381   007ED8  62                 	db	98	;'b'
   382   007ED9  6A                 	db	106	;'j'
   383   007EDA  65                 	db	101	;'e'
   384   007EDB  74                 	db	116	;'t'
   385   007EDC  6F                 	db	111	;'o'
   386   007EDD  3A                 	db	58	;':'
   387   007EDE  20                 	db	32
   388   007EDF  25                 	db	37
   389   007EE0  64                 	db	100	;'d'
   390   007EE1  20                 	db	32
   391   007EE2  63                 	db	99	;'c'
   392   007EE3  6D                 	db	109	;'m'
   393   007EE4  00                 	db	0
   394   007EE5                     STR_7:
   395   007EE5  0D                 	db	13
   396   007EE6  0A                 	db	10
   397   007EE7  56                 	db	86	;'V'
   398   007EE8  61                 	db	97	;'a'
   399   007EE9  6C                 	db	108	;'l'
   400   007EEA  6F                 	db	111	;'o'
   401   007EEB  72                 	db	114	;'r'
   402   007EEC  20                 	db	32
   403   007EED  64                 	db	100	;'d'
   404   007EEE  65                 	db	101	;'e'
   405   007EEF  20                 	db	32
   406   007EF0  50                 	db	80	;'P'
   407   007EF1  57                 	db	87	;'W'
   408   007EF2  4D                 	db	77	;'M'
   409   007EF3  3A                 	db	58	;':'
   410   007EF4  20                 	db	32
   411   007EF5  25                 	db	37
   412   007EF6  64                 	db	100	;'d'
   413   007EF7  20                 	db	32
   414   007EF8  25                 	db	37
   415   007EF9  25                 	db	37
   416   007EFA  00                 	db	0
   417   007EFB                     STR_4:
   418   007EFB  20                 	db	32
   419   007EFC  28                 	db	40
   420   007EFD  45                 	db	69	;'E'
   421   007EFE  45                 	db	69	;'E'
   422   007EFF  50                 	db	80	;'P'
   423   007F00  52                 	db	82	;'R'
   424   007F01  4F                 	db	79	;'O'
   425   007F02  4D                 	db	77	;'M'
   426   007F03  20                 	db	32
   427   007F04  6E                 	db	110	;'n'
   428   007F05  6F                 	db	111	;'o'
   429   007F06  20                 	db	32
   430   007F07  76                 	db	118	;'v'
   431   007F08  61                 	db	97	;'a'
   432   007F09  6C                 	db	108	;'l'
   433   007F0A  69                 	db	105	;'i'
   434   007F0B  64                 	db	100	;'d'
   435   007F0C  61                 	db	97	;'a'
   436   007F0D  29                 	db	41
   437   007F0E  00                 	db	0
   438   007F0F                     STR_3:
   439   007F0F  20                 	db	32
   440   007F10  43                 	db	67	;'C'
   441   007F11  75                 	db	117	;'u'
   442   007F12  65                 	db	101	;'e'
   443   007F13  6E                 	db	110	;'n'
   444   007F14  74                 	db	116	;'t'
   445   007F15  61                 	db	97	;'a'
   446   007F16  20                 	db	32
   447   007F17  72                 	db	114	;'r'
   448   007F18  65                 	db	101	;'e'
   449   007F19  69                 	db	105	;'i'
   450   007F1A  6E                 	db	110	;'n'
   451   007F1B  69                 	db	105	;'i'
   452   007F1C  63                 	db	99	;'c'
   453   007F1D  69                 	db	105	;'i'
   454   007F1E  61                 	db	97	;'a'
   455   007F1F  64                 	db	100	;'d'
   456   007F20  61                 	db	97	;'a'
   457   007F21  00                 	db	0
   458   007F22                     STR_1:
   459   007F22  52                 	db	82	;'R'
   460   007F23  65                 	db	101	;'e'
   461   007F24  63                 	db	99	;'c'
   462   007F25  75                 	db	117	;'u'
   463   007F26  70                 	db	112	;'p'
   464   007F27  65                 	db	101	;'e'
   465   007F28  72                 	db	114	;'r'
   466   007F29  61                 	db	97	;'a'
   467   007F2A  72                 	db	114	;'r'
   468   007F2B  20                 	db	32
   469   007F2C  63                 	db	99	;'c'
   470   007F2D  6F                 	db	111	;'o'
   471   007F2E  6E                 	db	110	;'n'
   472   007F2F  74                 	db	116	;'t'
   473   007F30  65                 	db	101	;'e'
   474   007F31  6F                 	db	111	;'o'
   475   007F32  3F                 	db	63	;'?'
   476   007F33  00                 	db	0
   477   007F34                     STR_21:
   478   007F34  50                 	db	80	;'P'
   479   007F35  69                 	db	105	;'i'
   480   007F36  65                 	db	101	;'e'
   481   007F37  7A                 	db	122	;'z'
   482   007F38  61                 	db	97	;'a'
   483   007F39  73                 	db	115	;'s'
   484   007F3A  20                 	db	32
   485   007F3B  61                 	db	97	;'a'
   486   007F3C  20                 	db	32
   487   007F3D  63                 	db	99	;'c'
   488   007F3E  6F                 	db	111	;'o'
   489   007F3F  6E                 	db	110	;'n'
   490   007F40  74                 	db	116	;'t'
   491   007F41  61                 	db	97	;'a'
   492   007F42  72                 	db	114	;'r'
   493   007F43  3A                 	db	58	;':'
   494   007F44  00                 	db	0
   495   007F45                     STR_13:
   496   007F45  43                 	db	67	;'C'
   497   007F46  75                 	db	117	;'u'
   498   007F47  65                 	db	101	;'e'
   499   007F48  6E                 	db	110	;'n'
   500   007F49  74                 	db	116	;'t'
   501   007F4A  61                 	db	97	;'a'
   502   007F4B  20                 	db	32
   503   007F4C  43                 	db	67	;'C'
   504   007F4D  75                 	db	117	;'u'
   505   007F4E  6D                 	db	109	;'m'
   506   007F4F  70                 	db	112	;'p'
   507   007F50  6C                 	db	108	;'l'
   508   007F51  69                 	db	105	;'i'
   509   007F52  64                 	db	100	;'d'
   510   007F53  61                 	db	97	;'a'
   511   007F54  00                 	db	0
   512   007F55                     STR_19:
   513   007F55  20                 	db	32
   514   007F56  20                 	db	32
   515   007F57  20                 	db	32
   516   007F58  42                 	db	66	;'B'
   517   007F59  69                 	db	105	;'i'
   518   007F5A  65                 	db	101	;'e'
   519   007F5B  6E                 	db	110	;'n'
   520   007F5C  76                 	db	118	;'v'
   521   007F5D  65                 	db	101	;'e'
   522   007F5E  6E                 	db	110	;'n'
   523   007F5F  69                 	db	105	;'i'
   524   007F60  64                 	db	100	;'d'
   525   007F61  6F                 	db	111	;'o'
   526   007F62  20                 	db	32
   527   007F63  00                 	db	0
   528   007F64                     STR_14:
   529   007F64  20                 	db	32
   530   007F65  20                 	db	32
   531   007F66  20                 	db	32
   532   007F67  50                 	db	80	;'P'
   533   007F68  72                 	db	114	;'r'
   534   007F69  65                 	db	101	;'e'
   535   007F6A  73                 	db	115	;'s'
   536   007F6B  69                 	db	105	;'i'
   537   007F6C  6F                 	db	111	;'o'
   538   007F6D  6E                 	db	110	;'n'
   539   007F6E  65                 	db	101	;'e'
   540   007F6F  20                 	db	32
   541   007F70  4F                 	db	79	;'O'
   542   007F71  4B                 	db	75	;'K'
   543   007F72  00                 	db	0
   544   007F73                     STR_24:
   545   007F73  56                 	db	86	;'V'
   546   007F74  61                 	db	97	;'a'
   547   007F75  6C                 	db	108	;'l'
   548   007F76  6F                 	db	111	;'o'
   549   007F77  72                 	db	114	;'r'
   550   007F78  20                 	db	32
   551   007F79  6D                 	db	109	;'m'
   552   007F7A  69                 	db	105	;'i'
   553   007F7B  6E                 	db	110	;'n'
   554   007F7C  3A                 	db	58	;':'
   555   007F7D  20                 	db	32
   556   007F7E  30                 	db	48	;'0'
   557   007F7F  31                 	db	49	;'1'
   558   007F80  00                 	db	0
   559   007F81                     STR_23:
   560   007F81  56                 	db	86	;'V'
   561   007F82  61                 	db	97	;'a'
   562   007F83  6C                 	db	108	;'l'
   563   007F84  6F                 	db	111	;'o'
   564   007F85  72                 	db	114	;'r'
   565   007F86  20                 	db	32
   566   007F87  6D                 	db	109	;'m'
   567   007F88  61                 	db	97	;'a'
   568   007F89  78                 	db	120	;'x'
   569   007F8A  3A                 	db	58	;':'
   570   007F8B  20                 	db	32
   571   007F8C  35                 	db	53	;'5'
   572   007F8D  39                 	db	57	;'9'
   573   007F8E  00                 	db	0
   574   007F8F                     STR_16:
   575   007F8F  20                 	db	32
   576   007F90  20                 	db	32
   577   007F91  20                 	db	32
   578   007F92  45                 	db	69	;'E'
   579   007F93  4D                 	db	77	;'M'
   580   007F94  45                 	db	69	;'E'
   581   007F95  52                 	db	82	;'R'
   582   007F96  47                 	db	71	;'G'
   583   007F97  45                 	db	69	;'E'
   584   007F98  4E                 	db	78	;'N'
   585   007F99  43                 	db	67	;'C'
   586   007F9A  49                 	db	73	;'I'
   587   007F9B  41                 	db	65	;'A'
   588   007F9C  00                 	db	0
   589   007F9D                     STR_22:
   590   007F9D  20                 	db	32
   591   007F9E  20                 	db	32
   592   007F9F  20                 	db	32
   593   007FA0  20                 	db	32
   594   007FA1  20                 	db	32
   595   007FA2  21                 	db	33
   596   007FA3  45                 	db	69	;'E'
   597   007FA4  72                 	db	114	;'r'
   598   007FA5  72                 	db	114	;'r'
   599   007FA6  6F                 	db	111	;'o'
   600   007FA7  72                 	db	114	;'r'
   601   007FA8  21                 	db	33
   602   007FA9  00                 	db	0
   603   007FAA                     STR_15:
   604   007FAA  20                 	db	32
   605   007FAB  20                 	db	32
   606   007FAC  20                 	db	32
   607   007FAD  50                 	db	80	;'P'
   608   007FAE  41                 	db	65	;'A'
   609   007FAF  52                 	db	82	;'R'
   610   007FB0  41                 	db	65	;'A'
   611   007FB1  44                 	db	68	;'D'
   612   007FB2  41                 	db	65	;'A'
   613   007FB3  20                 	db	32
   614   007FB4  44                 	db	68	;'D'
   615   007FB5  45                 	db	69	;'E'
   616   007FB6  00                 	db	0
   617   007FB7                     STR_5:
   618   007FB7  20                 	db	32
   619   007FB8  20                 	db	32
   620   007FB9  20                 	db	32
   621   007FBA  20                 	db	32
   622   007FBB  52                 	db	82	;'R'
   623   007FBC  45                 	db	69	;'E'
   624   007FBD  53                 	db	83	;'S'
   625   007FBE  45                 	db	69	;'E'
   626   007FBF  54                 	db	84	;'T'
   627   007FC0  20                 	db	32
   628   007FC1  44                 	db	68	;'D'
   629   007FC2  45                 	db	69	;'E'
   630   007FC3  00                 	db	0
   631   007FC4                     STR_6:
   632   007FC4  20                 	db	32
   633   007FC5  20                 	db	32
   634   007FC6  20                 	db	32
   635   007FC7  20                 	db	32
   636   007FC8  20                 	db	32
   637   007FC9  55                 	db	85	;'U'
   638   007FCA  53                 	db	83	;'S'
   639   007FCB  55                 	db	85	;'U'
   640   007FCC  41                 	db	65	;'A'
   641   007FCD  52                 	db	82	;'R'
   642   007FCE  49                 	db	73	;'I'
   643   007FCF  4F                 	db	79	;'O'
   644   007FD0  00                 	db	0
   645   007FD1                     STR_9:
   646   007FD1  46                 	db	70	;'F'
   647   007FD2  61                 	db	97	;'a'
   648   007FD3  6C                 	db	108	;'l'
   649   007FD4  74                 	db	116	;'t'
   650   007FD5  61                 	db	97	;'a'
   651   007FD6  6E                 	db	110	;'n'
   652   007FD7  74                 	db	116	;'t'
   653   007FD8  65                 	db	101	;'e'
   654   007FD9  73                 	db	115	;'s'
   655   007FDA  3A                 	db	58	;':'
   656   007FDB  20                 	db	32
   657   007FDC  00                 	db	0
   658   007FDD                     STR_20:
   659   007FDD  20                 	db	32
   660   007FDE  20                 	db	32
   661   007FDF  20                 	db	32
   662   007FE0  20                 	db	32
   663   007FE1  55                 	db	85	;'U'
   664   007FE2  73                 	db	115	;'s'
   665   007FE3  75                 	db	117	;'u'
   666   007FE4  61                 	db	97	;'a'
   667   007FE5  72                 	db	114	;'r'
   668   007FE6  69                 	db	105	;'i'
   669   007FE7  6F                 	db	111	;'o'
   670   007FE8  00                 	db	0
   671   007FE9                     STR_10:
   672   007FE9  4F                 	db	79	;'O'
   673   007FEA  62                 	db	98	;'b'
   674   007FEB  6A                 	db	106	;'j'
   675   007FEC  65                 	db	101	;'e'
   676   007FED  74                 	db	116	;'t'
   677   007FEE  69                 	db	105	;'i'
   678   007FEF  76                 	db	118	;'v'
   679   007FF0  6F                 	db	111	;'o'
   680   007FF1  3A                 	db	58	;':'
   681   007FF2  20                 	db	32
   682   007FF3  00                 	db	0
   683   007FF4                     STR_2:
   684   007FF4  31                 	db	49	;'1'
   685   007FF5  3A                 	db	58	;':'
   686   007FF6  53                 	db	83	;'S'
   687   007FF7  69                 	db	105	;'i'
   688   007FF8  20                 	db	32
   689   007FF9  20                 	db	32
   690   007FFA  32                 	db	50	;'2'
   691   007FFB  3A                 	db	58	;':'
   692   007FFC  4E                 	db	78	;'N'
   693   007FFD  6F                 	db	111	;'o'
   694   007FFE  00                 	db	0
   695   007ECB                     STR_12          equ	STR_8
   696   007FAA                     STR_17          equ	STR_15
   697   007F8F                     STR_18          equ	STR_16
   698   007EE5                     STR_11          equ	STR_7
   699   007FFF  00                 	db	0	; dummy byte at the end
   700   000002                     __activetblptr  equ	2
   701                           
   702                           	psect	nvCOMRAM
   703   00003E                     __pnvCOMRAM:
   704                           	callstack 0
   705   00003E                     _Pulsado:
   706                           	callstack 0
   707   00003E                     	ds	1
   708   007D61                     _TRMT           set	32097
   709   007E11                     _GO_DONE        set	32273
   710   007E10                     _ADON           set	32272
   711   007C0F                     _RB7            set	31759
   712   007C0E                     _RB6            set	31758
   713   007C0D                     _RB5            set	31757
   714   007C0C                     _RB4            set	31756
   715   007DD0                     _CCP2M0         set	32208
   716   007CF5                     _RCIF           set	31989
   717   007D08                     _CCP2IF         set	32008
   718   007D00                     _CCP2IE         set	32000
   719   007DEC                     _DC1B0          set	32236
   720   007DED                     _DC1B1          set	32237
   721   007E81                     _POR            set	32385
   722   007CED                     _RCIE           set	31981
   723   007F97                     _GIE            set	32663
   724   007F96                     _PEIE           set	32662
   725   007F93                     _RBIE           set	32659
   726   007F90                     _RBIF           set	32656
   727   007F8F                     _RBPU           set	32655
   728   007E68                     _TMR1ON         set	32360
   729   007CE8                     _TMR1IE         set	31976
   730   007CF0                     _TMR1IF         set	31984
   731   007EAF                     _TMR0ON         set	32431
   732   007F95                     _TMR0IE         set	32661
   733   007F92                     _TMR0IF         set	32658
   734   007C95                     _TRISA5         set	31893
   735   007CA7                     _TRISC7         set	31911
   736   007CA6                     _TRISC6         set	31910
   737   007CA1                     _TRISC1         set	31905
   738   007C58                     _LATC0          set	31832
   739   007CA0                     _TRISC0         set	31904
   740   007C5A                     _LATC2          set	31834
   741   007CA2                     _TRISC2         set	31906
   742   007C94                     _TRISA4         set	31892
   743   007C4B                     _LATA3          set	31819
   744   007C93                     _TRISA3         set	31891
   745   007C4A                     _LATA2          set	31818
   746   007C92                     _TRISA2         set	31890
   747   007C49                     _LATA1          set	31817
   748   007C91                     _TRISA1         set	31889
   749   007C4D                     _LATA5          set	31821
   750   007C4C                     _LATA4          set	31820
   751   000FC3                     _ADRES          set	4035
   752   000FCE                     _TMR1           set	4046
   753   000FD6                     _TMR0           set	4054
   754   000FAD                     _TXREG          set	4013
   755   000F81                     _PORTB          set	3969
   756   000FBB                     _CCPR2L         set	4027
   757   000FBC                     _CCPR2H         set	4028
   758   000FB2                     _TMR3L          set	4018
   759   000FB3                     _TMR3H          set	4019
   760   000FAE                     _RCREG          set	4014
   761   000FA6                     _EECON1bits     set	4006
   762   000FA7                     _EECON2         set	4007
   763   000FA6                     _EECON1         set	4006
   764   000FA8                     _EEDATA         set	4008
   765   000FA9                     _EEADR          set	4009
   766   000FBA                     _CCP2CON        set	4026
   767   000FB1                     _T3CON          set	4017
   768   000FCA                     _T2CON          set	4042
   769   000FBD                     _CCP1CON        set	4029
   770   000FCB                     _PR2            set	4043
   771   000FBE                     _CCPR1L         set	4030
   772   000F8A                     _LATB           set	3978
   773   000F93                     _TRISB          set	3987
   774   000FCD                     _T1CON          set	4045
   775   000FD5                     _T0CON          set	4053
   776   000FAF                     _SPBRG          set	4015
   777   000FB8                     _BAUDCON        set	4024
   778   000FAB                     _RCSTA          set	4011
   779   000FAC                     _TXSTA          set	4012
   780   000F95                     _TRISD          set	3989
   781   000F8D                     _LATE           set	3981
   782   000F96                     _TRISE          set	3990
   783   000FC0                     _ADCON2         set	4032
   784   000FC2                     _ADCON0         set	4034
   785   000FC1                     _ADCON1         set	4033
   786   000FD3                     _OSCCON         set	4051
   787   000F8C                     _LATD           set	3980
   788                           
   789                           ; #config settings
   790                           
   791                           	psect	cinit
   792   0013D8                     __pcinit:
   793                           	callstack 0
   794   0013D8                     start_initialization:
   795                           	callstack 0
   796   0013D8                     __initialization:
   797                           	callstack 0
   798                           
   799                           ; Initialize objects allocated to BANK0 (16 bytes)
   800                           ; load TBLPTR registers with __pidataBANK0
   801   0013D8  0E1A               	movlw	low __pidataBANK0
   802   0013DA  6EF6               	movwf	tblptrl,c
   803   0013DC  0E18               	movlw	high __pidataBANK0
   804   0013DE  6EF7               	movwf	tblptrh,c
   805   0013E0  0E00               	movlw	low (__pidataBANK0 shr (0+16))
   806   0013E2  6EF8               	movwf	tblptru,c
   807   0013E4  EE00  F07B         	lfsr	0,__pdataBANK0
   808   0013E8  EE10 F010          	lfsr	1,16
   809   0013EC                     copy_data0:
   810   0013EC  0009               	tblrd		*+
   811   0013EE  CFF5 FFEE          	movff	tablat,postinc0
   812   0013F2  50E5               	movf	postdec1,w,c
   813   0013F4  50E1               	movf	fsr1l,w,c
   814   0013F6  E1FA               	bnz	copy_data0
   815                           
   816                           ; Initialize objects allocated to COMRAM (1 bytes)
   817                           ; load TBLPTR registers with __pidataCOMRAM
   818   0013F8  0EC2               	movlw	low __pidataCOMRAM
   819   0013FA  6EF6               	movwf	tblptrl,c
   820   0013FC  0E18               	movlw	high __pidataCOMRAM
   821   0013FE  6EF7               	movwf	tblptrh,c
   822   001400  0E00               	movlw	low (__pidataCOMRAM shr (0+16))
   823   001402  6EF8               	movwf	tblptru,c
   824   001404  0009               	tblrd		*+	;fetch initializer
   825   001406  CFF5 F03F          	movff	tablat,__pdataCOMRAM
   826                           
   827                           ; Clear objects allocated to COMRAM (25 bytes)
   828   00140A  EE00  F025         	lfsr	0,__pbssCOMRAM
   829   00140E  0E19               	movlw	25
   830   001410                     clear_0:
   831   001410  6AEE               	clrf	postinc0,c
   832   001412  06E8               	decf	wreg,f,c
   833   001414  E1FD               	bnz	clear_0
   834   001416                     end_of_initialization:
   835                           	callstack 0
   836   001416                     __end_of__initialization:
   837                           	callstack 0
   838   001416  9040               	bcf	int$flags,0,c	;clear compiler interrupt flag (level 1)
   839   001418  9240               	bcf	int$flags,1,c	;clear compiler interrupt flag (level 2)
   840   00141A  0E00               	movlw	low (__Lmediumconst shr (0+16))
   841   00141C  6EF8               	movwf	tblptru,c
   842   00141E  0100               	movlb	0
   843   001420  EF09  F000         	goto	_main	;jump to C main() function
   844                           
   845                           	psect	bssCOMRAM
   846   000025                     __pbssCOMRAM:
   847                           	callstack 0
   848   000025                     _distancia:
   849                           	callstack 0
   850   000025                     	ds	2
   851   000027                     _tiempo_eco:
   852                           	callstack 0
   853   000027                     	ds	2
   854   000029                     _valorADC:
   855                           	callstack 0
   856   000029                     	ds	2
   857   00002B                     _Objetivo:
   858                           	callstack 0
   859   00002B                     	ds	2
   860   00002D                     _contadorRGB:
   861                           	callstack 0
   862   00002D                     	ds	2
   863   00002F                     _contador:
   864                           	callstack 0
   865   00002F                     	ds	2
   866   000031                     _Supercontador:
   867                           	callstack 0
   868   000031                     	ds	2
   869   000033                     _conteo_recuperado:
   870                           	callstack 0
   871   000033                     	ds	1
   872   000034                     _control_manual_pwm:
   873                           	callstack 0
   874   000034                     	ds	1
   875   000035                     _pwm_duty_perc:
   876                           	callstack 0
   877   000035                     	ds	1
   878   000036                     _flag_imprimir:
   879                           	callstack 0
   880   000036                     	ds	1
   881   000037                     _flag_timer0_event:
   882                           	callstack 0
   883   000037                     	ds	1
   884   000038                     _datoSerial:
   885                           	callstack 0
   886   000038                     	ds	1
   887   000039                     _Inactividad:
   888                           	callstack 0
   889   000039                     	ds	1
   890   00003A                     _Tecla:
   891                           	callstack 0
   892   00003A                     	ds	1
   893   00003B                     _salir:
   894                           	callstack 0
   895   00003B                     	ds	1
   896   00003C                     _editor:
   897                           	callstack 0
   898   00003C                     	ds	1
   899   00003D                     _posicion:
   900                           	callstack 0
   901   00003D                     	ds	1
   902                           
   903                           	psect	dataCOMRAM
   904   00003F                     __pdataCOMRAM:
   905                           	callstack 0
   906   00003F                     _interfaz:
   907                           	callstack 0
   908   00003F                     	ds	1
   909                           
   910                           	psect	dataBANK0
   911   00007B                     __pdataBANK0:
   912                           	callstack 0
   913   00007B                     _RayaAlPiso:
   914                           	callstack 0
   915   00007B                     	ds	8
   916   000083                     _Corazon:
   917                           	callstack 0
   918   000083                     	ds	8
   919                           
   920                           	psect	cstackBANK0
   921   000060                     __pcstackBANK0:
   922                           	callstack 0
   923   000060                     ?___lmul:
   924                           	callstack 0
   925   000060                     ComandoLCD@a:
   926                           	callstack 0
   927   000060                     CrearCaracter@arreglo:
   928                           	callstack 0
   929   000060                     ___lbdiv@dividend:
   930                           	callstack 0
   931   000060                     ___lwdiv@counter:
   932                           	callstack 0
   933   000060                     MensajeLCD_Var@a:
   934                           	callstack 0
   935   000060                     ___lmul@multiplier:
   936                           	callstack 0
   937                           
   938                           ; 4 bytes @ 0x0
   939   000060                     	ds	1
   940   000061                     CrearCaracter@posicionCGRAM:
   941                           	callstack 0
   942   000061                     ___lbdiv@counter:
   943                           	callstack 0
   944   000061                     ___lwdiv@quotient:
   945                           	callstack 0
   946                           
   947                           ; 2 bytes @ 0x1
   948   000061                     	ds	1
   949   000062                     ___lbdiv@quotient:
   950                           	callstack 0
   951   000062                     CrearCaracter@i:
   952                           	callstack 0
   953   000062                     ??_MensajeLCD_Var:
   954                           
   955                           ; 1 bytes @ 0x2
   956   000062                     	ds	1
   957   000063                     ?___lwmod:
   958                           	callstack 0
   959   000063                     EscribeLCD_n8@b:
   960                           	callstack 0
   961   000063                     ___lwmod@dividend:
   962                           	callstack 0
   963                           
   964                           ; 2 bytes @ 0x3
   965   000063                     	ds	1
   966   000064                     EscribeLCD_n8@centena:
   967                           	callstack 0
   968   000064                     MensajeLCD_Var@i:
   969                           	callstack 0
   970   000064                     ___lmul@multiplicand:
   971                           	callstack 0
   972                           
   973                           ; 4 bytes @ 0x4
   974   000064                     	ds	1
   975   000065                     EscribeLCD_n8@decena:
   976                           	callstack 0
   977   000065                     ___lwmod@divisor:
   978                           	callstack 0
   979                           
   980                           ; 2 bytes @ 0x5
   981   000065                     	ds	1
   982   000066                     EscribeLCD_n8@unidad:
   983                           	callstack 0
   984   000066                     ??_Bienvenida:
   985   000066                     ??_PreguntaAlUsuario:
   986                           
   987                           ; 1 bytes @ 0x6
   988   000066                     	ds	1
   989   000067                     ?_printf:
   990                           	callstack 0
   991   000067                     EscribeLCD_n8@a:
   992                           	callstack 0
   993   000067                     printf@f:
   994                           	callstack 0
   995                           
   996                           ; 2 bytes @ 0x7
   997   000067                     	ds	1
   998   000068                     ?___lldiv:
   999                           	callstack 0
  1000   000068                     Bienvenida@i:
  1001                           	callstack 0
  1002   000068                     ___lldiv@dividend:
  1003                           	callstack 0
  1004                           
  1005                           ; 4 bytes @ 0x8
  1006   000068                     	ds	3
  1007   00006B                     ??_printf:
  1008                           
  1009                           ; 1 bytes @ 0xB
  1010   00006B                     	ds	1
  1011   00006C                     printf@ap:
  1012                           	callstack 0
  1013   00006C                     ___lldiv@divisor:
  1014                           	callstack 0
  1015                           
  1016                           ; 4 bytes @ 0xC
  1017   00006C                     	ds	1
  1018   00006D                     printf@flag:
  1019                           	callstack 0
  1020                           
  1021                           ; 1 bytes @ 0xD
  1022   00006D                     	ds	1
  1023   00006E                     printf@prec:
  1024                           	callstack 0
  1025                           
  1026                           ; 1 bytes @ 0xE
  1027   00006E                     	ds	1
  1028   00006F                     printf@val:
  1029                           	callstack 0
  1030                           
  1031                           ; 2 bytes @ 0xF
  1032   00006F                     	ds	1
  1033   000070                     ___lldiv@quotient:
  1034                           	callstack 0
  1035                           
  1036                           ; 4 bytes @ 0x10
  1037   000070                     	ds	1
  1038   000071                     printf@c:
  1039                           	callstack 0
  1040                           
  1041                           ; 1 bytes @ 0x11
  1042   000071                     	ds	3
  1043   000074                     ___lldiv@counter:
  1044                           	callstack 0
  1045                           
  1046                           ; 1 bytes @ 0x14
  1047   000074                     	ds	1
  1048   000075                     ??_main:
  1049                           
  1050                           ; 1 bytes @ 0x15
  1051   000075                     	ds	2
  1052   000077                     main@val_reg:
  1053                           	callstack 0
  1054                           
  1055                           ; 2 bytes @ 0x17
  1056   000077                     	ds	2
  1057   000079                     main@val_reg_302:
  1058                           	callstack 0
  1059                           
  1060                           ; 2 bytes @ 0x19
  1061   000079                     	ds	2
  1062                           
  1063                           	psect	cstackCOMRAM
  1064   000001                     __pcstackCOMRAM:
  1065                           	callstack 0
  1066   000001                     ?i2___lwdiv:
  1067                           	callstack 0
  1068   000001                     ?i2___lldiv:
  1069                           	callstack 0
  1070   000001                     i2___lbmod@divisor:
  1071                           	callstack 0
  1072   000001                     i2GuardarEEPROM@direccion:
  1073                           	callstack 0
  1074   000001                     i2___lwdiv@dividend:
  1075                           	callstack 0
  1076   000001                     i2___lldiv@dividend:
  1077                           	callstack 0
  1078   000001                     ??i2_RetardoLCD:
  1079   000001                     
  1080                           ; 1 bytes @ 0x0
  1081   000001                     	ds	1
  1082   000002                     i2RetardoLCD@a:
  1083                           	callstack 0
  1084   000002                     i2___lbmod@dividend:
  1085                           	callstack 0
  1086   000002                     
  1087                           ; 1 bytes @ 0x1
  1088   000002                     	ds	1
  1089   000003                     i2GuardarEEPROM@dato:
  1090                           	callstack 0
  1091   000003                     i2___lbmod@counter:
  1092                           	callstack 0
  1093   000003                     i2___lwdiv@divisor:
  1094                           	callstack 0
  1095   000003                     ??i2_EnviaDato:
  1096                           
  1097                           ; 1 bytes @ 0x2
  1098   000003                     	ds	1
  1099   000004                     i2EnviaDato@a:
  1100                           	callstack 0
  1101   000004                     i2___lbmod@rem:
  1102                           	callstack 0
  1103   000004                     
  1104                           ; 1 bytes @ 0x3
  1105   000004                     	ds	1
  1106   000005                     i2EscribeLCD_c@a:
  1107                           	callstack 0
  1108   000005                     i2DireccionaLCD@a:
  1109                           	callstack 0
  1110   000005                     i2___lbdiv@divisor:
  1111                           	callstack 0
  1112   000005                     i2___lwdiv@quotient:
  1113                           	callstack 0
  1114   000005                     i2___lldiv@divisor:
  1115                           	callstack 0
  1116   000005                     
  1117                           ; 1 bytes @ 0x4
  1118   000005                     	ds	1
  1119   000006                     i2ComandoLCD@a:
  1120                           	callstack 0
  1121   000006                     i2___lbdiv@dividend:
  1122                           	callstack 0
  1123   000006                     i2MensajeLCD_Var@a:
  1124                           	callstack 0
  1125   000006                     
  1126                           ; 1 bytes @ 0x5
  1127   000006                     	ds	1
  1128   000007                     i2___lbdiv@counter:
  1129                           	callstack 0
  1130   000007                     i2___lwdiv@counter:
  1131                           	callstack 0
  1132   000007                     
  1133                           ; 1 bytes @ 0x6
  1134   000007                     	ds	1
  1135   000008                     i2___lbdiv@quotient:
  1136                           	callstack 0
  1137   000008                     ??i2_MensajeLCD_Var:
  1138                           
  1139                           ; 1 bytes @ 0x7
  1140   000008                     	ds	1
  1141   000009                     i2EscribeLCD_n8@b:
  1142                           	callstack 0
  1143   000009                     i2___lldiv@quotient:
  1144                           	callstack 0
  1145   000009                     
  1146                           ; 1 bytes @ 0x8
  1147   000009                     	ds	1
  1148   00000A                     i2EscribeLCD_n8@centena:
  1149                           	callstack 0
  1150   00000A                     i2MensajeLCD_Var@i:
  1151                           	callstack 0
  1152   00000A                     
  1153                           ; 1 bytes @ 0x9
  1154   00000A                     	ds	1
  1155   00000B                     i2EscribeLCD_n8@decena:
  1156                           	callstack 0
  1157                           
  1158                           ; 1 bytes @ 0xA
  1159   00000B                     	ds	1
  1160   00000C                     i2EscribeLCD_n8@unidad:
  1161                           	callstack 0
  1162                           
  1163                           ; 1 bytes @ 0xB
  1164   00000C                     	ds	1
  1165   00000D                     i2EscribeLCD_n8@a:
  1166                           	callstack 0
  1167   00000D                     i2___lldiv@counter:
  1168                           	callstack 0
  1169                           
  1170                           ; 1 bytes @ 0xC
  1171   00000D                     	ds	1
  1172   00000E                     ??_ConfigPregunta:
  1173                           
  1174                           ; 1 bytes @ 0xD
  1175   00000E                     	ds	2
  1176   000010                     ??_ISR:
  1177                           
  1178                           ; 1 bytes @ 0xF
  1179   000010                     	ds	10
  1180   00001A                     ISR@calculo_temp:
  1181                           	callstack 0
  1182                           
  1183                           ; 4 bytes @ 0x19
  1184   00001A                     	ds	4
  1185   00001E                     ISR@captura_raw:
  1186                           	callstack 0
  1187                           
  1188                           ; 2 bytes @ 0x1D
  1189   00001E                     	ds	2
  1190   000020                     ?_Conversion:
  1191                           	callstack 0
  1192   000020                     ?___lwdiv:
  1193                           	callstack 0
  1194   000020                     ConfiguraLCD@a:
  1195                           	callstack 0
  1196   000020                     putch@data:
  1197                           	callstack 0
  1198   000020                     ___lbmod@divisor:
  1199                           	callstack 0
  1200   000020                     GuardarEEPROM@direccion:
  1201                           	callstack 0
  1202   000020                     LeerEEPROM@direccion:
  1203                           	callstack 0
  1204   000020                     ___lwdiv@dividend:
  1205                           	callstack 0
  1206   000020                     ___lmul@product:
  1207                           	callstack 0
  1208   000020                     ??_RetardoLCD:
  1209   000020                     
  1210                           ; 1 bytes @ 0x1F
  1211   000020                     	ds	1
  1212   000021                     RetardoLCD@a:
  1213                           	callstack 0
  1214   000021                     ___lbmod@dividend:
  1215                           	callstack 0
  1216   000021                     
  1217                           ; 1 bytes @ 0x20
  1218   000021                     	ds	1
  1219   000022                     GuardarEEPROM@dato:
  1220                           	callstack 0
  1221   000022                     Conversion@canal:
  1222                           	callstack 0
  1223   000022                     ___lbmod@counter:
  1224                           	callstack 0
  1225   000022                     ___lwdiv@divisor:
  1226                           	callstack 0
  1227   000022                     ??_EnviaDato:
  1228                           
  1229                           ; 1 bytes @ 0x21
  1230   000022                     	ds	1
  1231   000023                     EnviaDato@a:
  1232                           	callstack 0
  1233   000023                     ___lbmod@rem:
  1234                           	callstack 0
  1235   000023                     
  1236                           ; 1 bytes @ 0x22
  1237   000023                     	ds	1
  1238   000024                     EscribeLCD_c@a:
  1239                           	callstack 0
  1240   000024                     DireccionaLCD@a:
  1241                           	callstack 0
  1242   000024                     ___lbdiv@divisor:
  1243                           	callstack 0
  1244   000024                     ___lwmod@counter:
  1245                           	callstack 0
  1246   000024                     
  1247                           ; 1 bytes @ 0x23
  1248   000024                     	ds	1
  1249   000025                     
  1250                           ; 1 bytes @ 0x24
  1251 ;;
  1252 ;;Main: autosize = 0, tempsize = 2, incstack = 0, save=0
  1253 ;;
  1254 ;; *************** function _main *****************
  1255 ;; Defined at:
  1256 ;;		line 73 in file "Lab6.c"
  1257 ;; Parameters:    Size  Location     Type
  1258 ;;		None
  1259 ;; Auto vars:     Size  Location     Type
  1260 ;;  val_reg         2   25[BANK0 ] unsigned int 
  1261 ;;  val_reg         2   23[BANK0 ] unsigned int 
  1262 ;; Return value:  Size  Location     Type
  1263 ;;                  1    wreg      void 
  1264 ;; Registers used:
  1265 ;;		wreg, fsr2l, fsr2h, status,2, status,0, tblptrl, tblptrh, tblptru, prodl, prodh, cstack
  1266 ;; Tracked objects:
  1267 ;;		On entry : 0/0
  1268 ;;		On exit  : 0/0
  1269 ;;		Unchanged: 0/0
  1270 ;; Data sizes:     COMRAM   BANK0   BANK1   BANK2   BANK3   BANK4   BANK5   BANK6   BANK7
  1271 ;;      Params:         0       0       0       0       0       0       0       0       0
  1272 ;;      Locals:         0       4       0       0       0       0       0       0       0
  1273 ;;      Temps:          0       2       0       0       0       0       0       0       0
  1274 ;;      Totals:         0       6       0       0       0       0       0       0       0
  1275 ;;Total ram usage:        6 bytes
  1276 ;; Hardware stack levels required when called: 15
  1277 ;; This function calls:
  1278 ;;		_Bienvenida
  1279 ;;		_BorraLCD
  1280 ;;		_ConfigVariables
  1281 ;;		_ConfigurarCaptura
  1282 ;;		_ConfigurarPWM
  1283 ;;		_Conversion
  1284 ;;		_DireccionaLCD
  1285 ;;		_EscribeLCD_n8
  1286 ;;		_GuardarEEPROM
  1287 ;;		_LeerEEPROM
  1288 ;;		_MensajeLCD_Var
  1289 ;;		_OcultarCursor
  1290 ;;		_PreguntaAlUsuario
  1291 ;;		_TriggerUltrasonido
  1292 ;;		___lldiv
  1293 ;;		___lmul
  1294 ;;		___lwdiv
  1295 ;;		___lwmod
  1296 ;;		_printf
  1297 ;; This function is called by:
  1298 ;;		Startup code after reset
  1299 ;; This function uses a non-reentrant model
  1300 ;;
  1301                           
  1302                           	psect	text0
  1303   000012                     __ptext0:
  1304                           	callstack 0
  1305   000012                     _main:
  1306                           	callstack 16
  1307                           
  1308                           ;Lab6.c: 76: ConfigVariables();
  1309                           
  1310                           ;incstack = 0
  1311   000012  EC49  F00B         	call	_ConfigVariables	;wreg free
  1312                           
  1313                           ;Lab6.c: 77: editor=0;
  1314   000016  6A3C               	clrf	_editor^0,c
  1315                           
  1316                           ;Lab6.c: 78: datoSerial=0;
  1317   000018  6A38               	clrf	_datoSerial^0,c
  1318                           
  1319                           ;Lab6.c: 81: OSCCON = 0b01000000;
  1320   00001A  0E40               	movlw	64
  1321   00001C  6ED3               	movwf	211,c	;volatile
  1322                           
  1323                           ;Lab6.c: 84: ADCON1=0b001110;
  1324   00001E  0E0E               	movlw	14
  1325   000020  6EC1               	movwf	193,c	;volatile
  1326                           
  1327                           ;Lab6.c: 88: ADCON0=0b00000001;
  1328   000022  0E01               	movlw	1
  1329   000024  6EC2               	movwf	194,c	;volatile
  1330                           
  1331                           ;Lab6.c: 89: ADCON2=0b10001000;
  1332   000026  0E88               	movlw	136
  1333   000028  6EC0               	movwf	192,c	;volatile
  1334                           
  1335                           ;Lab6.c: 93: TRISE=0;
  1336   00002A  6A96               	clrf	150,c	;volatile
  1337                           
  1338                           ;Lab6.c: 94: LATE=0b00000111;
  1339   00002C  0E07               	movlw	7
  1340   00002E  6E8D               	movwf	141,c	;volatile
  1341                           
  1342                           ;Lab6.c: 97: TRISD=0;
  1343   000030  6A95               	clrf	149,c	;volatile
  1344                           
  1345                           ;Lab6.c: 98: LATD=contador;
  1346   000032  C02F  FF8C         	movff	_contador,3980	;volatile
  1347                           
  1348                           ;Lab6.c: 101: TRISA1=0;
  1349   000036  9292               	bcf	3986,1,c	;volatile
  1350                           
  1351                           ;Lab6.c: 102: LATA1=0;
  1352   000038  9289               	bcf	3977,1,c	;volatile
  1353                           
  1354                           ;Lab6.c: 104: TRISA2=0;
  1355   00003A  9492               	bcf	3986,2,c	;volatile
  1356                           
  1357                           ;Lab6.c: 105: LATA2=0;
  1358   00003C  9489               	bcf	3977,2,c	;volatile
  1359                           
  1360                           ;Lab6.c: 108: TRISA3=0;
  1361   00003E  9692               	bcf	3986,3,c	;volatile
  1362                           
  1363                           ;Lab6.c: 109: LATA3=0;
  1364   000040  9689               	bcf	3977,3,c	;volatile
  1365                           
  1366                           ;Lab6.c: 110: TRISA4=0;
  1367   000042  9892               	bcf	3986,4,c	;volatile
  1368                           
  1369                           ;Lab6.c: 113: TRISC2=0;
  1370   000044  9494               	bcf	3988,2,c	;volatile
  1371                           
  1372                           ;Lab6.c: 114: LATC2=0;
  1373   000046  948B               	bcf	3979,2,c	;volatile
  1374                           
  1375                           ;Lab6.c: 117: TRISC0=0;
  1376   000048  9094               	bcf	3988,0,c	;volatile
  1377                           
  1378                           ;Lab6.c: 118: LATC0=0;
  1379   00004A  908B               	bcf	3979,0,c	;volatile
  1380                           
  1381                           ;Lab6.c: 119: TRISC1=1;
  1382   00004C  8294               	bsf	3988,1,c	;volatile
  1383                           
  1384                           ;Lab6.c: 122: TRISC6=0;
  1385   00004E  9C94               	bcf	3988,6,c	;volatile
  1386                           
  1387                           ;Lab6.c: 123: TRISC7=1;
  1388   000050  8E94               	bsf	3988,7,c	;volatile
  1389                           
  1390                           ;Lab6.c: 125: TXSTA=0b00100100;
  1391   000052  0E24               	movlw	36
  1392   000054  6EAC               	movwf	172,c	;volatile
  1393                           
  1394                           ;Lab6.c: 126: RCSTA = 0b10010000;
  1395   000056  0E90               	movlw	144
  1396   000058  6EAB               	movwf	171,c	;volatile
  1397                           
  1398                           ;Lab6.c: 127: BAUDCON=0b00001000;
  1399   00005A  0E08               	movlw	8
  1400   00005C  6EB8               	movwf	184,c	;volatile
  1401                           
  1402                           ;Lab6.c: 128: SPBRG=25;
  1403   00005E  0E19               	movlw	25
  1404   000060  6EAF               	movwf	175,c	;volatile
  1405                           
  1406                           ;Lab6.c: 131: TRISC1=1;
  1407   000062  8294               	bsf	3988,1,c	;volatile
  1408                           
  1409                           ;Lab6.c: 134: TRISA5=0;
  1410   000064  9A92               	bcf	3986,5,c	;volatile
  1411                           
  1412                           ;Lab6.c: 135: LATA5=1;
  1413   000066  8A89               	bsf	3977,5,c	;volatile
  1414                           
  1415                           ;Lab6.c: 137: ConfigurarPWM();
  1416   000068  EC1C  F00C         	call	_ConfigurarPWM	;wreg free
  1417                           
  1418                           ;Lab6.c: 138: ConfigurarCaptura();
  1419   00006C  EC23  F00C         	call	_ConfigurarCaptura	;wreg free
  1420                           
  1421                           ;Lab6.c: 143: T0CON=0b00000001;
  1422   000070  0E01               	movlw	1
  1423   000072  6ED5               	movwf	213,c	;volatile
  1424                           
  1425                           ;Lab6.c: 144: TMR0=3036;
  1426   000074  0E0B               	movlw	11
  1427   000076  6ED7               	movwf	215,c	;volatile
  1428   000078  0EDC               	movlw	220
  1429   00007A  6ED6               	movwf	214,c	;volatile
  1430                           
  1431                           ;Lab6.c: 145: TMR0IF=0;
  1432   00007C  94F2               	bcf	4082,2,c	;volatile
  1433                           
  1434                           ;Lab6.c: 146: TMR0IE=1;
  1435   00007E  8AF2               	bsf	4082,5,c	;volatile
  1436                           
  1437                           ;Lab6.c: 147: TMR0ON=1;
  1438   000080  8ED5               	bsf	4053,7,c	;volatile
  1439                           
  1440                           ;Lab6.c: 150: T1CON = 0b10110001;
  1441   000082  0EB1               	movlw	177
  1442   000084  6ECD               	movwf	205,c	;volatile
  1443                           
  1444                           ;Lab6.c: 151: TMR1=3036;
  1445   000086  0E0B               	movlw	11
  1446   000088  6ECF               	movwf	207,c	;volatile
  1447   00008A  0EDC               	movlw	220
  1448   00008C  6ECE               	movwf	206,c	;volatile
  1449                           
  1450                           ;Lab6.c: 152: TMR1IF=0;
  1451   00008E  909E               	bcf	3998,0,c	;volatile
  1452                           
  1453                           ;Lab6.c: 153: TMR1IE=1;
  1454   000090  809D               	bsf	3997,0,c	;volatile
  1455                           
  1456                           ;Lab6.c: 154: TMR1ON = 1;
  1457   000092  80CD               	bsf	4045,0,c	;volatile
  1458                           
  1459                           ;Lab6.c: 157: TRISB=0b11110000;
  1460   000094  0EF0               	movlw	240
  1461   000096  6E93               	movwf	147,c	;volatile
  1462                           
  1463                           ;Lab6.c: 158: LATB=0b00000000;
  1464   000098  6A8A               	clrf	138,c	;volatile
  1465                           
  1466                           ;Lab6.c: 159: RBPU=0;
  1467   00009A  9EF1               	bcf	4081,7,c	;volatile
  1468                           
  1469                           ;Lab6.c: 160: _delay((unsigned long)((100)*(1000000/4000.0)));
  1470   00009C  0E21               	movlw	33
  1471   00009E  0100               	movlb	0	; () banked
  1472   0000A0  6F75               	movwf	??_main& (0+255),b
  1473   0000A2  0E76               	movlw	118
  1474   0000A4                     u4357:
  1475   0000A4  2EE8               	decfsz	wreg,f,c
  1476   0000A6  D7FE               	bra	u4357
  1477   0000A8  2F75               	decfsz	??_main& (0+255),f,b
  1478   0000AA  D7FC               	bra	u4357
  1479   0000AC  0000               	nop	
  1480                           
  1481                           ;Lab6.c: 161: RBIF=0;
  1482   0000AE  90F2               	bcf	4082,0,c	;volatile
  1483                           
  1484                           ;Lab6.c: 162: RBIE=1;
  1485   0000B0  86F2               	bsf	4082,3,c	;volatile
  1486                           
  1487                           ;Lab6.c: 164: PEIE=1;
  1488   0000B2  8CF2               	bsf	4082,6,c	;volatile
  1489                           
  1490                           ;Lab6.c: 165: GIE=1;
  1491   0000B4  8EF2               	bsf	4082,7,c	;volatile
  1492                           
  1493                           ;Lab6.c: 166: RCIE=1;
  1494   0000B6  8A9D               	bsf	3997,5,c	;volatile
  1495                           
  1496                           ;Lab6.c: 169: LATA3=1;
  1497   0000B8  8689               	bsf	3977,3,c	;volatile
  1498                           
  1499                           ;Lab6.c: 172: if(POR==0){
  1500   0000BA  B2D0               	btfsc	4048,1,c	;volatile
  1501   0000BC  D0B2               	goto	l4855
  1502                           
  1503                           ;Lab6.c: 173: POR=1;
  1504   0000BE  82D0               	bsf	4048,1,c	;volatile
  1505                           
  1506                           ;Lab6.c: 174: conteo_recuperado = LeerEEPROM(0);
  1507   0000C0  0E00               	movlw	0
  1508   0000C2  6E21               	movwf	(LeerEEPROM@direccion+1)^0,c
  1509   0000C4  0E00               	movlw	0
  1510   0000C6  6E20               	movwf	LeerEEPROM@direccion^0,c
  1511   0000C8  EC15  F00C         	call	_LeerEEPROM	;wreg free
  1512   0000CC  6E33               	movwf	_conteo_recuperado^0,c
  1513                           
  1514                           ;Lab6.c: 177: if(conteo_recuperado <= 59){
  1515   0000CE  0E3C               	movlw	60
  1516   0000D0  6033               	cpfslt	_conteo_recuperado^0,c
  1517   0000D2  D077               	goto	l4837
  1518                           
  1519                           ;Lab6.c: 178: Bienvenida();
  1520   0000D4  EC97  F007         	call	_Bienvenida	;wreg free
  1521                           
  1522                           ; BSR set to: 0
  1523                           ;Lab6.c: 179: BorraLCD();
  1524   0000D8  ECEF  F00B         	call	_BorraLCD	;wreg free
  1525                           
  1526                           ;Lab6.c: 180: MensajeLCD_Var("Recuperar conteo?");
  1527   0000DC  0E22               	movlw	low STR_1
  1528   0000DE  0100               	movlb	0	; () banked
  1529   0000E0  6F60               	movwf	MensajeLCD_Var@a& (0+255),b
  1530   0000E2  0E7F               	movlw	high STR_1
  1531   0000E4  6F61               	movwf	(MensajeLCD_Var@a+1)& (0+255),b
  1532   0000E6  EC12  F00A         	call	_MensajeLCD_Var	;wreg free
  1533                           
  1534                           ; BSR set to: 0
  1535                           ;Lab6.c: 181: DireccionaLCD(0xC0);
  1536   0000EA  0EC0               	movlw	192
  1537   0000EC  ECCE  F00B         	call	_DireccionaLCD
  1538                           
  1539                           ;Lab6.c: 182: MensajeLCD_Var("1:Si  2:No");
  1540   0000F0  0EF4               	movlw	low STR_2
  1541   0000F2  0100               	movlb	0	; () banked
  1542   0000F4  6F60               	movwf	MensajeLCD_Var@a& (0+255),b
  1543   0000F6  0E7F               	movlw	high STR_2
  1544   0000F8  6F61               	movwf	(MensajeLCD_Var@a+1)& (0+255),b
  1545   0000FA  EC12  F00A         	call	_MensajeLCD_Var	;wreg free
  1546                           
  1547                           ; BSR set to: 0
  1548                           ;Lab6.c: 184: Tecla = '\0';
  1549   0000FE  6A3A               	clrf	_Tecla^0,c
  1550   000100                     l4797:
  1551   000100  043A               	decf	_Tecla^0,w,c
  1552   000102  B4D8               	btfsc	status,2,c
  1553   000104  D004               	goto	u3840
  1554   000106  0E02               	movlw	2
  1555   000108  183A               	xorwf	_Tecla^0,w,c
  1556   00010A  A4D8               	btfss	status,2,c
  1557   00010C  D7F9               	goto	l4797
  1558   00010E                     u3840:
  1559                           
  1560                           ;Lab6.c: 187: if(Tecla == 1){
  1561   00010E  043A               	decf	_Tecla^0,w,c
  1562   000110  A4D8               	btfss	status,2,c
  1563   000112  D04A               	goto	l4833
  1564                           
  1565                           ;Lab6.c: 189: Supercontador = conteo_recuperado;
  1566   000114  C033  F031         	movff	_conteo_recuperado,_Supercontador
  1567   000118  6A32               	clrf	(_Supercontador+1)^0,c
  1568                           
  1569                           ;Lab6.c: 190: contadorRGB = Supercontador / 10;
  1570   00011A  C031  F020         	movff	_Supercontador,___lwdiv@dividend
  1571   00011E  C032  F021         	movff	_Supercontador+1,___lwdiv@dividend+1
  1572   000122  0E00               	movlw	0
  1573   000124  6E23               	movwf	(___lwdiv@divisor+1)^0,c
  1574   000126  0E0A               	movlw	10
  1575   000128  6E22               	movwf	___lwdiv@divisor^0,c
  1576   00012A  EC99  F009         	call	___lwdiv	;wreg free
  1577   00012E  C020  F02D         	movff	?___lwdiv,_contadorRGB
  1578   000132  C021  F02E         	movff	?___lwdiv+1,_contadorRGB+1
  1579                           
  1580                           ;Lab6.c: 191: contador = Supercontador % 10;
  1581   000136  C031  F063         	movff	_Supercontador,___lwmod@dividend
  1582   00013A  C032  F064         	movff	_Supercontador+1,___lwmod@dividend+1
  1583   00013E  0E00               	movlw	0
  1584   000140  6F66               	movwf	(___lwmod@divisor+1)& (0+255),b
  1585   000142  0E0A               	movlw	10
  1586   000144  6F65               	movwf	___lwmod@divisor& (0+255),b
  1587   000146  ECA3  F00A         	call	___lwmod	;wreg free
  1588   00014A  C063  F02F         	movff	?___lwmod,_contador
  1589   00014E  C064  F030         	movff	?___lwmod+1,_contador+1
  1590                           
  1591                           ; BSR set to: 0
  1592                           ;Lab6.c: 193: LATD = contador;
  1593   000152  C02F  FF8C         	movff	_contador,3980	;volatile
  1594                           
  1595                           ; BSR set to: 0
  1596                           ;Lab6.c: 195: if(contadorRGB==0) LATE=0b00000010;
  1597   000156  502D               	movf	_contadorRGB^0,w,c
  1598   000158  102E               	iorwf	(_contadorRGB+1)^0,w,c
  1599   00015A  A4D8               	btfss	status,2,c
  1600   00015C  D002               	goto	l4813
  1601                           
  1602                           ; BSR set to: 0
  1603   00015E  0E02               	movlw	2
  1604   000160  D01A               	goto	L4
  1605   000162                     l4813:
  1606                           
  1607                           ; BSR set to: 0
  1608                           ;Lab6.c: 196: else if(contadorRGB==1) LATE=0b00000011;
  1609   000162  042D               	decf	_contadorRGB^0,w,c
  1610   000164  102E               	iorwf	(_contadorRGB+1)^0,w,c
  1611   000166  A4D8               	btfss	status,2,c
  1612   000168  D002               	goto	l4817
  1613                           
  1614                           ; BSR set to: 0
  1615   00016A  0E03               	movlw	3
  1616   00016C  D014               	goto	L4
  1617   00016E                     l4817:
  1618                           
  1619                           ; BSR set to: 0
  1620                           ;Lab6.c: 197: else if(contadorRGB==2) LATE=0b00000001;
  1621   00016E  0E02               	movlw	2
  1622   000170  182D               	xorwf	_contadorRGB^0,w,c
  1623   000172  102E               	iorwf	(_contadorRGB+1)^0,w,c
  1624   000174  A4D8               	btfss	status,2,c
  1625   000176  D002               	goto	l4821
  1626                           
  1627                           ; BSR set to: 0
  1628   000178  0E01               	movlw	1
  1629   00017A  D00D               	goto	L4
  1630   00017C                     l4821:
  1631                           
  1632                           ; BSR set to: 0
  1633                           ;Lab6.c: 198: else if(contadorRGB==3) LATE=0b00000101;
  1634   00017C  0E03               	movlw	3
  1635   00017E  182D               	xorwf	_contadorRGB^0,w,c
  1636   000180  102E               	iorwf	(_contadorRGB+1)^0,w,c
  1637   000182  A4D8               	btfss	status,2,c
  1638   000184  D002               	goto	l4825
  1639                           
  1640                           ; BSR set to: 0
  1641   000186  0E05               	movlw	5
  1642   000188  D006               	goto	L4
  1643   00018A                     l4825:
  1644                           
  1645                           ; BSR set to: 0
  1646                           ;Lab6.c: 199: else if(contadorRGB==4) LATE=0b00000100;
  1647   00018A  0E04               	movlw	4
  1648   00018C  182D               	xorwf	_contadorRGB^0,w,c
  1649   00018E  102E               	iorwf	(_contadorRGB+1)^0,w,c
  1650   000190  A4D8               	btfss	status,2,c
  1651   000192  D003               	goto	l4829
  1652                           
  1653                           ; BSR set to: 0
  1654   000194  0E04               	movlw	4
  1655   000196                     L4:
  1656   000196  6E8D               	movwf	141,c	;volatile
  1657   000198  D068               	goto	l4869
  1658   00019A                     l4829:
  1659                           
  1660                           ; BSR set to: 0
  1661                           ;Lab6.c: 200: else if(contadorRGB==5) LATE=0b00000000;
  1662   00019A  0E05               	movlw	5
  1663   00019C  182D               	xorwf	_contadorRGB^0,w,c
  1664   00019E  102E               	iorwf	(_contadorRGB+1)^0,w,c
  1665   0001A0  A4D8               	btfss	status,2,c
  1666   0001A2  D063               	goto	l4869
  1667                           
  1668                           ; BSR set to: 0
  1669   0001A4  6A8D               	clrf	141,c	;volatile
  1670                           
  1671                           ; BSR set to: 0
  1672   0001A6  D061               	goto	l4869
  1673   0001A8                     l4833:
  1674                           
  1675                           ;Lab6.c: 202: Supercontador = 0;
  1676   0001A8  0E00               	movlw	0
  1677   0001AA  6E32               	movwf	(_Supercontador+1)^0,c
  1678   0001AC  0E00               	movlw	0
  1679   0001AE  6E31               	movwf	_Supercontador^0,c
  1680                           
  1681                           ;Lab6.c: 203: GuardarEEPROM(0, 0);
  1682   0001B0  0E00               	movlw	0
  1683   0001B2  6E21               	movwf	(GuardarEEPROM@direccion+1)^0,c
  1684   0001B4  0E00               	movlw	0
  1685   0001B6  6E20               	movwf	GuardarEEPROM@direccion^0,c
  1686   0001B8  0E00               	movlw	0
  1687   0001BA  6E22               	movwf	GuardarEEPROM@dato^0,c
  1688   0001BC  EC87  F00B         	call	_GuardarEEPROM	;wreg free
  1689   0001C0  D054               	goto	l4869
  1690   0001C2                     l4837:
  1691                           
  1692                           ;Lab6.c: 207: Bienvenida();
  1693   0001C2  EC97  F007         	call	_Bienvenida	;wreg free
  1694                           
  1695                           ; BSR set to: 0
  1696                           ;Lab6.c: 208: Supercontador = 0;
  1697   0001C6  0E00               	movlw	0
  1698   0001C8  6E32               	movwf	(_Supercontador+1)^0,c
  1699   0001CA  0E00               	movlw	0
  1700   0001CC  6E31               	movwf	_Supercontador^0,c
  1701                           
  1702                           ; BSR set to: 0
  1703                           ;Lab6.c: 209: GuardarEEPROM(0, 0);
  1704   0001CE  0E00               	movlw	0
  1705   0001D0  6E21               	movwf	(GuardarEEPROM@direccion+1)^0,c
  1706   0001D2  0E00               	movlw	0
  1707   0001D4  6E20               	movwf	GuardarEEPROM@direccion^0,c
  1708   0001D6  0E00               	movlw	0
  1709   0001D8  6E22               	movwf	GuardarEEPROM@dato^0,c
  1710   0001DA  EC87  F00B         	call	_GuardarEEPROM	;wreg free
  1711                           
  1712                           ;Lab6.c: 210: BorraLCD(); OcultarCursor();
  1713   0001DE  ECEF  F00B         	call	_BorraLCD	;wreg free
  1714   0001E2  EC4D  F00C         	call	_OcultarCursor	;wreg free
  1715                           
  1716                           ;Lab6.c: 211: MensajeLCD_Var(" Cuenta reiniciada");
  1717   0001E6  0E0F               	movlw	low STR_3
  1718   0001E8  0100               	movlb	0	; () banked
  1719   0001EA  6F60               	movwf	MensajeLCD_Var@a& (0+255),b
  1720   0001EC  0E7F               	movlw	high STR_3
  1721   0001EE  6F61               	movwf	(MensajeLCD_Var@a+1)& (0+255),b
  1722   0001F0  EC12  F00A         	call	_MensajeLCD_Var	;wreg free
  1723                           
  1724                           ; BSR set to: 0
  1725                           ;Lab6.c: 212: DireccionaLCD(0xC0);
  1726   0001F4  0EC0               	movlw	192
  1727   0001F6  ECCE  F00B         	call	_DireccionaLCD
  1728                           
  1729                           ;Lab6.c: 213: MensajeLCD_Var(" (EEPROM no valida)");
  1730   0001FA  0EFB               	movlw	low STR_4
  1731   0001FC  0100               	movlb	0	; () banked
  1732   0001FE  6F60               	movwf	MensajeLCD_Var@a& (0+255),b
  1733   000200  0E7E               	movlw	high STR_4
  1734   000202  6F61               	movwf	(MensajeLCD_Var@a+1)& (0+255),b
  1735   000204  EC12  F00A         	call	_MensajeLCD_Var	;wreg free
  1736                           
  1737                           ; BSR set to: 0
  1738                           ;Lab6.c: 214: _delay((unsigned long)((2000)*(1000000/4000.0)));
  1739   000208  0E03               	movlw	3
  1740   00020A  0100               	movlb	0	; () banked
  1741   00020C  6F76               	movwf	(??_main+1)& (0+255),b
  1742   00020E  0E8A               	movlw	138
  1743   000210  6F75               	movwf	??_main& (0+255),b
  1744   000212  0E55               	movlw	85
  1745   000214                     u4367:
  1746   000214  2EE8               	decfsz	wreg,f,c
  1747   000216  D7FE               	bra	u4367
  1748   000218  2F75               	decfsz	??_main& (0+255),f,b
  1749   00021A  D7FC               	bra	u4367
  1750   00021C  2F76               	decfsz	(??_main+1)& (0+255),f,b
  1751   00021E  D7FA               	bra	u4367
  1752   000220  D023               	goto	L5
  1753   000222                     l4855:
  1754                           
  1755                           ;Lab6.c: 218: Bienvenida();
  1756   000222  EC97  F007         	call	_Bienvenida	;wreg free
  1757                           
  1758                           ; BSR set to: 0
  1759                           ;Lab6.c: 219: BorraLCD();
  1760   000226  ECEF  F00B         	call	_BorraLCD	;wreg free
  1761                           
  1762                           ;Lab6.c: 220: OcultarCursor();
  1763   00022A  EC4D  F00C         	call	_OcultarCursor	;wreg free
  1764                           
  1765                           ;Lab6.c: 221: MensajeLCD_Var("    RESET DE");
  1766   00022E  0EB7               	movlw	low STR_5
  1767   000230  0100               	movlb	0	; () banked
  1768   000232  6F60               	movwf	MensajeLCD_Var@a& (0+255),b
  1769   000234  0E7F               	movlw	high STR_5
  1770   000236  6F61               	movwf	(MensajeLCD_Var@a+1)& (0+255),b
  1771   000238  EC12  F00A         	call	_MensajeLCD_Var	;wreg free
  1772                           
  1773                           ; BSR set to: 0
  1774                           ;Lab6.c: 222: DireccionaLCD(0xC0);
  1775   00023C  0EC0               	movlw	192
  1776   00023E  ECCE  F00B         	call	_DireccionaLCD
  1777                           
  1778                           ;Lab6.c: 223: MensajeLCD_Var("     USUARIO");
  1779   000242  0EC4               	movlw	low STR_6
  1780   000244  0100               	movlb	0	; () banked
  1781   000246  6F60               	movwf	MensajeLCD_Var@a& (0+255),b
  1782   000248  0E7F               	movlw	high STR_6
  1783   00024A  6F61               	movwf	(MensajeLCD_Var@a+1)& (0+255),b
  1784   00024C  EC12  F00A         	call	_MensajeLCD_Var	;wreg free
  1785                           
  1786                           ; BSR set to: 0
  1787                           ;Lab6.c: 224: _delay((unsigned long)((1000)*(1000000/4000.0)));
  1788   000250  0E02               	movlw	2
  1789   000252  0100               	movlb	0	; () banked
  1790   000254  6F76               	movwf	(??_main+1)& (0+255),b
  1791   000256  0E45               	movlw	69
  1792   000258  6F75               	movwf	??_main& (0+255),b
  1793   00025A  0EA9               	movlw	169
  1794   00025C                     u4377:
  1795   00025C  2EE8               	decfsz	wreg,f,c
  1796   00025E  D7FE               	bra	u4377
  1797   000260  2F75               	decfsz	??_main& (0+255),f,b
  1798   000262  D7FC               	bra	u4377
  1799   000264  2F76               	decfsz	(??_main+1)& (0+255),f,b
  1800   000266  D7FA               	bra	u4377
  1801   000268                     L5:
  1802   000268  D000               	nop2	
  1803   00026A                     l4869:
  1804                           
  1805                           ;Lab6.c: 225: };Lab6.c: 227: LATA3=0;
  1806   00026A  9689               	bcf	3977,3,c	;volatile
  1807   00026C                     l4871:
  1808                           
  1809                           ;Lab6.c: 233: if(flag_timer0_event == 1){
  1810   00026C  0437               	decf	_flag_timer0_event^0,w,c	;volatile
  1811   00026E  A4D8               	btfss	status,2,c
  1812   000270  D09A               	goto	l4897
  1813                           
  1814                           ;Lab6.c: 234: flag_timer0_event = 0;
  1815   000272  6A37               	clrf	_flag_timer0_event^0,c	;volatile
  1816                           
  1817                           ;Lab6.c: 236: LATA1=LATA1^1;
  1818   000274  B289               	btfsc	3977,1,c	;volatile
  1819   000276  D002               	goto	u3930
  1820   000278  8289               	bsf	3977,1,c	;volatile
  1821   00027A  D001               	goto	u3945
  1822   00027C                     u3930:
  1823   00027C  9289               	bcf	3977,1,c	;volatile
  1824   00027E                     u3945:
  1825                           
  1826                           ;Lab6.c: 239: TriggerUltrasonido();
  1827   00027E  EC45  F00C         	call	_TriggerUltrasonido	;wreg free
  1828                           
  1829                           ;Lab6.c: 242: if(control_manual_pwm == 0){
  1830   000282  5034               	movf	_control_manual_pwm^0,w,c
  1831   000284  A4D8               	btfss	status,2,c
  1832   000286  D04A               	goto	l4887
  1833                           
  1834                           ;Lab6.c: 243: valorADC=Conversion(0);
  1835   000288  0E00               	movlw	0
  1836   00028A  ECA9  F00B         	call	_Conversion
  1837   00028E  C020  F029         	movff	?_Conversion,_valorADC
  1838   000292  C021  F02A         	movff	?_Conversion+1,_valorADC+1
  1839                           
  1840                           ;Lab6.c: 244: CCPR1L = valorADC >> 2;
  1841   000296  C029  F075         	movff	_valorADC,??_main
  1842   00029A  C02A  F076         	movff	_valorADC+1,??_main+1
  1843   00029E  0100               	movlb	0	; () banked
  1844   0002A0  90D8               	bcf	status,0,c
  1845   0002A2  3376               	rrcf	(??_main+1)& (0+255),f,b
  1846   0002A4  3375               	rrcf	??_main& (0+255),f,b
  1847   0002A6  90D8               	bcf	status,0,c
  1848   0002A8  3376               	rrcf	(??_main+1)& (0+255),f,b
  1849   0002AA  3375               	rrcf	??_main& (0+255),f,b
  1850   0002AC  5175               	movf	??_main& (0+255),w,b
  1851   0002AE  6EBE               	movwf	190,c	;volatile
  1852                           
  1853                           ; BSR set to: 0
  1854                           ;Lab6.c: 245: DC1B1 = (valorADC & 2) >> 1;
  1855   0002B0  90D8               	bcf	status,0,c
  1856   0002B2  302A               	rrcf	(_valorADC+1)^0,w,c
  1857   0002B4  6F76               	movwf	(??_main+1)& (0+255),b
  1858   0002B6  3029               	rrcf	_valorADC^0,w,c
  1859   0002B8  6F75               	movwf	??_main& (0+255),b
  1860   0002BA  3175               	rrcf	??_main& (0+255),w,b
  1861   0002BC  A0D8               	btfss	status,0,c
  1862   0002BE  D002               	goto	u3960
  1863   0002C0  8ABD               	bsf	4029,5,c	;volatile
  1864   0002C2  D001               	goto	u3975
  1865   0002C4                     u3960:
  1866   0002C4  9ABD               	bcf	4029,5,c	;volatile
  1867   0002C6                     u3975:
  1868                           
  1869                           ;Lab6.c: 246: DC1B0 = valorADC & 1;
  1870   0002C6  A029               	btfss	_valorADC^0,0,c
  1871   0002C8  D002               	goto	u3980
  1872   0002CA  88BD               	bsf	4029,4,c	;volatile
  1873   0002CC  D001               	goto	u3995
  1874   0002CE                     u3980:
  1875   0002CE  98BD               	bcf	4029,4,c	;volatile
  1876   0002D0                     u3995:
  1877                           
  1878                           ;Lab6.c: 247: pwm_duty_perc = (unsigned char)((valorADC * 100UL) / 1023UL);
  1879   0002D0  C029  F060         	movff	_valorADC,___lmul@multiplier
  1880   0002D4  C02A  F061         	movff	_valorADC+1,___lmul@multiplier+1
  1881   0002D8  0100               	movlb	0	; () banked
  1882   0002DA  6B62               	clrf	(___lmul@multiplier+2)& (0+255),b
  1883   0002DC  6B63               	clrf	(___lmul@multiplier+3)& (0+255),b
  1884   0002DE  0E64               	movlw	100
  1885   0002E0  6F64               	movwf	___lmul@multiplicand& (0+255),b
  1886   0002E2  0E00               	movlw	0
  1887   0002E4  6F65               	movwf	(___lmul@multiplicand+1)& (0+255),b
  1888   0002E6  0E00               	movlw	0
  1889   0002E8  6F66               	movwf	(___lmul@multiplicand+2)& (0+255),b
  1890   0002EA  0E00               	movlw	0
  1891   0002EC  6F67               	movwf	(___lmul@multiplicand+3)& (0+255),b
  1892   0002EE  EC18  F009         	call	___lmul	;wreg free
  1893   0002F2  C060  F068         	movff	?___lmul,___lldiv@dividend
  1894   0002F6  C061  F069         	movff	?___lmul+1,___lldiv@dividend+1
  1895   0002FA  C062  F06A         	movff	?___lmul+2,___lldiv@dividend+2
  1896   0002FE  C063  F06B         	movff	?___lmul+3,___lldiv@dividend+3
  1897   000302  0EFF               	movlw	255
  1898   000304  6F6C               	movwf	___lldiv@divisor& (0+255),b
  1899   000306  0E03               	movlw	3
  1900   000308  6F6D               	movwf	(___lldiv@divisor+1)& (0+255),b
  1901   00030A  0E00               	movlw	0
  1902   00030C  6F6E               	movwf	(___lldiv@divisor+2)& (0+255),b
  1903   00030E  0E00               	movlw	0
  1904   000310  6F6F               	movwf	(___lldiv@divisor+3)& (0+255),b
  1905   000312  EC39  F008         	call	___lldiv	;wreg free
  1906   000316  5168               	movf	?___lldiv& (0+255),w,b
  1907   000318  6E35               	movwf	_pwm_duty_perc^0,c
  1908                           
  1909                           ;Lab6.c: 248: } else {
  1910   00031A  D043               	goto	u4035
  1911   00031C                     l4887:
  1912                           
  1913                           ;Lab6.c: 249: unsigned int val_reg = (pwm_duty_perc * 1023UL) / 100UL;
  1914   00031C  5035               	movf	_pwm_duty_perc^0,w,c
  1915   00031E  0100               	movlb	0	; () banked
  1916   000320  6F60               	movwf	___lmul@multiplier& (0+255),b
  1917   000322  6B61               	clrf	(___lmul@multiplier+1)& (0+255),b
  1918   000324  6B62               	clrf	(___lmul@multiplier+2)& (0+255),b
  1919   000326  6B63               	clrf	(___lmul@multiplier+3)& (0+255),b
  1920   000328  0EFF               	movlw	255
  1921   00032A  6F64               	movwf	___lmul@multiplicand& (0+255),b
  1922   00032C  0E03               	movlw	3
  1923   00032E  6F65               	movwf	(___lmul@multiplicand+1)& (0+255),b
  1924   000330  0E00               	movlw	0
  1925   000332  6F66               	movwf	(___lmul@multiplicand+2)& (0+255),b
  1926   000334  0E00               	movlw	0
  1927   000336  6F67               	movwf	(___lmul@multiplicand+3)& (0+255),b
  1928   000338  EC18  F009         	call	___lmul	;wreg free
  1929   00033C  C060  F068         	movff	?___lmul,___lldiv@dividend
  1930   000340  C061  F069         	movff	?___lmul+1,___lldiv@dividend+1
  1931   000344  C062  F06A         	movff	?___lmul+2,___lldiv@dividend+2
  1932   000348  C063  F06B         	movff	?___lmul+3,___lldiv@dividend+3
  1933   00034C  0E64               	movlw	100
  1934   00034E  6F6C               	movwf	___lldiv@divisor& (0+255),b
  1935   000350  0E00               	movlw	0
  1936   000352  6F6D               	movwf	(___lldiv@divisor+1)& (0+255),b
  1937   000354  0E00               	movlw	0
  1938   000356  6F6E               	movwf	(___lldiv@divisor+2)& (0+255),b
  1939   000358  0E00               	movlw	0
  1940   00035A  6F6F               	movwf	(___lldiv@divisor+3)& (0+255),b
  1941   00035C  EC39  F008         	call	___lldiv	;wreg free
  1942   000360  C068  F077         	movff	?___lldiv,main@val_reg
  1943   000364  C069  F078         	movff	?___lldiv+1,main@val_reg+1
  1944                           
  1945                           ; BSR set to: 0
  1946                           ;Lab6.c: 250: CCPR1L = val_reg >> 2;
  1947   000368  C077  F075         	movff	main@val_reg,??_main
  1948   00036C  C078  F076         	movff	main@val_reg+1,??_main+1
  1949   000370  90D8               	bcf	status,0,c
  1950   000372  3376               	rrcf	(??_main+1)& (0+255),f,b
  1951   000374  3375               	rrcf	??_main& (0+255),f,b
  1952   000376  90D8               	bcf	status,0,c
  1953   000378  3376               	rrcf	(??_main+1)& (0+255),f,b
  1954   00037A  3375               	rrcf	??_main& (0+255),f,b
  1955   00037C  5175               	movf	??_main& (0+255),w,b
  1956   00037E  6EBE               	movwf	190,c	;volatile
  1957                           
  1958                           ; BSR set to: 0
  1959                           ;Lab6.c: 251: DC1B1 = (val_reg & 2) >> 1;
  1960   000380  90D8               	bcf	status,0,c
  1961   000382  3178               	rrcf	(main@val_reg+1)& (0+255),w,b
  1962   000384  6F76               	movwf	(??_main+1)& (0+255),b
  1963   000386  3177               	rrcf	main@val_reg& (0+255),w,b
  1964   000388  6F75               	movwf	??_main& (0+255),b
  1965   00038A  3175               	rrcf	??_main& (0+255),w,b
  1966   00038C  A0D8               	btfss	status,0,c
  1967   00038E  D002               	goto	u4000
  1968   000390  8ABD               	bsf	4029,5,c	;volatile
  1969   000392  D001               	goto	u4015
  1970   000394                     u4000:
  1971   000394  9ABD               	bcf	4029,5,c	;volatile
  1972   000396                     u4015:
  1973                           
  1974                           ;Lab6.c: 252: DC1B0 = val_reg & 1;
  1975   000396  0100               	movlb	0	; () banked
  1976   000398  A177               	btfss	main@val_reg& (0+255),0,b
  1977   00039A  D002               	goto	u4020
  1978   00039C  88BD               	bsf	4029,4,c	;volatile
  1979   00039E  D001               	goto	u4035
  1980   0003A0                     u4020:
  1981   0003A0  98BD               	bcf	4029,4,c	;volatile
  1982   0003A2                     u4035:
  1983                           
  1984                           ;Lab6.c: 253: };Lab6.c: 256: flag_imprimir = 1;
  1985   0003A2  0E01               	movlw	1
  1986   0003A4  6E36               	movwf	_flag_imprimir^0,c	;volatile
  1987   0003A6                     l4897:
  1988                           
  1989                           ;Lab6.c: 257: };Lab6.c: 260: if(flag_imprimir == 1){
  1990   0003A6  0436               	decf	_flag_imprimir^0,w,c	;volatile
  1991   0003A8  A4D8               	btfss	status,2,c
  1992   0003AA  D015               	goto	l4903
  1993                           
  1994                           ;Lab6.c: 261: flag_imprimir = 0;
  1995   0003AC  6A36               	clrf	_flag_imprimir^0,c	;volatile
  1996                           
  1997                           ;Lab6.c: 264: printf("\r\nValor de PWM: %d %%", pwm_duty_perc);
  1998   0003AE  0EE5               	movlw	low STR_7
  1999   0003B0  0100               	movlb	0	; () banked
  2000   0003B2  6F67               	movwf	printf@f& (0+255),b
  2001   0003B4  0E7E               	movlw	high STR_7
  2002   0003B6  6F68               	movwf	(printf@f+1)& (0+255),b
  2003   0003B8  C035  F069         	movff	_pwm_duty_perc,?_printf+2
  2004   0003BC  6B6A               	clrf	(?_printf+3)& (0+255),b
  2005   0003BE  ECA5  F005         	call	_printf	;wreg free
  2006                           
  2007                           ;Lab6.c: 266: printf("\r\nDistancia objeto: %d cm", distancia);
  2008   0003C2  0ECB               	movlw	low STR_8
  2009   0003C4  6F67               	movwf	printf@f& (0+255),b
  2010   0003C6  0E7E               	movlw	high STR_8
  2011   0003C8  6F68               	movwf	(printf@f+1)& (0+255),b
  2012   0003CA  C025  F069         	movff	_distancia,?_printf+2
  2013   0003CE  C026  F06A         	movff	_distancia+1,?_printf+3
  2014   0003D2  ECA5  F005         	call	_printf	;wreg free
  2015   0003D6                     l4903:
  2016                           
  2017                           ;Lab6.c: 267: };Lab6.c: 269: if(Supercontador == 0) PreguntaAlUsuario();
  2018   0003D6  5031               	movf	_Supercontador^0,w,c
  2019   0003D8  1032               	iorwf	(_Supercontador+1)^0,w,c
  2020   0003DA  B4D8               	btfsc	status,2,c
  2021   0003DC  ECAE  F006         	call	_PreguntaAlUsuario	;wreg free
  2022                           
  2023                           ;Lab6.c: 270: OcultarCursor();
  2024   0003E0  EC4D  F00C         	call	_OcultarCursor	;wreg free
  2025                           
  2026                           ;Lab6.c: 272: BorraLCD();
  2027   0003E4  ECEF  F00B         	call	_BorraLCD	;wreg free
  2028                           
  2029                           ;Lab6.c: 273: MensajeLCD_Var("Faltantes: ");
  2030   0003E8  0ED1               	movlw	low STR_9
  2031   0003EA  0100               	movlb	0	; () banked
  2032   0003EC  6F60               	movwf	MensajeLCD_Var@a& (0+255),b
  2033   0003EE  0E7F               	movlw	high STR_9
  2034   0003F0  6F61               	movwf	(MensajeLCD_Var@a+1)& (0+255),b
  2035   0003F2  EC12  F00A         	call	_MensajeLCD_Var	;wreg free
  2036                           
  2037                           ; BSR set to: 0
  2038                           ;Lab6.c: 274: EscribeLCD_n8(Objetivo-Supercontador,2);
  2039   0003F6  0E02               	movlw	2
  2040   0003F8  6F63               	movwf	EscribeLCD_n8@b& (0+255),b
  2041   0003FA  5031               	movf	_Supercontador^0,w,c
  2042   0003FC  5C2B               	subwf	_Objetivo^0,w,c
  2043   0003FE  EC34  F006         	call	_EscribeLCD_n8
  2044                           
  2045                           ;Lab6.c: 275: DireccionaLCD(0xC0);
  2046   000402  0EC0               	movlw	192
  2047   000404  ECCE  F00B         	call	_DireccionaLCD
  2048                           
  2049                           ;Lab6.c: 276: MensajeLCD_Var("Objetivo: ");
  2050   000408  0EE9               	movlw	low STR_10
  2051   00040A  0100               	movlb	0	; () banked
  2052   00040C  6F60               	movwf	MensajeLCD_Var@a& (0+255),b
  2053   00040E  0E7F               	movlw	high STR_10
  2054   000410  6F61               	movwf	(MensajeLCD_Var@a+1)& (0+255),b
  2055   000412  EC12  F00A         	call	_MensajeLCD_Var	;wreg free
  2056                           
  2057                           ; BSR set to: 0
  2058                           ;Lab6.c: 277: EscribeLCD_n8(Objetivo,2);
  2059   000416  0E02               	movlw	2
  2060   000418  6F63               	movwf	EscribeLCD_n8@b& (0+255),b
  2061   00041A  502B               	movf	_Objetivo^0,w,c
  2062   00041C  EC34  F006         	call	_EscribeLCD_n8
  2063                           
  2064                           ;Lab6.c: 278: salir=1;
  2065   000420  0E01               	movlw	1
  2066   000422  6E3B               	movwf	_salir^0,c
  2067                           
  2068                           ;Lab6.c: 280: while (salir==1){
  2069   000424  D186               	goto	l5053
  2070   000426                     l4923:
  2071                           
  2072                           ;Lab6.c: 284: if(flag_timer0_event == 1){
  2073   000426  0437               	decf	_flag_timer0_event^0,w,c	;volatile
  2074   000428  A4D8               	btfss	status,2,c
  2075   00042A  D09A               	goto	l4949
  2076                           
  2077                           ;Lab6.c: 285: flag_timer0_event = 0;
  2078   00042C  6A37               	clrf	_flag_timer0_event^0,c	;volatile
  2079                           
  2080                           ;Lab6.c: 286: LATA1=LATA1^1;
  2081   00042E  B289               	btfsc	3977,1,c	;volatile
  2082   000430  D002               	goto	u4070
  2083   000432  8289               	bsf	3977,1,c	;volatile
  2084   000434  D001               	goto	u4085
  2085   000436                     u4070:
  2086   000436  9289               	bcf	3977,1,c	;volatile
  2087   000438                     u4085:
  2088                           
  2089                           ;Lab6.c: 287: TriggerUltrasonido();
  2090   000438  EC45  F00C         	call	_TriggerUltrasonido	;wreg free
  2091                           
  2092                           ;Lab6.c: 289: if(control_manual_pwm == 0){
  2093   00043C  5034               	movf	_control_manual_pwm^0,w,c
  2094   00043E  A4D8               	btfss	status,2,c
  2095   000440  D04A               	goto	l4939
  2096                           
  2097                           ;Lab6.c: 290: valorADC=Conversion(0);
  2098   000442  0E00               	movlw	0
  2099   000444  ECA9  F00B         	call	_Conversion
  2100   000448  C020  F029         	movff	?_Conversion,_valorADC
  2101   00044C  C021  F02A         	movff	?_Conversion+1,_valorADC+1
  2102                           
  2103                           ;Lab6.c: 291: CCPR1L = valorADC >> 2;
  2104   000450  C029  F075         	movff	_valorADC,??_main
  2105   000454  C02A  F076         	movff	_valorADC+1,??_main+1
  2106   000458  0100               	movlb	0	; () banked
  2107   00045A  90D8               	bcf	status,0,c
  2108   00045C  3376               	rrcf	(??_main+1)& (0+255),f,b
  2109   00045E  3375               	rrcf	??_main& (0+255),f,b
  2110   000460  90D8               	bcf	status,0,c
  2111   000462  3376               	rrcf	(??_main+1)& (0+255),f,b
  2112   000464  3375               	rrcf	??_main& (0+255),f,b
  2113   000466  5175               	movf	??_main& (0+255),w,b
  2114   000468  6EBE               	movwf	190,c	;volatile
  2115                           
  2116                           ; BSR set to: 0
  2117                           ;Lab6.c: 292: DC1B1 = (valorADC & 2) >> 1;
  2118   00046A  90D8               	bcf	status,0,c
  2119   00046C  302A               	rrcf	(_valorADC+1)^0,w,c
  2120   00046E  6F76               	movwf	(??_main+1)& (0+255),b
  2121   000470  3029               	rrcf	_valorADC^0,w,c
  2122   000472  6F75               	movwf	??_main& (0+255),b
  2123   000474  3175               	rrcf	??_main& (0+255),w,b
  2124   000476  A0D8               	btfss	status,0,c
  2125   000478  D002               	goto	u4100
  2126   00047A  8ABD               	bsf	4029,5,c	;volatile
  2127   00047C  D001               	goto	u4115
  2128   00047E                     u4100:
  2129   00047E  9ABD               	bcf	4029,5,c	;volatile
  2130   000480                     u4115:
  2131                           
  2132                           ;Lab6.c: 293: DC1B0 = valorADC & 1;
  2133   000480  A029               	btfss	_valorADC^0,0,c
  2134   000482  D002               	goto	u4120
  2135   000484  88BD               	bsf	4029,4,c	;volatile
  2136   000486  D001               	goto	u4135
  2137   000488                     u4120:
  2138   000488  98BD               	bcf	4029,4,c	;volatile
  2139   00048A                     u4135:
  2140                           
  2141                           ;Lab6.c: 294: pwm_duty_perc = (unsigned char)((valorADC * 100UL) / 1023UL);
  2142   00048A  C029  F060         	movff	_valorADC,___lmul@multiplier
  2143   00048E  C02A  F061         	movff	_valorADC+1,___lmul@multiplier+1
  2144   000492  0100               	movlb	0	; () banked
  2145   000494  6B62               	clrf	(___lmul@multiplier+2)& (0+255),b
  2146   000496  6B63               	clrf	(___lmul@multiplier+3)& (0+255),b
  2147   000498  0E64               	movlw	100
  2148   00049A  6F64               	movwf	___lmul@multiplicand& (0+255),b
  2149   00049C  0E00               	movlw	0
  2150   00049E  6F65               	movwf	(___lmul@multiplicand+1)& (0+255),b
  2151   0004A0  0E00               	movlw	0
  2152   0004A2  6F66               	movwf	(___lmul@multiplicand+2)& (0+255),b
  2153   0004A4  0E00               	movlw	0
  2154   0004A6  6F67               	movwf	(___lmul@multiplicand+3)& (0+255),b
  2155   0004A8  EC18  F009         	call	___lmul	;wreg free
  2156   0004AC  C060  F068         	movff	?___lmul,___lldiv@dividend
  2157   0004B0  C061  F069         	movff	?___lmul+1,___lldiv@dividend+1
  2158   0004B4  C062  F06A         	movff	?___lmul+2,___lldiv@dividend+2
  2159   0004B8  C063  F06B         	movff	?___lmul+3,___lldiv@dividend+3
  2160   0004BC  0EFF               	movlw	255
  2161   0004BE  6F6C               	movwf	___lldiv@divisor& (0+255),b
  2162   0004C0  0E03               	movlw	3
  2163   0004C2  6F6D               	movwf	(___lldiv@divisor+1)& (0+255),b
  2164   0004C4  0E00               	movlw	0
  2165   0004C6  6F6E               	movwf	(___lldiv@divisor+2)& (0+255),b
  2166   0004C8  0E00               	movlw	0
  2167   0004CA  6F6F               	movwf	(___lldiv@divisor+3)& (0+255),b
  2168   0004CC  EC39  F008         	call	___lldiv	;wreg free
  2169   0004D0  5168               	movf	?___lldiv& (0+255),w,b
  2170   0004D2  6E35               	movwf	_pwm_duty_perc^0,c
  2171                           
  2172                           ;Lab6.c: 295: } else {
  2173   0004D4  D043               	goto	u4175
  2174   0004D6                     l4939:
  2175                           
  2176                           ;Lab6.c: 296: unsigned int val_reg = (pwm_duty_perc * 1023UL) / 100UL;
  2177   0004D6  5035               	movf	_pwm_duty_perc^0,w,c
  2178   0004D8  0100               	movlb	0	; () banked
  2179   0004DA  6F60               	movwf	___lmul@multiplier& (0+255),b
  2180   0004DC  6B61               	clrf	(___lmul@multiplier+1)& (0+255),b
  2181   0004DE  6B62               	clrf	(___lmul@multiplier+2)& (0+255),b
  2182   0004E0  6B63               	clrf	(___lmul@multiplier+3)& (0+255),b
  2183   0004E2  0EFF               	movlw	255
  2184   0004E4  6F64               	movwf	___lmul@multiplicand& (0+255),b
  2185   0004E6  0E03               	movlw	3
  2186   0004E8  6F65               	movwf	(___lmul@multiplicand+1)& (0+255),b
  2187   0004EA  0E00               	movlw	0
  2188   0004EC  6F66               	movwf	(___lmul@multiplicand+2)& (0+255),b
  2189   0004EE  0E00               	movlw	0
  2190   0004F0  6F67               	movwf	(___lmul@multiplicand+3)& (0+255),b
  2191   0004F2  EC18  F009         	call	___lmul	;wreg free
  2192   0004F6  C060  F068         	movff	?___lmul,___lldiv@dividend
  2193   0004FA  C061  F069         	movff	?___lmul+1,___lldiv@dividend+1
  2194   0004FE  C062  F06A         	movff	?___lmul+2,___lldiv@dividend+2
  2195   000502  C063  F06B         	movff	?___lmul+3,___lldiv@dividend+3
  2196   000506  0E64               	movlw	100
  2197   000508  6F6C               	movwf	___lldiv@divisor& (0+255),b
  2198   00050A  0E00               	movlw	0
  2199   00050C  6F6D               	movwf	(___lldiv@divisor+1)& (0+255),b
  2200   00050E  0E00               	movlw	0
  2201   000510  6F6E               	movwf	(___lldiv@divisor+2)& (0+255),b
  2202   000512  0E00               	movlw	0
  2203   000514  6F6F               	movwf	(___lldiv@divisor+3)& (0+255),b
  2204   000516  EC39  F008         	call	___lldiv	;wreg free
  2205   00051A  C068  F079         	movff	?___lldiv,main@val_reg_302
  2206   00051E  C069  F07A         	movff	?___lldiv+1,main@val_reg_302+1
  2207                           
  2208                           ; BSR set to: 0
  2209                           ;Lab6.c: 297: CCPR1L = val_reg >> 2;
  2210   000522  C079  F075         	movff	main@val_reg_302,??_main
  2211   000526  C07A  F076         	movff	main@val_reg_302+1,??_main+1
  2212   00052A  90D8               	bcf	status,0,c
  2213   00052C  3376               	rrcf	(??_main+1)& (0+255),f,b
  2214   00052E  3375               	rrcf	??_main& (0+255),f,b
  2215   000530  90D8               	bcf	status,0,c
  2216   000532  3376               	rrcf	(??_main+1)& (0+255),f,b
  2217   000534  3375               	rrcf	??_main& (0+255),f,b
  2218   000536  5175               	movf	??_main& (0+255),w,b
  2219   000538  6EBE               	movwf	190,c	;volatile
  2220                           
  2221                           ; BSR set to: 0
  2222                           ;Lab6.c: 298: DC1B1 = (val_reg & 2) >> 1;
  2223   00053A  90D8               	bcf	status,0,c
  2224   00053C  317A               	rrcf	(main@val_reg_302+1)& (0+255),w,b
  2225   00053E  6F76               	movwf	(??_main+1)& (0+255),b
  2226   000540  3179               	rrcf	main@val_reg_302& (0+255),w,b
  2227   000542  6F75               	movwf	??_main& (0+255),b
  2228   000544  3175               	rrcf	??_main& (0+255),w,b
  2229   000546  A0D8               	btfss	status,0,c
  2230   000548  D002               	goto	u4140
  2231   00054A  8ABD               	bsf	4029,5,c	;volatile
  2232   00054C  D001               	goto	u4155
  2233   00054E                     u4140:
  2234   00054E  9ABD               	bcf	4029,5,c	;volatile
  2235   000550                     u4155:
  2236                           
  2237                           ;Lab6.c: 299: DC1B0 = val_reg & 1;
  2238   000550  0100               	movlb	0	; () banked
  2239   000552  A179               	btfss	main@val_reg_302& (0+255),0,b
  2240   000554  D002               	goto	u4160
  2241   000556  88BD               	bsf	4029,4,c	;volatile
  2242   000558  D001               	goto	u4175
  2243   00055A                     u4160:
  2244   00055A  98BD               	bcf	4029,4,c	;volatile
  2245   00055C                     u4175:
  2246                           
  2247                           ;Lab6.c: 300: };Lab6.c: 301: flag_imprimir = 1;
  2248   00055C  0E01               	movlw	1
  2249   00055E  6E36               	movwf	_flag_imprimir^0,c	;volatile
  2250   000560                     l4949:
  2251                           
  2252                           ;Lab6.c: 302: };Lab6.c: 304: if(flag_imprimir == 1){
  2253   000560  0436               	decf	_flag_imprimir^0,w,c	;volatile
  2254   000562  A4D8               	btfss	status,2,c
  2255   000564  D015               	goto	l4955
  2256                           
  2257                           ;Lab6.c: 305: flag_imprimir = 0;
  2258   000566  6A36               	clrf	_flag_imprimir^0,c	;volatile
  2259                           
  2260                           ;Lab6.c: 306: printf("\r\nValor de PWM: %d %%", pwm_duty_perc);
  2261   000568  0EE5               	movlw	low STR_7
  2262   00056A  0100               	movlb	0	; () banked
  2263   00056C  6F67               	movwf	printf@f& (0+255),b
  2264   00056E  0E7E               	movlw	high STR_7
  2265   000570  6F68               	movwf	(printf@f+1)& (0+255),b
  2266   000572  C035  F069         	movff	_pwm_duty_perc,?_printf+2
  2267   000576  6B6A               	clrf	(?_printf+3)& (0+255),b
  2268   000578  ECA5  F005         	call	_printf	;wreg free
  2269                           
  2270                           ;Lab6.c: 307: printf("\r\nDistancia objeto: %d cm", distancia);
  2271   00057C  0ECB               	movlw	low STR_8
  2272   00057E  6F67               	movwf	printf@f& (0+255),b
  2273   000580  0E7E               	movlw	high STR_8
  2274   000582  6F68               	movwf	(printf@f+1)& (0+255),b
  2275   000584  C025  F069         	movff	_distancia,?_printf+2
  2276   000588  C026  F06A         	movff	_distancia+1,?_printf+3
  2277   00058C  ECA5  F005         	call	_printf	;wreg free
  2278   000590                     l4955:
  2279                           
  2280                           ;Lab6.c: 308: };Lab6.c: 311: if(Supercontador==Objetivo){
  2281   000590  502B               	movf	_Objetivo^0,w,c
  2282   000592  1831               	xorwf	_Supercontador^0,w,c
  2283   000594  E136               	bnz	l4981
  2284   000596  502C               	movf	(_Objetivo+1)^0,w,c
  2285   000598  1832               	xorwf	(_Supercontador+1)^0,w,c
  2286   00059A  A4D8               	btfss	status,2,c
  2287   00059C  D032               	goto	l4981
  2288                           
  2289                           ;Lab6.c: 313: LATA2=1;
  2290   00059E  8489               	bsf	3977,2,c	;volatile
  2291                           
  2292                           ;Lab6.c: 314: _delay((unsigned long)((1000)*(1000000/4000.0)));
  2293   0005A0  0E02               	movlw	2
  2294   0005A2  0100               	movlb	0	; () banked
  2295   0005A4  6F76               	movwf	(??_main+1)& (0+255),b
  2296   0005A6  0E45               	movlw	69
  2297   0005A8  6F75               	movwf	??_main& (0+255),b
  2298   0005AA  0EA9               	movlw	169
  2299   0005AC                     u4387:
  2300   0005AC  2EE8               	decfsz	wreg,f,c
  2301   0005AE  D7FE               	bra	u4387
  2302   0005B0  2F75               	decfsz	??_main& (0+255),f,b
  2303   0005B2  D7FC               	bra	u4387
  2304   0005B4  2F76               	decfsz	(??_main+1)& (0+255),f,b
  2305   0005B6  D7FA               	bra	u4387
  2306   0005B8  D000               	nop2	
  2307                           
  2308                           ;Lab6.c: 315: LATA2=0;
  2309   0005BA  9489               	bcf	3977,2,c	;volatile
  2310                           
  2311                           ;Lab6.c: 318: BorraLCD();
  2312   0005BC  ECEF  F00B         	call	_BorraLCD	;wreg free
  2313                           
  2314                           ;Lab6.c: 319: MensajeLCD_Var("Cuenta Cumplida");
  2315   0005C0  0E45               	movlw	low STR_13
  2316   0005C2  0100               	movlb	0	; () banked
  2317   0005C4  6F60               	movwf	MensajeLCD_Var@a& (0+255),b
  2318   0005C6  0E7F               	movlw	high STR_13
  2319   0005C8  6F61               	movwf	(MensajeLCD_Var@a+1)& (0+255),b
  2320   0005CA  EC12  F00A         	call	_MensajeLCD_Var	;wreg free
  2321                           
  2322                           ; BSR set to: 0
  2323                           ;Lab6.c: 320: DireccionaLCD(0xC0);
  2324   0005CE  0EC0               	movlw	192
  2325   0005D0  ECCE  F00B         	call	_DireccionaLCD
  2326                           
  2327                           ;Lab6.c: 321: MensajeLCD_Var("   Presione OK");
  2328   0005D4  0E64               	movlw	low STR_14
  2329   0005D6  0100               	movlb	0	; () banked
  2330   0005D8  6F60               	movwf	MensajeLCD_Var@a& (0+255),b
  2331   0005DA  0E7F               	movlw	high STR_14
  2332   0005DC  6F61               	movwf	(MensajeLCD_Var@a+1)& (0+255),b
  2333   0005DE  EC12  F00A         	call	_MensajeLCD_Var	;wreg free
  2334                           
  2335                           ; BSR set to: 0
  2336                           ;Lab6.c: 323: salir = 0;
  2337   0005E2  6A3B               	clrf	_salir^0,c
  2338                           
  2339                           ; BSR set to: 0
  2340                           ;Lab6.c: 325: GuardarEEPROM(0, 0);
  2341   0005E4  0E00               	movlw	0
  2342   0005E6  6E21               	movwf	(GuardarEEPROM@direccion+1)^0,c
  2343   0005E8  0E00               	movlw	0
  2344   0005EA  6E20               	movwf	GuardarEEPROM@direccion^0,c
  2345   0005EC  0E00               	movlw	0
  2346   0005EE  6E22               	movwf	GuardarEEPROM@dato^0,c
  2347   0005F0  EC87  F00B         	call	_GuardarEEPROM	;wreg free
  2348                           
  2349                           ;Lab6.c: 327: Tecla='\0';
  2350   0005F4  6A3A               	clrf	_Tecla^0,c
  2351   0005F6                     l4977:
  2352   0005F6  0E2A               	movlw	42
  2353   0005F8  183A               	xorwf	_Tecla^0,w,c
  2354   0005FA  A4D8               	btfss	status,2,c
  2355   0005FC  D7FC               	goto	l4977
  2356                           
  2357                           ;Lab6.c: 329: ConfigVariables();
  2358   0005FE  EC49  F00B         	call	_ConfigVariables	;wreg free
  2359   000602                     l4981:
  2360                           
  2361                           ;Lab6.c: 331: };Lab6.c: 337: if(distancia >= 5 && distancia <= 8){
  2362   000602  BE26               	btfsc	(_distancia+1)^0,7,c
  2363   000604  D086               	goto	l5049
  2364   000606  5026               	movf	(_distancia+1)^0,w,c
  2365   000608  E104               	bnz	u4210
  2366   00060A  0E05               	movlw	5
  2367   00060C  5C25               	subwf	_distancia^0,w,c
  2368   00060E  A0D8               	btfss	status,0,c
  2369   000610  D080               	goto	l5049
  2370   000612                     u4210:
  2371   000612  BE26               	btfsc	(_distancia+1)^0,7,c
  2372   000614  D006               	goto	u4220
  2373   000616  5026               	movf	(_distancia+1)^0,w,c
  2374   000618  E17C               	bnz	l5049
  2375   00061A  0E09               	movlw	9
  2376   00061C  5C25               	subwf	_distancia^0,w,c
  2377   00061E  B0D8               	btfsc	status,0,c
  2378   000620  D078               	goto	l5049
  2379   000622                     u4220:
  2380                           
  2381                           ;Lab6.c: 338: Inactividad=0;
  2382   000622  6A39               	clrf	_Inactividad^0,c
  2383                           
  2384                           ;Lab6.c: 339: if(Pulsado==0){
  2385   000624  503E               	movf	_Pulsado^0,w,c
  2386   000626  A4D8               	btfss	status,2,c
  2387   000628  D084               	goto	l5053
  2388                           
  2389                           ;Lab6.c: 340: Pulsado=1;
  2390   00062A  0E01               	movlw	1
  2391   00062C  6E3E               	movwf	_Pulsado^0,c
  2392                           
  2393                           ;Lab6.c: 341: contador++;
  2394   00062E  4A2F               	infsnz	_contador^0,f,c
  2395   000630  2A30               	incf	(_contador+1)^0,f,c
  2396                           
  2397                           ;Lab6.c: 342: Supercontador++;
  2398   000632  4A31               	infsnz	_Supercontador^0,f,c
  2399   000634  2A32               	incf	(_Supercontador+1)^0,f,c
  2400                           
  2401                           ;Lab6.c: 344: GuardarEEPROM(0, (unsigned char)Supercontador);
  2402   000636  0E00               	movlw	0
  2403   000638  6E21               	movwf	(GuardarEEPROM@direccion+1)^0,c
  2404   00063A  0E00               	movlw	0
  2405   00063C  6E20               	movwf	GuardarEEPROM@direccion^0,c
  2406   00063E  C031  F022         	movff	_Supercontador,GuardarEEPROM@dato
  2407   000642  EC87  F00B         	call	_GuardarEEPROM	;wreg free
  2408                           
  2409                           ;Lab6.c: 346: if (contador==10){
  2410   000646  0E0A               	movlw	10
  2411   000648  182F               	xorwf	_contador^0,w,c
  2412   00064A  1030               	iorwf	(_contador+1)^0,w,c
  2413   00064C  A4D8               	btfss	status,2,c
  2414   00064E  D025               	goto	l5019
  2415                           
  2416                           ;Lab6.c: 348: LATA2=1;
  2417   000650  8489               	bsf	3977,2,c	;volatile
  2418                           
  2419                           ;Lab6.c: 349: _delay((unsigned long)((300)*(1000000/4000.0)));
  2420   000652  0E62               	movlw	98
  2421   000654  0100               	movlb	0	; () banked
  2422   000656  6F75               	movwf	??_main& (0+255),b
  2423   000658  0E65               	movlw	101
  2424   00065A                     u4397:
  2425   00065A  2EE8               	decfsz	wreg,f,c
  2426   00065C  D7FE               	bra	u4397
  2427   00065E  2F75               	decfsz	??_main& (0+255),f,b
  2428   000660  D7FC               	bra	u4397
  2429   000662  D000               	nop2	
  2430                           
  2431                           ;Lab6.c: 350: LATA2=0;
  2432   000664  9489               	bcf	3977,2,c	;volatile
  2433                           
  2434                           ;Lab6.c: 352: contador=0;
  2435   000666  0E00               	movlw	0
  2436   000668  6E30               	movwf	(_contador+1)^0,c
  2437   00066A  0E00               	movlw	0
  2438   00066C  6E2F               	movwf	_contador^0,c
  2439                           
  2440                           ;Lab6.c: 353: contadorRGB++;
  2441   00066E  4A2D               	infsnz	_contadorRGB^0,f,c
  2442   000670  2A2E               	incf	(_contadorRGB+1)^0,f,c
  2443                           
  2444                           ;Lab6.c: 354: if (contadorRGB==6){
  2445   000672  0E06               	movlw	6
  2446   000674  182D               	xorwf	_contadorRGB^0,w,c
  2447   000676  102E               	iorwf	(_contadorRGB+1)^0,w,c
  2448   000678  A4D8               	btfss	status,2,c
  2449   00067A  D00F               	goto	l5019
  2450                           
  2451                           ;Lab6.c: 356: LATA2=1;
  2452   00067C  8489               	bsf	3977,2,c	;volatile
  2453                           
  2454                           ;Lab6.c: 357: _delay((unsigned long)((300)*(1000000/4000.0)));
  2455   00067E  0E62               	movlw	98
  2456   000680  0100               	movlb	0	; () banked
  2457   000682  6F75               	movwf	??_main& (0+255),b
  2458   000684  0E65               	movlw	101
  2459   000686                     u4407:
  2460   000686  2EE8               	decfsz	wreg,f,c
  2461   000688  D7FE               	bra	u4407
  2462   00068A  2F75               	decfsz	??_main& (0+255),f,b
  2463   00068C  D7FC               	bra	u4407
  2464   00068E  D000               	nop2	
  2465                           
  2466                           ;Lab6.c: 358: LATA2=0;
  2467   000690  9489               	bcf	3977,2,c	;volatile
  2468                           
  2469                           ;Lab6.c: 360: contadorRGB=0;
  2470   000692  0E00               	movlw	0
  2471   000694  6E2E               	movwf	(_contadorRGB+1)^0,c
  2472   000696  0E00               	movlw	0
  2473   000698  6E2D               	movwf	_contadorRGB^0,c
  2474   00069A                     l5019:
  2475                           
  2476                           ;Lab6.c: 361: };Lab6.c: 362: };Lab6.c: 364: if(contadorRGB==0){
  2477   00069A  502D               	movf	_contadorRGB^0,w,c
  2478   00069C  102E               	iorwf	(_contadorRGB+1)^0,w,c
  2479   00069E  A4D8               	btfss	status,2,c
  2480   0006A0  D002               	goto	l5023
  2481                           
  2482                           ;Lab6.c: 365: LATE=0b00000010;
  2483   0006A2  0E02               	movlw	2
  2484   0006A4  D01A               	goto	L9
  2485   0006A6                     l5023:
  2486   0006A6  042D               	decf	_contadorRGB^0,w,c
  2487   0006A8  102E               	iorwf	(_contadorRGB+1)^0,w,c
  2488   0006AA  A4D8               	btfss	status,2,c
  2489   0006AC  D002               	goto	l5027
  2490                           
  2491                           ;Lab6.c: 367: LATE=0b00000011;
  2492   0006AE  0E03               	movlw	3
  2493   0006B0  D014               	goto	L9
  2494   0006B2                     l5027:
  2495   0006B2  0E02               	movlw	2
  2496   0006B4  182D               	xorwf	_contadorRGB^0,w,c
  2497   0006B6  102E               	iorwf	(_contadorRGB+1)^0,w,c
  2498   0006B8  A4D8               	btfss	status,2,c
  2499   0006BA  D002               	goto	l5031
  2500                           
  2501                           ;Lab6.c: 369: LATE=0b00000001;
  2502   0006BC  0E01               	movlw	1
  2503   0006BE  D00D               	goto	L9
  2504   0006C0                     l5031:
  2505   0006C0  0E03               	movlw	3
  2506   0006C2  182D               	xorwf	_contadorRGB^0,w,c
  2507   0006C4  102E               	iorwf	(_contadorRGB+1)^0,w,c
  2508   0006C6  A4D8               	btfss	status,2,c
  2509   0006C8  D002               	goto	l5035
  2510                           
  2511                           ;Lab6.c: 371: LATE=0b00000101;
  2512   0006CA  0E05               	movlw	5
  2513   0006CC  D006               	goto	L9
  2514   0006CE                     l5035:
  2515   0006CE  0E04               	movlw	4
  2516   0006D0  182D               	xorwf	_contadorRGB^0,w,c
  2517   0006D2  102E               	iorwf	(_contadorRGB+1)^0,w,c
  2518   0006D4  A4D8               	btfss	status,2,c
  2519   0006D6  D003               	goto	l5039
  2520                           
  2521                           ;Lab6.c: 373: LATE=0b00000100;
  2522   0006D8  0E04               	movlw	4
  2523   0006DA                     L9:
  2524   0006DA  6E8D               	movwf	141,c	;volatile
  2525                           
  2526                           ;Lab6.c: 374: }else if(contadorRGB==5){
  2527   0006DC  D005               	goto	l399
  2528   0006DE                     l5039:
  2529   0006DE  0E05               	movlw	5
  2530   0006E0  182D               	xorwf	_contadorRGB^0,w,c
  2531   0006E2  102E               	iorwf	(_contadorRGB+1)^0,w,c
  2532   0006E4  B4D8               	btfsc	status,2,c
  2533                           
  2534                           ;Lab6.c: 375: LATE=0b00000000;
  2535   0006E6  6A8D               	clrf	141,c	;volatile
  2536   0006E8                     l399:
  2537                           
  2538                           ;Lab6.c: 376: };Lab6.c: 378: DireccionaLCD(0x8B);
  2539   0006E8  0E8B               	movlw	139
  2540   0006EA  ECCE  F00B         	call	_DireccionaLCD
  2541                           
  2542                           ;Lab6.c: 379: EscribeLCD_n8(Objetivo-Supercontador,2);
  2543   0006EE  0E02               	movlw	2
  2544   0006F0  0100               	movlb	0	; () banked
  2545   0006F2  6F63               	movwf	EscribeLCD_n8@b& (0+255),b
  2546   0006F4  5031               	movf	_Supercontador^0,w,c
  2547   0006F6  5C2B               	subwf	_Objetivo^0,w,c
  2548   0006F8  EC34  F006         	call	_EscribeLCD_n8
  2549                           
  2550                           ;Lab6.c: 381: LATD=contador;
  2551   0006FC  C02F  FF8C         	movff	_contador,3980	;volatile
  2552                           
  2553                           ;Lab6.c: 382: _delay((unsigned long)((500)*(1000000/4000.0)));
  2554   000700  0EA3               	movlw	163
  2555   000702  0100               	movlb	0	; () banked
  2556   000704  6F75               	movwf	??_main& (0+255),b
  2557   000706  0E55               	movlw	85
  2558   000708                     u4417:
  2559   000708  2EE8               	decfsz	wreg,f,c
  2560   00070A  D7FE               	bra	u4417
  2561   00070C  2F75               	decfsz	??_main& (0+255),f,b
  2562   00070E  D7FC               	bra	u4417
  2563   000710  D010               	goto	l5053
  2564   000712                     l5049:
  2565                           
  2566                           ;Lab6.c: 386: if(distancia > 10 || distancia < 3) {
  2567   000712  BE26               	btfsc	(_distancia+1)^0,7,c
  2568   000714  D006               	goto	u4320
  2569   000716  5026               	movf	(_distancia+1)^0,w,c
  2570   000718  E10B               	bnz	l408
  2571   00071A  0E0B               	movlw	11
  2572   00071C  5C25               	subwf	_distancia^0,w,c
  2573   00071E  B0D8               	btfsc	status,0,c
  2574   000720  D007               	goto	u4330
  2575   000722                     u4320:
  2576   000722  BE26               	btfsc	(_distancia+1)^0,7,c
  2577   000724  D005               	goto	u4330
  2578   000726  5026               	movf	(_distancia+1)^0,w,c
  2579   000728  E104               	bnz	l5053
  2580   00072A  0E03               	movlw	3
  2581   00072C  5C25               	subwf	_distancia^0,w,c
  2582   00072E  A0D8               	btfss	status,0,c
  2583   000730                     u4330:
  2584   000730                     l408:
  2585                           
  2586                           ;Lab6.c: 387: Pulsado = 0;
  2587   000730  6A3E               	clrf	_Pulsado^0,c
  2588   000732                     l5053:
  2589   000732  043B               	decf	_salir^0,w,c
  2590   000734  B4D8               	btfsc	status,2,c
  2591   000736  D677               	goto	l4923
  2592                           
  2593                           ;Lab6.c: 388: };Lab6.c: 389: };Lab6.c: 390: };Lab6.c: 392: LATE=0b00000010;
  2594   000738  0E02               	movlw	2
  2595   00073A  6E8D               	movwf	141,c	;volatile
  2596                           
  2597                           ;Lab6.c: 393: LATD=contador;
  2598   00073C  C02F  FF8C         	movff	_contador,3980	;volatile
  2599   000740  D595               	goto	l4871
  2600   000742                     __end_of_main:
  2601                           	callstack 0
  2602                           
  2603 ;; *************** function _printf *****************
  2604 ;; Defined at:
  2605 ;;		line 477 in file "C:\Program Files\Microchip\xc8\v2.50\pic\sources\c90\common\doprnt.c"
  2606 ;; Parameters:    Size  Location     Type
  2607 ;;  f               2    7[BANK0 ] PTR const unsigned char 
  2608 ;;		 -> STR_12(26), STR_11(22), STR_8(26), STR_7(22), 
  2609 ;; Auto vars:     Size  Location     Type
  2610 ;;  tmpval          4    0        struct .
  2611 ;;  val             2   15[BANK0 ] unsigned int 
  2612 ;;  cp              2    0        PTR const unsigned char 
  2613 ;;  len             2    0        unsigned int 
  2614 ;;  c               1   17[BANK0 ] unsigned char 
  2615 ;;  prec            1   14[BANK0 ] char 
  2616 ;;  flag            1   13[BANK0 ] unsigned char 
  2617 ;;  ap              1   12[BANK0 ] PTR void [1]
  2618 ;;		 -> ?_printf(2), 
  2619 ;; Return value:  Size  Location     Type
  2620 ;;                  2    7[BANK0 ] int 
  2621 ;; Registers used:
  2622 ;;		wreg, fsr2l, fsr2h, status,2, status,0, tblptrl, tblptrh, tblptru, prodl, prodh, cstack
  2623 ;; Tracked objects:
  2624 ;;		On entry : 3F/0
  2625 ;;		On exit  : 3F/0
  2626 ;;		Unchanged: 0/0
  2627 ;; Data sizes:     COMRAM   BANK0   BANK1   BANK2   BANK3   BANK4   BANK5   BANK6   BANK7
  2628 ;;      Params:         0       4       0       0       0       0       0       0       0
  2629 ;;      Locals:         0       6       0       0       0       0       0       0       0
  2630 ;;      Temps:          0       1       0       0       0       0       0       0       0
  2631 ;;      Totals:         0      11       0       0       0       0       0       0       0
  2632 ;;Total ram usage:       11 bytes
  2633 ;; Hardware stack levels used: 1
  2634 ;; Hardware stack levels required when called: 9
  2635 ;; This function calls:
  2636 ;;		___lwdiv
  2637 ;;		___lwmod
  2638 ;;		_putch
  2639 ;; This function is called by:
  2640 ;;		_main
  2641 ;; This function uses a non-reentrant model
  2642 ;;
  2643                           
  2644                           	psect	text1
  2645   000B4A                     __ptext1:
  2646                           	callstack 0
  2647   000B4A                     _printf:
  2648                           	callstack 21
  2649                           
  2650                           ; BSR set to: 0
  2651                           ;doprnt.c: 479: va_list ap;;doprnt.c: 512: char c;;doprnt.c: 521: signed char prec;;dopr
      +                          nt.c: 525: unsigned char flag;;doprnt.c: 540: union {;doprnt.c: 541: unsigned long vd;;d
      +                          oprnt.c: 542: double integ;;doprnt.c: 543: } tmpval;;doprnt.c: 545: unsigned int val;;do
      +                          prnt.c: 546: unsigned len;;doprnt.c: 547: const char * cp;;doprnt.c: 550: *ap = __va_sta
      +                          rt();
  2652                           
  2653                           ;incstack = 0
  2654   000B4A  0E69               	movlw	low (?_printf+2)
  2655   000B4C  6F6C               	movwf	printf@ap& (0+255),b
  2656                           
  2657                           ;doprnt.c: 553: while((c = *f++)) {
  2658   000B4E  D07E               	goto	u3710
  2659   000B50                     l4537:
  2660                           
  2661                           ; BSR set to: 0
  2662                           ;doprnt.c: 555: if(c != '%')
  2663   000B50  0E25               	movlw	37
  2664   000B52  1971               	xorwf	printf@c& (0+255),w,b
  2665   000B54  B4D8               	btfsc	status,2,c
  2666   000B56  D004               	goto	l584
  2667                           
  2668                           ; BSR set to: 0
  2669                           ;doprnt.c: 557: {;doprnt.c: 558: (putch(c) );
  2670   000B58  5171               	movf	printf@c& (0+255),w,b
  2671   000B5A  EC3F  F00C         	call	_putch
  2672                           
  2673                           ;doprnt.c: 559: continue;
  2674   000B5E  D076               	goto	u3710
  2675   000B60                     l584:
  2676                           
  2677                           ; BSR set to: 0
  2678                           ;doprnt.c: 560: };doprnt.c: 565: flag = 0;
  2679   000B60  6B6D               	clrf	printf@flag& (0+255),b
  2680                           
  2681                           ;doprnt.c: 661: switch(c = *f++) {
  2682   000B62  D004               	goto	l4545
  2683   000B64                     l4541:
  2684                           
  2685                           ; BSR set to: 0
  2686                           ;doprnt.c: 835: (putch(c) );
  2687   000B64  5171               	movf	printf@c& (0+255),w,b
  2688   000B66  EC3F  F00C         	call	_putch
  2689                           
  2690                           ;doprnt.c: 836: continue;
  2691   000B6A  D070               	goto	u3710
  2692   000B6C                     l4545:
  2693                           
  2694                           ; BSR set to: 0
  2695   000B6C  C067  FFF6         	movff	printf@f,tblptrl
  2696   000B70  C068  FFF7         	movff	printf@f+1,tblptrh
  2697   000B74  4B67               	infsnz	printf@f& (0+255),f,b
  2698   000B76  2B68               	incf	(printf@f+1)& (0+255),f,b
  2699   000B78                     	if	0	;tblptru may be non-zero
  2700   000B78                     	endif
  2701   000B78                     	if	0	;tblptru may be non-zero
  2702   000B78                     	endif
  2703   000B78  0008               	tblrd		*
  2704   000B7A  CFF5 F071          	movff	tablat,printf@c
  2705   000B7E  5171               	movf	printf@c& (0+255),w,b
  2706                           
  2707                           ; Switch size 1, requested type "simple"
  2708                           ; Number of cases is 3, Range of values is 0 to 105
  2709                           ; switch strategies available:
  2710                           ; Name         Instructions Cycles
  2711                           ; simple_byte           10     6 (average)
  2712                           ;	Chosen strategy is simple_byte
  2713   000B80  0A00               	xorlw	0	; case 0
  2714   000B82  B4D8               	btfsc	status,2,c
  2715   000B84  0012               	return	
  2716   000B86  0A64               	xorlw	100	; case 100
  2717   000B88  B4D8               	btfsc	status,2,c
  2718   000B8A  D003               	goto	l4547
  2719   000B8C  0A0D               	xorlw	13	; case 105
  2720   000B8E  A4D8               	btfss	status,2,c
  2721   000B90  D7E9               	goto	l4541
  2722   000B92                     l4547:
  2723                           
  2724                           ; BSR set to: 0
  2725                           ;doprnt.c: 1279: {;doprnt.c: 1285: val = (unsigned int)(*(int *)__va_arg((*(int **)ap), 
      +                          (int)0));
  2726   000B92  516C               	movf	printf@ap& (0+255),w,b
  2727   000B94  6ED9               	movwf	fsr2l,c
  2728   000B96  6ADA               	clrf	fsr2h,c
  2729   000B98  CFDE F06F          	movff	postinc2,printf@val
  2730   000B9C  CFDD F070          	movff	postdec2,printf@val+1
  2731                           
  2732                           ; BSR set to: 0
  2733   000BA0  0E02               	movlw	2
  2734   000BA2  276C               	addwf	printf@ap& (0+255),f,b
  2735                           
  2736                           ; BSR set to: 0
  2737                           ;doprnt.c: 1287: if((int)val < 0) {
  2738   000BA4  AF70               	btfss	(printf@val+1)& (0+255),7,b
  2739   000BA6  D006               	goto	l4557
  2740                           
  2741                           ; BSR set to: 0
  2742                           ;doprnt.c: 1288: flag |= 0x03;
  2743   000BA8  0E03               	movlw	3
  2744   000BAA  136D               	iorwf	printf@flag& (0+255),f,b
  2745                           
  2746                           ; BSR set to: 0
  2747                           ;doprnt.c: 1289: val = -val;
  2748   000BAC  6D6F               	negf	printf@val& (0+255),b
  2749   000BAE  1F70               	comf	(printf@val+1)& (0+255),f,b
  2750   000BB0  B0D8               	btfsc	status,0,c
  2751   000BB2  2B70               	incf	(printf@val+1)& (0+255),f,b
  2752   000BB4                     l4557:
  2753                           
  2754                           ; BSR set to: 0
  2755                           ;doprnt.c: 1290: };doprnt.c: 1292: };doprnt.c: 1331: for(c = 1 ; c != sizeof dpowers/siz
      +                          eof dpowers[0] ; c++)
  2756   000BB4  0E01               	movlw	1
  2757   000BB6  6F71               	movwf	printf@c& (0+255),b
  2758   000BB8                     l4563:
  2759                           
  2760                           ; BSR set to: 0
  2761                           ;doprnt.c: 1332: if(val < dpowers[c])
  2762   000BB8  5171               	movf	printf@c& (0+255),w,b
  2763   000BBA  0D02               	mullw	2
  2764   000BBC  0EC1               	movlw	low _dpowers
  2765   000BBE  24F3               	addwf	243,w,c
  2766   000BC0  6EF6               	movwf	tblptrl,c
  2767   000BC2  0E7E               	movlw	high _dpowers
  2768   000BC4  20F4               	addwfc	244,w,c
  2769   000BC6  6EF7               	movwf	tblptrh,c
  2770   000BC8                     	if	0	;There are less than 3 active tblptr bytes
  2771   000BC8                     	endif
  2772   000BC8  0009               	tblrd		*+
  2773   000BCA  50F5               	movf	tablat,w,c
  2774   000BCC  5D6F               	subwf	printf@val& (0+255),w,b
  2775   000BCE  0009               	tblrd		*+
  2776   000BD0  50F5               	movf	tablat,w,c
  2777   000BD2  5970               	subwfb	(printf@val+1)& (0+255),w,b
  2778   000BD4  A0D8               	btfss	status,0,c
  2779   000BD6  D005               	goto	u3690
  2780                           
  2781                           ; BSR set to: 0
  2782   000BD8  2B71               	incf	printf@c& (0+255),f,b
  2783                           
  2784                           ; BSR set to: 0
  2785   000BDA  0E05               	movlw	5
  2786   000BDC  1971               	xorwf	printf@c& (0+255),w,b
  2787   000BDE  A4D8               	btfss	status,2,c
  2788   000BE0  D7EB               	goto	l4563
  2789   000BE2                     u3690:
  2790                           
  2791                           ; BSR set to: 0
  2792                           ;doprnt.c: 1448: {;doprnt.c: 1464: if(flag & 0x03)
  2793   000BE2  C06D  F06B         	movff	printf@flag,??_printf
  2794   000BE6  0E03               	movlw	3
  2795   000BE8  176B               	andwf	??_printf& (0+255),f,b
  2796   000BEA  B4D8               	btfsc	status,2,c
  2797   000BEC  D003               	goto	l4575
  2798                           
  2799                           ; BSR set to: 0
  2800                           ;doprnt.c: 1465: (putch('-') );
  2801   000BEE  0E2D               	movlw	45
  2802   000BF0  EC3F  F00C         	call	_putch
  2803   000BF4                     l4575:
  2804                           
  2805                           ;doprnt.c: 1495: };doprnt.c: 1498: prec = c;
  2806   000BF4  C071  F06E         	movff	printf@c,printf@prec
  2807                           
  2808                           ;doprnt.c: 1500: while(prec--) {
  2809   000BF8  D024               	goto	l4581
  2810   000BFA                     l4577:
  2811                           
  2812                           ; BSR set to: 0
  2813                           ;doprnt.c: 1504: {;doprnt.c: 1515: c = (val / dpowers[(unsigned char)prec]) % 10 + '0';
  2814   000BFA  516E               	movf	printf@prec& (0+255),w,b
  2815   000BFC  0D02               	mullw	2
  2816   000BFE  0EC1               	movlw	low _dpowers
  2817   000C00  24F3               	addwf	243,w,c
  2818   000C02  6EF6               	movwf	tblptrl,c
  2819   000C04  0E7E               	movlw	high _dpowers
  2820   000C06  20F4               	addwfc	244,w,c
  2821   000C08  6EF7               	movwf	tblptrh,c
  2822   000C0A                     	if	0	;There are less than 3 active tblptr bytes
  2823   000C0A                     	endif
  2824   000C0A  0009               	tblrd		*+
  2825   000C0C  CFF5 F022          	movff	tablat,___lwdiv@divisor
  2826   000C10  000A               	tblrd		*-
  2827   000C12  CFF5 F023          	movff	tablat,___lwdiv@divisor+1
  2828   000C16  C06F  F020         	movff	printf@val,___lwdiv@dividend
  2829   000C1A  C070  F021         	movff	printf@val+1,___lwdiv@dividend+1
  2830   000C1E  EC99  F009         	call	___lwdiv	;wreg free
  2831   000C22  C020  F063         	movff	?___lwdiv,___lwmod@dividend
  2832   000C26  C021  F064         	movff	?___lwdiv+1,___lwmod@dividend+1
  2833   000C2A  0E00               	movlw	0
  2834   000C2C  6F66               	movwf	(___lwmod@divisor+1)& (0+255),b
  2835   000C2E  0E0A               	movlw	10
  2836   000C30  6F65               	movwf	___lwmod@divisor& (0+255),b
  2837   000C32  ECA3  F00A         	call	___lwmod	;wreg free
  2838   000C36  5163               	movf	?___lwmod& (0+255),w,b
  2839   000C38  0F30               	addlw	48
  2840   000C3A  6F71               	movwf	printf@c& (0+255),b
  2841                           
  2842                           ; BSR set to: 0
  2843                           ;doprnt.c: 1549: };doprnt.c: 1550: (putch(c) );
  2844   000C3C  5171               	movf	printf@c& (0+255),w,b
  2845   000C3E  EC3F  F00C         	call	_putch
  2846   000C42                     l4581:
  2847   000C42  0100               	movlb	0	; () banked
  2848   000C44  076E               	decf	printf@prec& (0+255),f,b
  2849   000C46  296E               	incf	printf@prec& (0+255),w,b
  2850   000C48  A4D8               	btfss	status,2,c
  2851   000C4A  D7D7               	goto	l4577
  2852   000C4C                     u3710:
  2853   000C4C  C067  FFF6         	movff	printf@f,tblptrl
  2854   000C50  C068  FFF7         	movff	printf@f+1,tblptrh
  2855   000C54  0100               	movlb	0	; () banked
  2856   000C56  4B67               	infsnz	printf@f& (0+255),f,b
  2857   000C58  2B68               	incf	(printf@f+1)& (0+255),f,b
  2858   000C5A                     	if	0	;tblptru may be non-zero
  2859   000C5A                     	endif
  2860   000C5A                     	if	0	;tblptru may be non-zero
  2861   000C5A                     	endif
  2862   000C5A  0008               	tblrd		*
  2863   000C5C  CFF5 F071          	movff	tablat,printf@c
  2864   000C60  5171               	movf	printf@c& (0+255),w,b
  2865   000C62  B4D8               	btfsc	status,2,c
  2866   000C64  0012               	return	
  2867   000C66  D774               	goto	l4537
  2868   000C68                     __end_of_printf:
  2869                           	callstack 0
  2870                           
  2871 ;; *************** function _putch *****************
  2872 ;; Defined at:
  2873 ;;		line 766 in file "Lab6.c"
  2874 ;; Parameters:    Size  Location     Type
  2875 ;;  data            1    wreg     unsigned char 
  2876 ;; Auto vars:     Size  Location     Type
  2877 ;;  data            1   31[COMRAM] unsigned char 
  2878 ;; Return value:  Size  Location     Type
  2879 ;;                  1    wreg      void 
  2880 ;; Registers used:
  2881 ;;		wreg
  2882 ;; Tracked objects:
  2883 ;;		On entry : 3F/0
  2884 ;;		On exit  : 0/0
  2885 ;;		Unchanged: 0/0
  2886 ;; Data sizes:     COMRAM   BANK0   BANK1   BANK2   BANK3   BANK4   BANK5   BANK6   BANK7
  2887 ;;      Params:         0       0       0       0       0       0       0       0       0
  2888 ;;      Locals:         1       0       0       0       0       0       0       0       0
  2889 ;;      Temps:          0       0       0       0       0       0       0       0       0
  2890 ;;      Totals:         1       0       0       0       0       0       0       0       0
  2891 ;;Total ram usage:        1 bytes
  2892 ;; Hardware stack levels used: 1
  2893 ;; Hardware stack levels required when called: 8
  2894 ;; This function calls:
  2895 ;;		Nothing
  2896 ;; This function is called by:
  2897 ;;		_printf
  2898 ;; This function uses a non-reentrant model
  2899 ;;
  2900                           
  2901                           	psect	text2
  2902   00187E                     __ptext2:
  2903                           	callstack 0
  2904   00187E                     _putch:
  2905                           	callstack 21
  2906                           
  2907                           ; BSR set to: 0
  2908                           ;incstack = 0
  2909                           ;putch@data stored from wreg
  2910   00187E  6E20               	movwf	putch@data^0,c
  2911   001880                     
  2912                           ;Lab6.c: 767: while(TRMT==0);
  2913   001880  A2AC               	btfss	4012,1,c	;volatile
  2914   001882  D7FE               	goto	l4341
  2915                           
  2916                           ;Lab6.c: 768: TXREG=data;
  2917   001884  C020  FFAD         	movff	putch@data,4013	;volatile
  2918   001888  0012               	return		;funcret
  2919   00188A                     __end_of_putch:
  2920                           	callstack 0
  2921                           
  2922 ;; *************** function ___lwmod *****************
  2923 ;; Defined at:
  2924 ;;		line 7 in file "C:\Program Files\Microchip\xc8\v2.50\pic\sources\c90\common\lwmod.c"
  2925 ;; Parameters:    Size  Location     Type
  2926 ;;  dividend        2    3[BANK0 ] unsigned int 
  2927 ;;  divisor         2    5[BANK0 ] unsigned int 
  2928 ;; Auto vars:     Size  Location     Type
  2929 ;;  counter         1   35[COMRAM] unsigned char 
  2930 ;; Return value:  Size  Location     Type
  2931 ;;                  2    3[BANK0 ] unsigned int 
  2932 ;; Registers used:
  2933 ;;		wreg, status,2, status,0
  2934 ;; Tracked objects:
  2935 ;;		On entry : 3F/0
  2936 ;;		On exit  : 3F/0
  2937 ;;		Unchanged: 0/0
  2938 ;; Data sizes:     COMRAM   BANK0   BANK1   BANK2   BANK3   BANK4   BANK5   BANK6   BANK7
  2939 ;;      Params:         0       4       0       0       0       0       0       0       0
  2940 ;;      Locals:         1       0       0       0       0       0       0       0       0
  2941 ;;      Temps:          0       0       0       0       0       0       0       0       0
  2942 ;;      Totals:         1       4       0       0       0       0       0       0       0
  2943 ;;Total ram usage:        5 bytes
  2944 ;; Hardware stack levels used: 1
  2945 ;; Hardware stack levels required when called: 8
  2946 ;; This function calls:
  2947 ;;		Nothing
  2948 ;; This function is called by:
  2949 ;;		_main
  2950 ;;		_printf
  2951 ;; This function uses a non-reentrant model
  2952 ;;
  2953                           
  2954                           	psect	text3
  2955   001546                     __ptext3:
  2956                           	callstack 0
  2957   001546                     ___lwmod:
  2958                           	callstack 21
  2959                           
  2960                           ; BSR set to: 0
  2961                           
  2962                           ;incstack = 0
  2963   001546  5165               	movf	___lwmod@divisor& (0+255),w,b
  2964   001548  1166               	iorwf	(___lwmod@divisor+1)& (0+255),w,b
  2965   00154A  B4D8               	btfsc	status,2,c
  2966   00154C  D018               	goto	l1093
  2967                           
  2968                           ; BSR set to: 0
  2969   00154E  0E01               	movlw	1
  2970   001550  6E24               	movwf	___lwmod@counter^0,c
  2971   001552  D004               	goto	l4417
  2972   001554                     l4415:
  2973                           
  2974                           ; BSR set to: 0
  2975   001554  90D8               	bcf	status,0,c
  2976   001556  3765               	rlcf	___lwmod@divisor& (0+255),f,b
  2977   001558  3766               	rlcf	(___lwmod@divisor+1)& (0+255),f,b
  2978   00155A  2A24               	incf	___lwmod@counter^0,f,c
  2979   00155C                     l4417:
  2980                           
  2981                           ; BSR set to: 0
  2982   00155C  AF66               	btfss	(___lwmod@divisor+1)& (0+255),7,b
  2983   00155E  D7FA               	goto	l4415
  2984   001560                     u3610:
  2985                           
  2986                           ; BSR set to: 0
  2987   001560  5165               	movf	___lwmod@divisor& (0+255),w,b
  2988   001562  5D63               	subwf	___lwmod@dividend& (0+255),w,b
  2989   001564  5166               	movf	(___lwmod@divisor+1)& (0+255),w,b
  2990   001566  5964               	subwfb	(___lwmod@dividend+1)& (0+255),w,b
  2991   001568  A0D8               	btfss	status,0,c
  2992   00156A  D004               	goto	l4423
  2993                           
  2994                           ; BSR set to: 0
  2995   00156C  5165               	movf	___lwmod@divisor& (0+255),w,b
  2996   00156E  5F63               	subwf	___lwmod@dividend& (0+255),f,b
  2997   001570  5166               	movf	(___lwmod@divisor+1)& (0+255),w,b
  2998   001572  5B64               	subwfb	(___lwmod@dividend+1)& (0+255),f,b
  2999   001574                     l4423:
  3000                           
  3001                           ; BSR set to: 0
  3002   001574  90D8               	bcf	status,0,c
  3003   001576  3366               	rrcf	(___lwmod@divisor+1)& (0+255),f,b
  3004   001578  3365               	rrcf	___lwmod@divisor& (0+255),f,b
  3005                           
  3006                           ; BSR set to: 0
  3007   00157A  2E24               	decfsz	___lwmod@counter^0,f,c
  3008   00157C  D7F1               	goto	u3610
  3009   00157E                     l1093:
  3010                           
  3011                           ; BSR set to: 0
  3012   00157E  C063  F063         	movff	___lwmod@dividend,?___lwmod
  3013   001582  C064  F064         	movff	___lwmod@dividend+1,?___lwmod+1
  3014                           
  3015                           ; BSR set to: 0
  3016   001586  0012               	return		;funcret
  3017   001588                     __end_of___lwmod:
  3018                           	callstack 0
  3019                           
  3020 ;; *************** function ___lwdiv *****************
  3021 ;; Defined at:
  3022 ;;		line 7 in file "C:\Program Files\Microchip\xc8\v2.50\pic\sources\c90\common\lwdiv.c"
  3023 ;; Parameters:    Size  Location     Type
  3024 ;;  dividend        2   31[COMRAM] unsigned int 
  3025 ;;  divisor         2   33[COMRAM] unsigned int 
  3026 ;; Auto vars:     Size  Location     Type
  3027 ;;  quotient        2    1[BANK0 ] unsigned int 
  3028 ;;  counter         1    0[BANK0 ] unsigned char 
  3029 ;; Return value:  Size  Location     Type
  3030 ;;                  2   31[COMRAM] unsigned int 
  3031 ;; Registers used:
  3032 ;;		wreg, status,2, status,0
  3033 ;; Tracked objects:
  3034 ;;		On entry : 0/0
  3035 ;;		On exit  : 3F/0
  3036 ;;		Unchanged: 0/0
  3037 ;; Data sizes:     COMRAM   BANK0   BANK1   BANK2   BANK3   BANK4   BANK5   BANK6   BANK7
  3038 ;;      Params:         4       0       0       0       0       0       0       0       0
  3039 ;;      Locals:         0       3       0       0       0       0       0       0       0
  3040 ;;      Temps:          0       0       0       0       0       0       0       0       0
  3041 ;;      Totals:         4       3       0       0       0       0       0       0       0
  3042 ;;Total ram usage:        7 bytes
  3043 ;; Hardware stack levels used: 1
  3044 ;; Hardware stack levels required when called: 8
  3045 ;; This function calls:
  3046 ;;		Nothing
  3047 ;; This function is called by:
  3048 ;;		_main
  3049 ;;		_printf
  3050 ;; This function uses a non-reentrant model
  3051 ;;
  3052                           
  3053                           	psect	text4
  3054   001332                     __ptext4:
  3055                           	callstack 0
  3056   001332                     ___lwdiv:
  3057                           	callstack 21
  3058                           
  3059                           ; BSR set to: 0
  3060                           ;incstack = 0
  3061   001332  0E00               	movlw	0
  3062   001334  0100               	movlb	0	; () banked
  3063   001336  6F62               	movwf	(___lwdiv@quotient+1)& (0+255),b
  3064   001338  0E00               	movlw	0
  3065   00133A  6F61               	movwf	___lwdiv@quotient& (0+255),b
  3066                           
  3067                           ; BSR set to: 0
  3068   00133C  5022               	movf	___lwdiv@divisor^0,w,c
  3069   00133E  1023               	iorwf	(___lwdiv@divisor+1)^0,w,c
  3070   001340  B4D8               	btfsc	status,2,c
  3071   001342  D01C               	goto	l1083
  3072                           
  3073                           ; BSR set to: 0
  3074   001344  0E01               	movlw	1
  3075   001346  6F60               	movwf	___lwdiv@counter& (0+255),b
  3076   001348  D004               	goto	l4397
  3077   00134A                     l4395:
  3078                           
  3079                           ; BSR set to: 0
  3080   00134A  90D8               	bcf	status,0,c
  3081   00134C  3622               	rlcf	___lwdiv@divisor^0,f,c
  3082   00134E  3623               	rlcf	(___lwdiv@divisor+1)^0,f,c
  3083   001350  2B60               	incf	___lwdiv@counter& (0+255),f,b
  3084   001352                     l4397:
  3085                           
  3086                           ; BSR set to: 0
  3087   001352  AE23               	btfss	(___lwdiv@divisor+1)^0,7,c
  3088   001354  D7FA               	goto	l4395
  3089   001356                     u3580:
  3090                           
  3091                           ; BSR set to: 0
  3092   001356  90D8               	bcf	status,0,c
  3093   001358  3761               	rlcf	___lwdiv@quotient& (0+255),f,b
  3094   00135A  3762               	rlcf	(___lwdiv@quotient+1)& (0+255),f,b
  3095                           
  3096                           ; BSR set to: 0
  3097   00135C  5022               	movf	___lwdiv@divisor^0,w,c
  3098   00135E  5C20               	subwf	___lwdiv@dividend^0,w,c
  3099   001360  5023               	movf	(___lwdiv@divisor+1)^0,w,c
  3100   001362  5821               	subwfb	(___lwdiv@dividend+1)^0,w,c
  3101   001364  A0D8               	btfss	status,0,c
  3102   001366  D005               	goto	l4407
  3103                           
  3104                           ; BSR set to: 0
  3105   001368  5022               	movf	___lwdiv@divisor^0,w,c
  3106   00136A  5E20               	subwf	___lwdiv@dividend^0,f,c
  3107   00136C  5023               	movf	(___lwdiv@divisor+1)^0,w,c
  3108   00136E  5A21               	subwfb	(___lwdiv@dividend+1)^0,f,c
  3109                           
  3110                           ; BSR set to: 0
  3111   001370  8161               	bsf	___lwdiv@quotient& (0+255),0,b
  3112   001372                     l4407:
  3113                           
  3114                           ; BSR set to: 0
  3115   001372  90D8               	bcf	status,0,c
  3116   001374  3223               	rrcf	(___lwdiv@divisor+1)^0,f,c
  3117   001376  3222               	rrcf	___lwdiv@divisor^0,f,c
  3118                           
  3119                           ; BSR set to: 0
  3120   001378  2F60               	decfsz	___lwdiv@counter& (0+255),f,b
  3121   00137A  D7ED               	goto	u3580
  3122   00137C                     l1083:
  3123                           
  3124                           ; BSR set to: 0
  3125   00137C  C061  F020         	movff	___lwdiv@quotient,?___lwdiv
  3126   001380  C062  F021         	movff	___lwdiv@quotient+1,?___lwdiv+1
  3127                           
  3128                           ; BSR set to: 0
  3129   001384  0012               	return		;funcret
  3130   001386                     __end_of___lwdiv:
  3131                           	callstack 0
  3132                           
  3133 ;; *************** function ___lmul *****************
  3134 ;; Defined at:
  3135 ;;		line 15 in file "C:\Program Files\Microchip\xc8\v2.50\pic\sources\c90\common\Umul32.c"
  3136 ;; Parameters:    Size  Location     Type
  3137 ;;  multiplier      4    0[BANK0 ] unsigned long 
  3138 ;;  multiplicand    4    4[BANK0 ] unsigned long 
  3139 ;; Auto vars:     Size  Location     Type
  3140 ;;  product         4   31[COMRAM] unsigned long 
  3141 ;; Return value:  Size  Location     Type
  3142 ;;                  4    0[BANK0 ] unsigned long 
  3143 ;; Registers used:
  3144 ;;		wreg, status,2, status,0
  3145 ;; Tracked objects:
  3146 ;;		On entry : 3F/0
  3147 ;;		On exit  : 3F/0
  3148 ;;		Unchanged: 0/0
  3149 ;; Data sizes:     COMRAM   BANK0   BANK1   BANK2   BANK3   BANK4   BANK5   BANK6   BANK7
  3150 ;;      Params:         0       8       0       0       0       0       0       0       0
  3151 ;;      Locals:         4       0       0       0       0       0       0       0       0
  3152 ;;      Temps:          0       0       0       0       0       0       0       0       0
  3153 ;;      Totals:         4       8       0       0       0       0       0       0       0
  3154 ;;Total ram usage:       12 bytes
  3155 ;; Hardware stack levels used: 1
  3156 ;; Hardware stack levels required when called: 8
  3157 ;; This function calls:
  3158 ;;		Nothing
  3159 ;; This function is called by:
  3160 ;;		_main
  3161 ;; This function uses a non-reentrant model
  3162 ;;
  3163                           
  3164                           	psect	text5
  3165   001230                     __ptext5:
  3166                           	callstack 0
  3167   001230                     ___lmul:
  3168                           	callstack 22
  3169                           
  3170                           ; BSR set to: 0
  3171                           
  3172                           ; BSR set to: 0
  3173                           ;incstack = 0
  3174   001230  0E00               	movlw	0
  3175   001232  6E20               	movwf	___lmul@product^0,c
  3176   001234  0E00               	movlw	0
  3177   001236  6E21               	movwf	(___lmul@product+1)^0,c
  3178   001238  0E00               	movlw	0
  3179   00123A  6E22               	movwf	(___lmul@product+2)^0,c
  3180   00123C  0E00               	movlw	0
  3181   00123E  6E23               	movwf	(___lmul@product+3)^0,c
  3182   001240                     l4639:
  3183                           
  3184                           ; BSR set to: 0
  3185   001240  A160               	btfss	___lmul@multiplier& (0+255),0,b
  3186   001242  D008               	goto	l4643
  3187                           
  3188                           ; BSR set to: 0
  3189   001244  5164               	movf	___lmul@multiplicand& (0+255),w,b
  3190   001246  2620               	addwf	___lmul@product^0,f,c
  3191   001248  5165               	movf	(___lmul@multiplicand+1)& (0+255),w,b
  3192   00124A  2221               	addwfc	(___lmul@product+1)^0,f,c
  3193   00124C  5166               	movf	(___lmul@multiplicand+2)& (0+255),w,b
  3194   00124E  2222               	addwfc	(___lmul@product+2)^0,f,c
  3195   001250  5167               	movf	(___lmul@multiplicand+3)& (0+255),w,b
  3196   001252  2223               	addwfc	(___lmul@product+3)^0,f,c
  3197   001254                     l4643:
  3198                           
  3199                           ; BSR set to: 0
  3200   001254  90D8               	bcf	status,0,c
  3201   001256  3764               	rlcf	___lmul@multiplicand& (0+255),f,b
  3202   001258  3765               	rlcf	(___lmul@multiplicand+1)& (0+255),f,b
  3203   00125A  3766               	rlcf	(___lmul@multiplicand+2)& (0+255),f,b
  3204   00125C  3767               	rlcf	(___lmul@multiplicand+3)& (0+255),f,b
  3205                           
  3206                           ; BSR set to: 0
  3207   00125E  90D8               	bcf	status,0,c
  3208   001260  3363               	rrcf	(___lmul@multiplier+3)& (0+255),f,b
  3209   001262  3362               	rrcf	(___lmul@multiplier+2)& (0+255),f,b
  3210   001264  3361               	rrcf	(___lmul@multiplier+1)& (0+255),f,b
  3211   001266  3360               	rrcf	___lmul@multiplier& (0+255),f,b
  3212   001268  5160               	movf	___lmul@multiplier& (0+255),w,b
  3213   00126A  1161               	iorwf	(___lmul@multiplier+1)& (0+255),w,b
  3214   00126C  1162               	iorwf	(___lmul@multiplier+2)& (0+255),w,b
  3215   00126E  1163               	iorwf	(___lmul@multiplier+3)& (0+255),w,b
  3216   001270  A4D8               	btfss	status,2,c
  3217   001272  D7E6               	goto	l4639
  3218                           
  3219                           ; BSR set to: 0
  3220   001274  C020  F060         	movff	___lmul@product,?___lmul
  3221   001278  C021  F061         	movff	___lmul@product+1,?___lmul+1
  3222   00127C  C022  F062         	movff	___lmul@product+2,?___lmul+2
  3223   001280  C023  F063         	movff	___lmul@product+3,?___lmul+3
  3224                           
  3225                           ; BSR set to: 0
  3226   001284  0012               	return		;funcret
  3227   001286                     __end_of___lmul:
  3228                           	callstack 0
  3229                           
  3230 ;; *************** function ___lldiv *****************
  3231 ;; Defined at:
  3232 ;;		line 7 in file "C:\Program Files\Microchip\xc8\v2.50\pic\sources\c90\common\__lldiv.c"
  3233 ;; Parameters:    Size  Location     Type
  3234 ;;  dividend        4    8[BANK0 ] unsigned long 
  3235 ;;  divisor         4   12[BANK0 ] unsigned long 
  3236 ;; Auto vars:     Size  Location     Type
  3237 ;;  quotient        4   16[BANK0 ] unsigned long 
  3238 ;;  counter         1   20[BANK0 ] unsigned char 
  3239 ;; Return value:  Size  Location     Type
  3240 ;;                  4    8[BANK0 ] unsigned long 
  3241 ;; Registers used:
  3242 ;;		wreg, status,2, status,0
  3243 ;; Tracked objects:
  3244 ;;		On entry : 3F/0
  3245 ;;		On exit  : 3F/0
  3246 ;;		Unchanged: 0/0
  3247 ;; Data sizes:     COMRAM   BANK0   BANK1   BANK2   BANK3   BANK4   BANK5   BANK6   BANK7
  3248 ;;      Params:         0       8       0       0       0       0       0       0       0
  3249 ;;      Locals:         0       5       0       0       0       0       0       0       0
  3250 ;;      Temps:          0       0       0       0       0       0       0       0       0
  3251 ;;      Totals:         0      13       0       0       0       0       0       0       0
  3252 ;;Total ram usage:       13 bytes
  3253 ;; Hardware stack levels used: 1
  3254 ;; Hardware stack levels required when called: 8
  3255 ;; This function calls:
  3256 ;;		Nothing
  3257 ;; This function is called by:
  3258 ;;		_main
  3259 ;; This function uses a non-reentrant model
  3260 ;;
  3261                           
  3262                           	psect	text6
  3263   001072                     __ptext6:
  3264                           	callstack 0
  3265   001072                     ___lldiv:
  3266                           	callstack 22
  3267                           
  3268                           ; BSR set to: 0
  3269                           
  3270                           ; BSR set to: 0
  3271                           ;incstack = 0
  3272   001072  0E00               	movlw	0
  3273   001074  6F70               	movwf	___lldiv@quotient& (0+255),b
  3274   001076  0E00               	movlw	0
  3275   001078  6F71               	movwf	(___lldiv@quotient+1)& (0+255),b
  3276   00107A  0E00               	movlw	0
  3277   00107C  6F72               	movwf	(___lldiv@quotient+2)& (0+255),b
  3278   00107E  0E00               	movlw	0
  3279   001080  6F73               	movwf	(___lldiv@quotient+3)& (0+255),b
  3280                           
  3281                           ; BSR set to: 0
  3282   001082  516C               	movf	___lldiv@divisor& (0+255),w,b
  3283   001084  116D               	iorwf	(___lldiv@divisor+1)& (0+255),w,b
  3284   001086  116E               	iorwf	(___lldiv@divisor+2)& (0+255),w,b
  3285   001088  116F               	iorwf	(___lldiv@divisor+3)& (0+255),w,b
  3286   00108A  B4D8               	btfsc	status,2,c
  3287   00108C  D02A               	goto	l631
  3288                           
  3289                           ; BSR set to: 0
  3290   00108E  0E01               	movlw	1
  3291   001090  6F74               	movwf	___lldiv@counter& (0+255),b
  3292   001092  D006               	goto	l4655
  3293   001094                     l4653:
  3294                           
  3295                           ; BSR set to: 0
  3296   001094  90D8               	bcf	status,0,c
  3297   001096  376C               	rlcf	___lldiv@divisor& (0+255),f,b
  3298   001098  376D               	rlcf	(___lldiv@divisor+1)& (0+255),f,b
  3299   00109A  376E               	rlcf	(___lldiv@divisor+2)& (0+255),f,b
  3300   00109C  376F               	rlcf	(___lldiv@divisor+3)& (0+255),f,b
  3301   00109E  2B74               	incf	___lldiv@counter& (0+255),f,b
  3302   0010A0                     l4655:
  3303                           
  3304                           ; BSR set to: 0
  3305   0010A0  AF6F               	btfss	(___lldiv@divisor+3)& (0+255),7,b
  3306   0010A2  D7F8               	goto	l4653
  3307   0010A4                     u3790:
  3308                           
  3309                           ; BSR set to: 0
  3310   0010A4  90D8               	bcf	status,0,c
  3311   0010A6  3770               	rlcf	___lldiv@quotient& (0+255),f,b
  3312   0010A8  3771               	rlcf	(___lldiv@quotient+1)& (0+255),f,b
  3313   0010AA  3772               	rlcf	(___lldiv@quotient+2)& (0+255),f,b
  3314   0010AC  3773               	rlcf	(___lldiv@quotient+3)& (0+255),f,b
  3315                           
  3316                           ; BSR set to: 0
  3317   0010AE  516C               	movf	___lldiv@divisor& (0+255),w,b
  3318   0010B0  5D68               	subwf	___lldiv@dividend& (0+255),w,b
  3319   0010B2  516D               	movf	(___lldiv@divisor+1)& (0+255),w,b
  3320   0010B4  5969               	subwfb	(___lldiv@dividend+1)& (0+255),w,b
  3321   0010B6  516E               	movf	(___lldiv@divisor+2)& (0+255),w,b
  3322   0010B8  596A               	subwfb	(___lldiv@dividend+2)& (0+255),w,b
  3323   0010BA  516F               	movf	(___lldiv@divisor+3)& (0+255),w,b
  3324   0010BC  596B               	subwfb	(___lldiv@dividend+3)& (0+255),w,b
  3325   0010BE  A0D8               	btfss	status,0,c
  3326   0010C0  D009               	goto	l4665
  3327                           
  3328                           ; BSR set to: 0
  3329   0010C2  516C               	movf	___lldiv@divisor& (0+255),w,b
  3330   0010C4  5F68               	subwf	___lldiv@dividend& (0+255),f,b
  3331   0010C6  516D               	movf	(___lldiv@divisor+1)& (0+255),w,b
  3332   0010C8  5B69               	subwfb	(___lldiv@dividend+1)& (0+255),f,b
  3333   0010CA  516E               	movf	(___lldiv@divisor+2)& (0+255),w,b
  3334   0010CC  5B6A               	subwfb	(___lldiv@dividend+2)& (0+255),f,b
  3335   0010CE  516F               	movf	(___lldiv@divisor+3)& (0+255),w,b
  3336   0010D0  5B6B               	subwfb	(___lldiv@dividend+3)& (0+255),f,b
  3337                           
  3338                           ; BSR set to: 0
  3339   0010D2  8170               	bsf	___lldiv@quotient& (0+255),0,b
  3340   0010D4                     l4665:
  3341                           
  3342                           ; BSR set to: 0
  3343   0010D4  90D8               	bcf	status,0,c
  3344   0010D6  336F               	rrcf	(___lldiv@divisor+3)& (0+255),f,b
  3345   0010D8  336E               	rrcf	(___lldiv@divisor+2)& (0+255),f,b
  3346   0010DA  336D               	rrcf	(___lldiv@divisor+1)& (0+255),f,b
  3347   0010DC  336C               	rrcf	___lldiv@divisor& (0+255),f,b
  3348                           
  3349                           ; BSR set to: 0
  3350   0010DE  2F74               	decfsz	___lldiv@counter& (0+255),f,b
  3351   0010E0  D7E1               	goto	u3790
  3352   0010E2                     l631:
  3353                           
  3354                           ; BSR set to: 0
  3355   0010E2  C070  F068         	movff	___lldiv@quotient,?___lldiv
  3356   0010E6  C071  F069         	movff	___lldiv@quotient+1,?___lldiv+1
  3357   0010EA  C072  F06A         	movff	___lldiv@quotient+2,?___lldiv+2
  3358   0010EE  C073  F06B         	movff	___lldiv@quotient+3,?___lldiv+3
  3359                           
  3360                           ; BSR set to: 0
  3361   0010F2  0012               	return		;funcret
  3362   0010F4                     __end_of___lldiv:
  3363                           	callstack 0
  3364                           
  3365 ;; *************** function _TriggerUltrasonido *****************
  3366 ;; Defined at:
  3367 ;;		line 413 in file "Lab6.c"
  3368 ;; Parameters:    Size  Location     Type
  3369 ;;		None
  3370 ;; Auto vars:     Size  Location     Type
  3371 ;;		None
  3372 ;; Return value:  Size  Location     Type
  3373 ;;                  1    wreg      void 
  3374 ;; Registers used:
  3375 ;;		None
  3376 ;; Tracked objects:
  3377 ;;		On entry : 0/0
  3378 ;;		On exit  : 0/0
  3379 ;;		Unchanged: 0/0
  3380 ;; Data sizes:     COMRAM   BANK0   BANK1   BANK2   BANK3   BANK4   BANK5   BANK6   BANK7
  3381 ;;      Params:         0       0       0       0       0       0       0       0       0
  3382 ;;      Locals:         0       0       0       0       0       0       0       0       0
  3383 ;;      Temps:          0       0       0       0       0       0       0       0       0
  3384 ;;      Totals:         0       0       0       0       0       0       0       0       0
  3385 ;;Total ram usage:        0 bytes
  3386 ;; Hardware stack levels used: 1
  3387 ;; Hardware stack levels required when called: 8
  3388 ;; This function calls:
  3389 ;;		Nothing
  3390 ;; This function is called by:
  3391 ;;		_main
  3392 ;; This function uses a non-reentrant model
  3393 ;;
  3394                           
  3395                           	psect	text7
  3396   00188A                     __ptext7:
  3397                           	callstack 0
  3398   00188A                     _TriggerUltrasonido:
  3399                           	callstack 22
  3400                           
  3401                           ;Lab6.c: 415: LATC0 = 1;
  3402                           
  3403                           ; BSR set to: 0
  3404                           ;incstack = 0
  3405   00188A  808B               	bsf	3979,0,c	;volatile
  3406                           
  3407                           ;Lab6.c: 416: _delay((unsigned long)((10)*(1000000/4000000.0)));
  3408   00188C  D000               	nop2		;2 cycle nop
  3409                           
  3410                           ;Lab6.c: 417: LATC0 = 0;
  3411   00188E  908B               	bcf	3979,0,c	;volatile
  3412   001890  0012               	return		;funcret
  3413   001892                     __end_of_TriggerUltrasonido:
  3414                           	callstack 0
  3415                           
  3416 ;; *************** function _PreguntaAlUsuario *****************
  3417 ;; Defined at:
  3418 ;;		line 696 in file "Lab6.c"
  3419 ;; Parameters:    Size  Location     Type
  3420 ;;		None
  3421 ;; Auto vars:     Size  Location     Type
  3422 ;;		None
  3423 ;; Return value:  Size  Location     Type
  3424 ;;                  1    wreg      void 
  3425 ;; Registers used:
  3426 ;;		wreg, fsr2l, fsr2h, status,2, status,0, tblptrl, tblptrh, tblptru, prodl, prodh, cstack
  3427 ;; Tracked objects:
  3428 ;;		On entry : 0/0
  3429 ;;		On exit  : 0/0
  3430 ;;		Unchanged: 0/0
  3431 ;; Data sizes:     COMRAM   BANK0   BANK1   BANK2   BANK3   BANK4   BANK5   BANK6   BANK7
  3432 ;;      Params:         0       0       0       0       0       0       0       0       0
  3433 ;;      Locals:         0       0       0       0       0       0       0       0       0
  3434 ;;      Temps:          0       2       0       0       0       0       0       0       0
  3435 ;;      Totals:         0       2       0       0       0       0       0       0       0
  3436 ;;Total ram usage:        2 bytes
  3437 ;; Hardware stack levels used: 1
  3438 ;; Hardware stack levels required when called: 14
  3439 ;; This function calls:
  3440 ;;		_BorraLCD
  3441 ;;		_CrearCaracter
  3442 ;;		_DireccionaLCD
  3443 ;;		_EscribeLCD_c
  3444 ;;		_MensajeLCD_Var
  3445 ;;		_MostrarCursor
  3446 ;;		_OcultarCursor
  3447 ;; This function is called by:
  3448 ;;		_main
  3449 ;; This function uses a non-reentrant model
  3450 ;;
  3451                           
  3452                           	psect	text8
  3453   000D5C                     __ptext8:
  3454                           	callstack 0
  3455   000D5C                     _PreguntaAlUsuario:
  3456                           	callstack 16
  3457                           
  3458                           ;Lab6.c: 698: CrearCaracter(RayaAlPiso, 1);
  3459                           
  3460                           ;incstack = 0
  3461                           ;Lab6.c: 697: while(1){
  3462   000D5C  0E7B               	movlw	low _RayaAlPiso
  3463   000D5E  0100               	movlb	0	; () banked
  3464   000D60  6F60               	movwf	CrearCaracter@arreglo& (0+255),b
  3465   000D62  0E01               	movlw	1
  3466   000D64  6F61               	movwf	CrearCaracter@posicionCGRAM& (0+255),b
  3467   000D66  ECBB  F008         	call	_CrearCaracter	;wreg free
  3468                           
  3469                           ;Lab6.c: 699: posicion=0;
  3470   000D6A  6A3D               	clrf	_posicion^0,c
  3471                           
  3472                           ;Lab6.c: 701: BorraLCD();
  3473   000D6C  ECEF  F00B         	call	_BorraLCD	;wreg free
  3474                           
  3475                           ;Lab6.c: 702: MensajeLCD_Var("Piezas a contar:");
  3476   000D70  0E34               	movlw	low STR_21
  3477   000D72  0100               	movlb	0	; () banked
  3478   000D74  6F60               	movwf	MensajeLCD_Var@a& (0+255),b
  3479   000D76  0E7F               	movlw	high STR_21
  3480   000D78  6F61               	movwf	(MensajeLCD_Var@a+1)& (0+255),b
  3481   000D7A  EC12  F00A         	call	_MensajeLCD_Var	;wreg free
  3482                           
  3483                           ; BSR set to: 0
  3484                           ;Lab6.c: 703: DireccionaLCD(0xC7);
  3485   000D7E  0EC7               	movlw	199
  3486   000D80  ECCE  F00B         	call	_DireccionaLCD
  3487                           
  3488                           ;Lab6.c: 704: EscribeLCD_c(1);
  3489   000D84  0E01               	movlw	1
  3490   000D86  ECC3  F00B         	call	_EscribeLCD_c
  3491                           
  3492                           ;Lab6.c: 705: EscribeLCD_c(1);
  3493   000D8A  0E01               	movlw	1
  3494   000D8C  ECC3  F00B         	call	_EscribeLCD_c
  3495                           
  3496                           ;Lab6.c: 706: DireccionaLCD(0xC7);
  3497   000D90  0EC7               	movlw	199
  3498   000D92  ECCE  F00B         	call	_DireccionaLCD
  3499                           
  3500                           ;Lab6.c: 707: MostrarCursor();
  3501   000D96  EC49  F00C         	call	_MostrarCursor	;wreg free
  3502                           
  3503                           ;Lab6.c: 709: editor=1;
  3504   000D9A  0E01               	movlw	1
  3505   000D9C  6E3C               	movwf	_editor^0,c
  3506   000D9E                     l4605:
  3507   000D9E  0E2A               	movlw	42
  3508   000DA0  183A               	xorwf	_Tecla^0,w,c
  3509   000DA2  A4D8               	btfss	status,2,c
  3510   000DA4  D7FC               	goto	l4605
  3511                           
  3512                           ;Lab6.c: 712: };Lab6.c: 713: if((Objetivo>59)||(Objetivo==0)){
  3513   000DA6  502C               	movf	(_Objetivo+1)^0,w,c
  3514   000DA8  E108               	bnz	l545
  3515   000DAA  0E3C               	movlw	60
  3516   000DAC  5C2B               	subwf	_Objetivo^0,w,c
  3517   000DAE  B0D8               	btfsc	status,0,c
  3518   000DB0  D004               	goto	u3750
  3519   000DB2  502B               	movf	_Objetivo^0,w,c
  3520   000DB4  102C               	iorwf	(_Objetivo+1)^0,w,c
  3521   000DB6  A4D8               	btfss	status,2,c
  3522   000DB8  D041               	goto	l543
  3523   000DBA                     u3750:
  3524   000DBA                     l545:
  3525                           
  3526                           ;Lab6.c: 714: editor=0;
  3527   000DBA  6A3C               	clrf	_editor^0,c
  3528                           
  3529                           ;Lab6.c: 715: Tecla='\0';
  3530   000DBC  6A3A               	clrf	_Tecla^0,c
  3531                           
  3532                           ;Lab6.c: 716: Objetivo=0;
  3533   000DBE  0E00               	movlw	0
  3534   000DC0  6E2C               	movwf	(_Objetivo+1)^0,c
  3535   000DC2  0E00               	movlw	0
  3536   000DC4  6E2B               	movwf	_Objetivo^0,c
  3537                           
  3538                           ;Lab6.c: 718: BorraLCD();
  3539   000DC6  ECEF  F00B         	call	_BorraLCD	;wreg free
  3540                           
  3541                           ;Lab6.c: 719: OcultarCursor();
  3542   000DCA  EC4D  F00C         	call	_OcultarCursor	;wreg free
  3543                           
  3544                           ;Lab6.c: 720: MensajeLCD_Var("     !Error!");
  3545   000DCE  0E9D               	movlw	low STR_22
  3546   000DD0  0100               	movlb	0	; () banked
  3547   000DD2  6F60               	movwf	MensajeLCD_Var@a& (0+255),b
  3548   000DD4  0E7F               	movlw	high STR_22
  3549   000DD6  6F61               	movwf	(MensajeLCD_Var@a+1)& (0+255),b
  3550   000DD8  EC12  F00A         	call	_MensajeLCD_Var	;wreg free
  3551                           
  3552                           ; BSR set to: 0
  3553                           ;Lab6.c: 721: _delay((unsigned long)((1000)*(1000000/4000.0)));
  3554   000DDC  0E02               	movlw	2
  3555   000DDE  0100               	movlb	0	; () banked
  3556   000DE0  6F67               	movwf	(??_PreguntaAlUsuario+1)& (0+255),b
  3557   000DE2  0E45               	movlw	69
  3558   000DE4  6F66               	movwf	??_PreguntaAlUsuario& (0+255),b
  3559   000DE6  0EA9               	movlw	169
  3560   000DE8                     u4427:
  3561   000DE8  2EE8               	decfsz	wreg,f,c
  3562   000DEA  D7FE               	bra	u4427
  3563   000DEC  2F66               	decfsz	??_PreguntaAlUsuario& (0+255),f,b
  3564   000DEE  D7FC               	bra	u4427
  3565   000DF0  2F67               	decfsz	(??_PreguntaAlUsuario+1)& (0+255),f,b
  3566   000DF2  D7FA               	bra	u4427
  3567   000DF4  D000               	nop2	
  3568                           
  3569                           ;Lab6.c: 722: BorraLCD();
  3570   000DF6  ECEF  F00B         	call	_BorraLCD	;wreg free
  3571                           
  3572                           ;Lab6.c: 723: MensajeLCD_Var("Valor max: 59");
  3573   000DFA  0E81               	movlw	low STR_23
  3574   000DFC  0100               	movlb	0	; () banked
  3575   000DFE  6F60               	movwf	MensajeLCD_Var@a& (0+255),b
  3576   000E00  0E7F               	movlw	high STR_23
  3577   000E02  6F61               	movwf	(MensajeLCD_Var@a+1)& (0+255),b
  3578   000E04  EC12  F00A         	call	_MensajeLCD_Var	;wreg free
  3579                           
  3580                           ; BSR set to: 0
  3581                           ;Lab6.c: 724: DireccionaLCD(0xC0);
  3582   000E08  0EC0               	movlw	192
  3583   000E0A  ECCE  F00B         	call	_DireccionaLCD
  3584                           
  3585                           ;Lab6.c: 725: MensajeLCD_Var("Valor min: 01");
  3586   000E0E  0E73               	movlw	low STR_24
  3587   000E10  0100               	movlb	0	; () banked
  3588   000E12  6F60               	movwf	MensajeLCD_Var@a& (0+255),b
  3589   000E14  0E7F               	movlw	high STR_24
  3590   000E16  6F61               	movwf	(MensajeLCD_Var@a+1)& (0+255),b
  3591   000E18  EC12  F00A         	call	_MensajeLCD_Var	;wreg free
  3592                           
  3593                           ; BSR set to: 0
  3594                           ;Lab6.c: 726: _delay((unsigned long)((2000)*(1000000/4000.0)));
  3595   000E1C  0E03               	movlw	3
  3596   000E1E  0100               	movlb	0	; () banked
  3597   000E20  6F67               	movwf	(??_PreguntaAlUsuario+1)& (0+255),b
  3598   000E22  0E8A               	movlw	138
  3599   000E24  6F66               	movwf	??_PreguntaAlUsuario& (0+255),b
  3600   000E26  0E55               	movlw	85
  3601   000E28                     u4437:
  3602   000E28  2EE8               	decfsz	wreg,f,c
  3603   000E2A  D7FE               	bra	u4437
  3604   000E2C  2F66               	decfsz	??_PreguntaAlUsuario& (0+255),f,b
  3605   000E2E  D7FC               	bra	u4437
  3606   000E30  2F67               	decfsz	(??_PreguntaAlUsuario+1)& (0+255),f,b
  3607   000E32  D7FA               	bra	u4437
  3608   000E34  D000               	nop2	
  3609                           
  3610                           ;Lab6.c: 727: BorraLCD();
  3611   000E36  ECEF  F00B         	call	_BorraLCD	;wreg free
  3612                           
  3613                           ;Lab6.c: 729: }else{
  3614   000E3A  D790               	goto	__ptext8
  3615   000E3C                     l543:
  3616                           
  3617                           ;Lab6.c: 730: editor=0;
  3618   000E3C  6A3C               	clrf	_editor^0,c
  3619                           
  3620                           ;Lab6.c: 731: posicion='0';
  3621   000E3E  0E30               	movlw	48
  3622   000E40  6E3D               	movwf	_posicion^0,c
  3623                           
  3624                           ;Lab6.c: 732: BorraLCD();
  3625   000E42  ECEF  F00B         	call	_BorraLCD	;wreg free
  3626                           
  3627                           ;Lab6.c: 733: break;
  3628   000E46  0012               	return		;funcret
  3629   000E48                     __end_of_PreguntaAlUsuario:
  3630                           	callstack 0
  3631                           
  3632 ;; *************** function _MostrarCursor *****************
  3633 ;; Defined at:
  3634 ;;		line 326 in file "LibLCDXC8.h"
  3635 ;; Parameters:    Size  Location     Type
  3636 ;;		None
  3637 ;; Auto vars:     Size  Location     Type
  3638 ;;		None
  3639 ;; Return value:  Size  Location     Type
  3640 ;;                  1    wreg      void 
  3641 ;; Registers used:
  3642 ;;		wreg, status,2, status,0, cstack
  3643 ;; Tracked objects:
  3644 ;;		On entry : 0/0
  3645 ;;		On exit  : 0/0
  3646 ;;		Unchanged: 0/0
  3647 ;; Data sizes:     COMRAM   BANK0   BANK1   BANK2   BANK3   BANK4   BANK5   BANK6   BANK7
  3648 ;;      Params:         0       0       0       0       0       0       0       0       0
  3649 ;;      Locals:         0       0       0       0       0       0       0       0       0
  3650 ;;      Temps:          0       0       0       0       0       0       0       0       0
  3651 ;;      Totals:         0       0       0       0       0       0       0       0       0
  3652 ;;Total ram usage:        0 bytes
  3653 ;; Hardware stack levels used: 1
  3654 ;; Hardware stack levels required when called: 13
  3655 ;; This function calls:
  3656 ;;		_ComandoLCD
  3657 ;; This function is called by:
  3658 ;;		_PreguntaAlUsuario
  3659 ;; This function uses a non-reentrant model
  3660 ;;
  3661                           
  3662                           	psect	text9
  3663   001892                     __ptext9:
  3664                           	callstack 0
  3665   001892                     _MostrarCursor:
  3666                           	callstack 16
  3667                           
  3668                           ;LibLCDXC8.h: 327: ComandoLCD(0xF);
  3669                           
  3670                           ;incstack = 0
  3671   001892  0E0F               	movlw	15
  3672   001894  ECFE  F00A         	call	_ComandoLCD
  3673   001898  0012               	return		;funcret
  3674   00189A                     __end_of_MostrarCursor:
  3675                           	callstack 0
  3676                           
  3677 ;; *************** function _LeerEEPROM *****************
  3678 ;; Defined at:
  3679 ;;		line 434 in file "Lab6.c"
  3680 ;; Parameters:    Size  Location     Type
  3681 ;;  direccion       2   31[COMRAM] unsigned int 
  3682 ;; Auto vars:     Size  Location     Type
  3683 ;;		None
  3684 ;; Return value:  Size  Location     Type
  3685 ;;                  1    wreg      unsigned char 
  3686 ;; Registers used:
  3687 ;;		wreg, status,2
  3688 ;; Tracked objects:
  3689 ;;		On entry : 0/0
  3690 ;;		On exit  : 0/0
  3691 ;;		Unchanged: 0/0
  3692 ;; Data sizes:     COMRAM   BANK0   BANK1   BANK2   BANK3   BANK4   BANK5   BANK6   BANK7
  3693 ;;      Params:         2       0       0       0       0       0       0       0       0
  3694 ;;      Locals:         0       0       0       0       0       0       0       0       0
  3695 ;;      Temps:          0       0       0       0       0       0       0       0       0
  3696 ;;      Totals:         2       0       0       0       0       0       0       0       0
  3697 ;;Total ram usage:        2 bytes
  3698 ;; Hardware stack levels used: 1
  3699 ;; Hardware stack levels required when called: 8
  3700 ;; This function calls:
  3701 ;;		Nothing
  3702 ;; This function is called by:
  3703 ;;		_main
  3704 ;; This function uses a non-reentrant model
  3705 ;;
  3706                           
  3707                           	psect	text10
  3708   00182A                     __ptext10:
  3709                           	callstack 0
  3710   00182A                     _LeerEEPROM:
  3711                           	callstack 22
  3712                           
  3713                           ;Lab6.c: 435: EEADR = direccion;
  3714                           
  3715                           ;incstack = 0
  3716   00182A  C020  FFA9         	movff	LeerEEPROM@direccion,4009	;volatile
  3717                           
  3718                           ;Lab6.c: 436: EECON1bits.EEPGD = 0;
  3719   00182E  9EA6               	bcf	166,7,c	;volsfr
  3720                           
  3721                           ;Lab6.c: 437: EECON1bits.CFGS = 0;
  3722   001830  9CA6               	bcf	166,6,c	;volsfr
  3723                           
  3724                           ;Lab6.c: 438: EECON1bits.RD = 1;
  3725   001832  80A6               	bsf	166,0,c	;volsfr
  3726                           
  3727                           ;Lab6.c: 439: return EEDATA;
  3728   001834  50A8               	movf	168,w,c	;volatile
  3729   001836  0012               	return		;funcret
  3730   001838                     __end_of_LeerEEPROM:
  3731                           	callstack 0
  3732                           
  3733 ;; *************** function _GuardarEEPROM *****************
  3734 ;; Defined at:
  3735 ;;		line 421 in file "Lab6.c"
  3736 ;; Parameters:    Size  Location     Type
  3737 ;;  direccion       2   31[COMRAM] unsigned int 
  3738 ;;  dato            1   33[COMRAM] unsigned char 
  3739 ;; Auto vars:     Size  Location     Type
  3740 ;;		None
  3741 ;; Return value:  Size  Location     Type
  3742 ;;                  1    wreg      void 
  3743 ;; Registers used:
  3744 ;;		wreg, status,2
  3745 ;; Tracked objects:
  3746 ;;		On entry : 0/0
  3747 ;;		On exit  : 0/0
  3748 ;;		Unchanged: 0/0
  3749 ;; Data sizes:     COMRAM   BANK0   BANK1   BANK2   BANK3   BANK4   BANK5   BANK6   BANK7
  3750 ;;      Params:         3       0       0       0       0       0       0       0       0
  3751 ;;      Locals:         0       0       0       0       0       0       0       0       0
  3752 ;;      Temps:          0       0       0       0       0       0       0       0       0
  3753 ;;      Totals:         3       0       0       0       0       0       0       0       0
  3754 ;;Total ram usage:        3 bytes
  3755 ;; Hardware stack levels used: 1
  3756 ;; Hardware stack levels required when called: 8
  3757 ;; This function calls:
  3758 ;;		Nothing
  3759 ;; This function is called by:
  3760 ;;		_main
  3761 ;; This function uses a non-reentrant model
  3762 ;;
  3763                           
  3764                           	psect	text11
  3765   00170E                     __ptext11:
  3766                           	callstack 0
  3767   00170E                     _GuardarEEPROM:
  3768                           	callstack 22
  3769                           
  3770                           ;Lab6.c: 422: EEADR = direccion;
  3771                           
  3772                           ;incstack = 0
  3773   00170E  C020  FFA9         	movff	GuardarEEPROM@direccion,4009	;volatile
  3774                           
  3775                           ;Lab6.c: 423: EEDATA = dato;
  3776   001712  C022  FFA8         	movff	GuardarEEPROM@dato,4008	;volatile
  3777                           
  3778                           ;Lab6.c: 424: EECON1 = 0b0010;
  3779   001716  0E02               	movlw	2
  3780   001718  6EA6               	movwf	166,c	;volsfr
  3781                           
  3782                           ;Lab6.c: 425: GIE = 0;
  3783   00171A  9EF2               	bcf	4082,7,c	;volatile
  3784                           
  3785                           ;Lab6.c: 426: EECON2 = 0x55;
  3786   00171C  0E55               	movlw	85
  3787   00171E  6EA7               	movwf	167,c	;volsfr
  3788                           
  3789                           ;Lab6.c: 427: EECON2 = 0xAA;
  3790   001720  0EAA               	movlw	170
  3791   001722  6EA7               	movwf	167,c	;volsfr
  3792                           
  3793                           ;Lab6.c: 428: EECON1bits.WR = 1;
  3794   001724  82A6               	bsf	166,1,c	;volsfr
  3795   001726                     l424:
  3796   001726  B2A6               	btfsc	166,1,c	;volsfr
  3797   001728  D7FE               	goto	l424
  3798                           
  3799                           ;Lab6.c: 430: GIE = 1;
  3800   00172A  8EF2               	bsf	4082,7,c	;volatile
  3801                           
  3802                           ;Lab6.c: 431: EECON1bits.WREN = 0;
  3803   00172C  94A6               	bcf	166,2,c	;volsfr
  3804   00172E  0012               	return		;funcret
  3805   001730                     __end_of_GuardarEEPROM:
  3806                           	callstack 0
  3807                           
  3808 ;; *************** function _EscribeLCD_n8 *****************
  3809 ;; Defined at:
  3810 ;;		line 149 in file "LibLCDXC8.h"
  3811 ;; Parameters:    Size  Location     Type
  3812 ;;  a               1    wreg     unsigned char 
  3813 ;;  b               1    3[BANK0 ] unsigned char 
  3814 ;; Auto vars:     Size  Location     Type
  3815 ;;  a               1    7[BANK0 ] unsigned char 
  3816 ;;  unidad          1    6[BANK0 ] unsigned char 
  3817 ;;  decena          1    5[BANK0 ] unsigned char 
  3818 ;;  centena         1    4[BANK0 ] unsigned char 
  3819 ;; Return value:  Size  Location     Type
  3820 ;;                  1    wreg      void 
  3821 ;; Registers used:
  3822 ;;		wreg, status,2, status,0, cstack
  3823 ;; Tracked objects:
  3824 ;;		On entry : 3F/0
  3825 ;;		On exit  : 0/0
  3826 ;;		Unchanged: 0/0
  3827 ;; Data sizes:     COMRAM   BANK0   BANK1   BANK2   BANK3   BANK4   BANK5   BANK6   BANK7
  3828 ;;      Params:         0       1       0       0       0       0       0       0       0
  3829 ;;      Locals:         0       4       0       0       0       0       0       0       0
  3830 ;;      Temps:          0       0       0       0       0       0       0       0       0
  3831 ;;      Totals:         0       5       0       0       0       0       0       0       0
  3832 ;;Total ram usage:        5 bytes
  3833 ;; Hardware stack levels used: 1
  3834 ;; Hardware stack levels required when called: 10
  3835 ;; This function calls:
  3836 ;;		_EnviaDato
  3837 ;;		_HabilitaLCD
  3838 ;;		_RetardoLCD
  3839 ;;		___lbdiv
  3840 ;;		___lbmod
  3841 ;; This function is called by:
  3842 ;;		_main
  3843 ;; This function uses a non-reentrant model
  3844 ;;
  3845                           
  3846                           	psect	text12
  3847   000C68                     __ptext12:
  3848                           	callstack 0
  3849   000C68                     _EscribeLCD_n8:
  3850                           	callstack 20
  3851                           
  3852                           ;incstack = 0
  3853                           ;EscribeLCD_n8@a stored from wreg
  3854   000C68  6F67               	movwf	EscribeLCD_n8@a& (0+255),b
  3855                           
  3856                           ;LibLCDXC8.h: 154: unsigned char centena,decena,unidad;;LibLCDXC8.h: 155: LATA4=1;
  3857   000C6A  8889               	bsf	3977,4,c	;volatile
  3858                           
  3859                           ;LibLCDXC8.h: 156: switch(b){
  3860   000C6C  D06B               	goto	l4461
  3861   000C6E                     l4429:
  3862                           
  3863                           ; BSR set to: 0
  3864   000C6E  0E0A               	movlw	10
  3865   000C70  6E20               	movwf	___lbmod@divisor^0,c
  3866   000C72  5167               	movf	EscribeLCD_n8@a& (0+255),w,b
  3867   000C74  EC5F  F00B         	call	___lbmod
  3868   000C78  0100               	movlb	0	; () banked
  3869   000C7A  6F66               	movwf	EscribeLCD_n8@unidad& (0+255),b
  3870                           
  3871                           ;LibLCDXC8.h: 158: EnviaDato(unidad+48);
  3872   000C7C  5166               	movf	EscribeLCD_n8@unidad& (0+255),w,b
  3873   000C7E  0F30               	addlw	48
  3874   000C80  EC5D  F00A         	call	_EnviaDato
  3875                           
  3876                           ;LibLCDXC8.h: 159: HabilitaLCD();
  3877   000C84  EC2A  F00C         	call	_HabilitaLCD	;wreg free
  3878                           
  3879                           ;LibLCDXC8.h: 160: RetardoLCD(4);
  3880   000C88  0E04               	movlw	4
  3881   000C8A  EC43  F009         	call	_RetardoLCD
  3882                           
  3883                           ;LibLCDXC8.h: 161: break;
  3884   000C8E  0012               	return	
  3885   000C90                     l4435:
  3886                           
  3887                           ; BSR set to: 0
  3888   000C90  0E0A               	movlw	10
  3889   000C92  6E24               	movwf	___lbdiv@divisor^0,c
  3890   000C94  0E64               	movlw	100
  3891   000C96  6E20               	movwf	___lbmod@divisor^0,c
  3892   000C98  5167               	movf	EscribeLCD_n8@a& (0+255),w,b
  3893   000C9A  EC5F  F00B         	call	___lbmod
  3894   000C9E  ECC4  F00A         	call	___lbdiv
  3895   000CA2  6F65               	movwf	EscribeLCD_n8@decena& (0+255),b
  3896                           
  3897                           ;LibLCDXC8.h: 163: unidad=a%10;
  3898   000CA4  0E0A               	movlw	10
  3899   000CA6  6E20               	movwf	___lbmod@divisor^0,c
  3900   000CA8  5167               	movf	EscribeLCD_n8@a& (0+255),w,b
  3901   000CAA  EC5F  F00B         	call	___lbmod
  3902   000CAE  0100               	movlb	0	; () banked
  3903   000CB0  6F66               	movwf	EscribeLCD_n8@unidad& (0+255),b
  3904                           
  3905                           ;LibLCDXC8.h: 164: EnviaDato(decena+48);
  3906   000CB2  5165               	movf	EscribeLCD_n8@decena& (0+255),w,b
  3907   000CB4  0F30               	addlw	48
  3908   000CB6  EC5D  F00A         	call	_EnviaDato
  3909                           
  3910                           ;LibLCDXC8.h: 165: HabilitaLCD();
  3911   000CBA  EC2A  F00C         	call	_HabilitaLCD	;wreg free
  3912                           
  3913                           ;LibLCDXC8.h: 166: RetardoLCD(4);
  3914   000CBE  0E04               	movlw	4
  3915   000CC0  EC43  F009         	call	_RetardoLCD
  3916                           
  3917                           ;LibLCDXC8.h: 167: EnviaDato(unidad+48);
  3918   000CC4  0100               	movlb	0	; () banked
  3919   000CC6  5166               	movf	EscribeLCD_n8@unidad& (0+255),w,b
  3920   000CC8  0F30               	addlw	48
  3921   000CCA  EC5D  F00A         	call	_EnviaDato
  3922                           
  3923                           ;LibLCDXC8.h: 168: HabilitaLCD();
  3924   000CCE  EC2A  F00C         	call	_HabilitaLCD	;wreg free
  3925                           
  3926                           ;LibLCDXC8.h: 169: RetardoLCD(4);
  3927   000CD2  0E04               	movlw	4
  3928   000CD4  EC43  F009         	call	_RetardoLCD
  3929                           
  3930                           ;LibLCDXC8.h: 170: break;
  3931   000CD8  0012               	return	
  3932   000CDA                     l4445:
  3933                           
  3934                           ; BSR set to: 0
  3935   000CDA  0E64               	movlw	100
  3936   000CDC  6E24               	movwf	___lbdiv@divisor^0,c
  3937   000CDE  5167               	movf	EscribeLCD_n8@a& (0+255),w,b
  3938   000CE0  ECC4  F00A         	call	___lbdiv
  3939   000CE4  6F64               	movwf	EscribeLCD_n8@centena& (0+255),b
  3940                           
  3941                           ;LibLCDXC8.h: 172: decena=(a%100)/10;
  3942   000CE6  0E0A               	movlw	10
  3943   000CE8  6E24               	movwf	___lbdiv@divisor^0,c
  3944   000CEA  0E64               	movlw	100
  3945   000CEC  6E20               	movwf	___lbmod@divisor^0,c
  3946   000CEE  5167               	movf	EscribeLCD_n8@a& (0+255),w,b
  3947   000CF0  EC5F  F00B         	call	___lbmod
  3948   000CF4  ECC4  F00A         	call	___lbdiv
  3949   000CF8  6F65               	movwf	EscribeLCD_n8@decena& (0+255),b
  3950                           
  3951                           ;LibLCDXC8.h: 173: unidad=a%10;
  3952   000CFA  0E0A               	movlw	10
  3953   000CFC  6E20               	movwf	___lbmod@divisor^0,c
  3954   000CFE  5167               	movf	EscribeLCD_n8@a& (0+255),w,b
  3955   000D00  EC5F  F00B         	call	___lbmod
  3956   000D04  0100               	movlb	0	; () banked
  3957   000D06  6F66               	movwf	EscribeLCD_n8@unidad& (0+255),b
  3958                           
  3959                           ;LibLCDXC8.h: 174: EnviaDato(centena+48);
  3960   000D08  5164               	movf	EscribeLCD_n8@centena& (0+255),w,b
  3961   000D0A  0F30               	addlw	48
  3962   000D0C  EC5D  F00A         	call	_EnviaDato
  3963                           
  3964                           ;LibLCDXC8.h: 175: HabilitaLCD();
  3965   000D10  EC2A  F00C         	call	_HabilitaLCD	;wreg free
  3966                           
  3967                           ;LibLCDXC8.h: 176: RetardoLCD(4);
  3968   000D14  0E04               	movlw	4
  3969   000D16  EC43  F009         	call	_RetardoLCD
  3970                           
  3971                           ;LibLCDXC8.h: 177: EnviaDato(decena+48);
  3972   000D1A  0100               	movlb	0	; () banked
  3973   000D1C  5165               	movf	EscribeLCD_n8@decena& (0+255),w,b
  3974   000D1E  0F30               	addlw	48
  3975   000D20  EC5D  F00A         	call	_EnviaDato
  3976                           
  3977                           ;LibLCDXC8.h: 178: HabilitaLCD();
  3978   000D24  EC2A  F00C         	call	_HabilitaLCD	;wreg free
  3979                           
  3980                           ;LibLCDXC8.h: 179: RetardoLCD(4);
  3981   000D28  0E04               	movlw	4
  3982   000D2A  EC43  F009         	call	_RetardoLCD
  3983                           
  3984                           ;LibLCDXC8.h: 180: EnviaDato(unidad+48);
  3985   000D2E  0100               	movlb	0	; () banked
  3986   000D30  5166               	movf	EscribeLCD_n8@unidad& (0+255),w,b
  3987   000D32  0F30               	addlw	48
  3988   000D34  EC5D  F00A         	call	_EnviaDato
  3989                           
  3990                           ;LibLCDXC8.h: 181: HabilitaLCD();
  3991   000D38  EC2A  F00C         	call	_HabilitaLCD	;wreg free
  3992                           
  3993                           ;LibLCDXC8.h: 182: RetardoLCD(4);
  3994   000D3C  0E04               	movlw	4
  3995   000D3E  EC43  F009         	call	_RetardoLCD
  3996                           
  3997                           ;LibLCDXC8.h: 183: break;
  3998   000D42  0012               	return	
  3999   000D44                     l4461:
  4000   000D44  0100               	movlb	0	; () banked
  4001   000D46  5163               	movf	EscribeLCD_n8@b& (0+255),w,b
  4002                           
  4003                           ; Switch size 1, requested type "simple"
  4004                           ; Number of cases is 3, Range of values is 1 to 3
  4005                           ; switch strategies available:
  4006                           ; Name         Instructions Cycles
  4007                           ; simple_byte           10     6 (average)
  4008                           ;	Chosen strategy is simple_byte
  4009   000D48  0A01               	xorlw	1	; case 1
  4010   000D4A  B4D8               	btfsc	status,2,c
  4011   000D4C  D790               	goto	l4429
  4012   000D4E  0A03               	xorlw	3	; case 2
  4013   000D50  B4D8               	btfsc	status,2,c
  4014   000D52  D79E               	goto	l4435
  4015   000D54  0A01               	xorlw	1	; case 3
  4016   000D56  A4D8               	btfss	status,2,c
  4017   000D58  0012               	return	
  4018   000D5A  D7BF               	goto	l4445
  4019   000D5C                     __end_of_EscribeLCD_n8:
  4020                           	callstack 0
  4021                           
  4022 ;; *************** function ___lbmod *****************
  4023 ;; Defined at:
  4024 ;;		line 4 in file "C:\Program Files\Microchip\xc8\v2.50\pic\sources\c90\common\lbmod.c"
  4025 ;; Parameters:    Size  Location     Type
  4026 ;;  dividend        1    wreg     unsigned char 
  4027 ;;  divisor         1   31[COMRAM] unsigned char 
  4028 ;; Auto vars:     Size  Location     Type
  4029 ;;  dividend        1   32[COMRAM] unsigned char 
  4030 ;;  rem             1   34[COMRAM] unsigned char 
  4031 ;;  counter         1   33[COMRAM] unsigned char 
  4032 ;; Return value:  Size  Location     Type
  4033 ;;                  1    wreg      unsigned char 
  4034 ;; Registers used:
  4035 ;;		wreg, status,2, status,0
  4036 ;; Tracked objects:
  4037 ;;		On entry : 3F/0
  4038 ;;		On exit  : 0/0
  4039 ;;		Unchanged: 0/0
  4040 ;; Data sizes:     COMRAM   BANK0   BANK1   BANK2   BANK3   BANK4   BANK5   BANK6   BANK7
  4041 ;;      Params:         1       0       0       0       0       0       0       0       0
  4042 ;;      Locals:         3       0       0       0       0       0       0       0       0
  4043 ;;      Temps:          0       0       0       0       0       0       0       0       0
  4044 ;;      Totals:         4       0       0       0       0       0       0       0       0
  4045 ;;Total ram usage:        4 bytes
  4046 ;; Hardware stack levels used: 1
  4047 ;; Hardware stack levels required when called: 8
  4048 ;; This function calls:
  4049 ;;		Nothing
  4050 ;; This function is called by:
  4051 ;;		_EscribeLCD_n8
  4052 ;; This function uses a non-reentrant model
  4053 ;;
  4054                           
  4055                           	psect	text13
  4056   0016BE                     __ptext13:
  4057                           	callstack 0
  4058   0016BE                     ___lbmod:
  4059                           	callstack 21
  4060                           
  4061                           ;incstack = 0
  4062                           ;___lbmod@dividend stored from wreg
  4063   0016BE  6E21               	movwf	___lbmod@dividend^0,c
  4064   0016C0  0E08               	movlw	8
  4065   0016C2  6E22               	movwf	___lbmod@counter^0,c
  4066   0016C4  6A23               	clrf	___lbmod@rem^0,c
  4067   0016C6                     l4375:
  4068   0016C6  90D8               	bcf	status,0,c
  4069   0016C8  3421               	rlcf	___lbmod@dividend^0,w,c
  4070   0016CA  3423               	rlcf	___lbmod@rem^0,w,c
  4071   0016CC  6E23               	movwf	___lbmod@rem^0,c
  4072   0016CE  90D8               	bcf	status,0,c
  4073   0016D0  3621               	rlcf	___lbmod@dividend^0,f,c
  4074   0016D2  5020               	movf	___lbmod@divisor^0,w,c
  4075   0016D4  5C23               	subwf	___lbmod@rem^0,w,c
  4076   0016D6  A0D8               	btfss	status,0,c
  4077   0016D8  D002               	goto	l4383
  4078   0016DA  5020               	movf	___lbmod@divisor^0,w,c
  4079   0016DC  5E23               	subwf	___lbmod@rem^0,f,c
  4080   0016DE                     l4383:
  4081   0016DE  2E22               	decfsz	___lbmod@counter^0,f,c
  4082   0016E0  D7F2               	goto	l4375
  4083   0016E2  5023               	movf	___lbmod@rem^0,w,c
  4084   0016E4  0012               	return		;funcret
  4085   0016E6                     __end_of___lbmod:
  4086                           	callstack 0
  4087                           
  4088 ;; *************** function ___lbdiv *****************
  4089 ;; Defined at:
  4090 ;;		line 4 in file "C:\Program Files\Microchip\xc8\v2.50\pic\sources\c90\common\lbdiv.c"
  4091 ;; Parameters:    Size  Location     Type
  4092 ;;  dividend        1    wreg     unsigned char 
  4093 ;;  divisor         1   35[COMRAM] unsigned char 
  4094 ;; Auto vars:     Size  Location     Type
  4095 ;;  dividend        1    0[BANK0 ] unsigned char 
  4096 ;;  quotient        1    2[BANK0 ] unsigned char 
  4097 ;;  counter         1    1[BANK0 ] unsigned char 
  4098 ;; Return value:  Size  Location     Type
  4099 ;;                  1    wreg      unsigned char 
  4100 ;; Registers used:
  4101 ;;		wreg, status,2, status,0
  4102 ;; Tracked objects:
  4103 ;;		On entry : 0/0
  4104 ;;		On exit  : 3F/0
  4105 ;;		Unchanged: 0/0
  4106 ;; Data sizes:     COMRAM   BANK0   BANK1   BANK2   BANK3   BANK4   BANK5   BANK6   BANK7
  4107 ;;      Params:         1       0       0       0       0       0       0       0       0
  4108 ;;      Locals:         0       3       0       0       0       0       0       0       0
  4109 ;;      Temps:          0       0       0       0       0       0       0       0       0
  4110 ;;      Totals:         1       3       0       0       0       0       0       0       0
  4111 ;;Total ram usage:        4 bytes
  4112 ;; Hardware stack levels used: 1
  4113 ;; Hardware stack levels required when called: 8
  4114 ;; This function calls:
  4115 ;;		Nothing
  4116 ;; This function is called by:
  4117 ;;		_EscribeLCD_n8
  4118 ;; This function uses a non-reentrant model
  4119 ;;
  4120                           
  4121                           	psect	text14
  4122   001588                     __ptext14:
  4123                           	callstack 0
  4124   001588                     ___lbdiv:
  4125                           	callstack 21
  4126                           
  4127                           ;incstack = 0
  4128                           ;___lbdiv@dividend stored from wreg
  4129   001588  0100               	movlb	0	; () banked
  4130   00158A  6F60               	movwf	___lbdiv@dividend& (0+255),b
  4131   00158C  0100               	movlb	0	; () banked
  4132   00158E  6B62               	clrf	___lbdiv@quotient& (0+255),b
  4133                           
  4134                           ; BSR set to: 0
  4135   001590  5024               	movf	___lbdiv@divisor^0,w,c
  4136   001592  B4D8               	btfsc	status,2,c
  4137   001594  D015               	goto	l4367
  4138                           
  4139                           ; BSR set to: 0
  4140   001596  0E01               	movlw	1
  4141   001598  6F61               	movwf	___lbdiv@counter& (0+255),b
  4142   00159A  D003               	goto	l4355
  4143   00159C                     l4351:
  4144                           
  4145                           ; BSR set to: 0
  4146   00159C  90D8               	bcf	status,0,c
  4147   00159E  3624               	rlcf	___lbdiv@divisor^0,f,c
  4148                           
  4149                           ; BSR set to: 0
  4150   0015A0  2B61               	incf	___lbdiv@counter& (0+255),f,b
  4151   0015A2                     l4355:
  4152                           
  4153                           ; BSR set to: 0
  4154   0015A2  AE24               	btfss	___lbdiv@divisor^0,7,c
  4155   0015A4  D7FB               	goto	l4351
  4156   0015A6                     u3540:
  4157                           
  4158                           ; BSR set to: 0
  4159   0015A6  90D8               	bcf	status,0,c
  4160   0015A8  3762               	rlcf	___lbdiv@quotient& (0+255),f,b
  4161   0015AA  5024               	movf	___lbdiv@divisor^0,w,c
  4162   0015AC  5D60               	subwf	___lbdiv@dividend& (0+255),w,b
  4163   0015AE  A0D8               	btfss	status,0,c
  4164   0015B0  D003               	goto	l4363
  4165                           
  4166                           ; BSR set to: 0
  4167   0015B2  5024               	movf	___lbdiv@divisor^0,w,c
  4168   0015B4  5F60               	subwf	___lbdiv@dividend& (0+255),f,b
  4169                           
  4170                           ; BSR set to: 0
  4171   0015B6  8162               	bsf	___lbdiv@quotient& (0+255),0,b
  4172   0015B8                     l4363:
  4173                           
  4174                           ; BSR set to: 0
  4175   0015B8  90D8               	bcf	status,0,c
  4176   0015BA  3224               	rrcf	___lbdiv@divisor^0,f,c
  4177                           
  4178                           ; BSR set to: 0
  4179   0015BC  2F61               	decfsz	___lbdiv@counter& (0+255),f,b
  4180   0015BE  D7F3               	goto	u3540
  4181   0015C0                     l4367:
  4182                           
  4183                           ; BSR set to: 0
  4184   0015C0  5162               	movf	___lbdiv@quotient& (0+255),w,b
  4185                           
  4186                           ; BSR set to: 0
  4187   0015C2  0012               	return		;funcret
  4188   0015C4                     __end_of___lbdiv:
  4189                           	callstack 0
  4190                           
  4191 ;; *************** function _Conversion *****************
  4192 ;; Defined at:
  4193 ;;		line 759 in file "Lab6.c"
  4194 ;; Parameters:    Size  Location     Type
  4195 ;;  canal           1    wreg     unsigned char 
  4196 ;; Auto vars:     Size  Location     Type
  4197 ;;  canal           1   33[COMRAM] unsigned char 
  4198 ;; Return value:  Size  Location     Type
  4199 ;;                  2   31[COMRAM] unsigned int 
  4200 ;; Registers used:
  4201 ;;		wreg, status,2, status,0
  4202 ;; Tracked objects:
  4203 ;;		On entry : 0/0
  4204 ;;		On exit  : 0/0
  4205 ;;		Unchanged: 0/0
  4206 ;; Data sizes:     COMRAM   BANK0   BANK1   BANK2   BANK3   BANK4   BANK5   BANK6   BANK7
  4207 ;;      Params:         2       0       0       0       0       0       0       0       0
  4208 ;;      Locals:         1       0       0       0       0       0       0       0       0
  4209 ;;      Temps:          0       0       0       0       0       0       0       0       0
  4210 ;;      Totals:         3       0       0       0       0       0       0       0       0
  4211 ;;Total ram usage:        3 bytes
  4212 ;; Hardware stack levels used: 1
  4213 ;; Hardware stack levels required when called: 8
  4214 ;; This function calls:
  4215 ;;		Nothing
  4216 ;; This function is called by:
  4217 ;;		_main
  4218 ;; This function uses a non-reentrant model
  4219 ;;
  4220                           
  4221                           	psect	text15
  4222   001752                     __ptext15:
  4223                           	callstack 0
  4224   001752                     _Conversion:
  4225                           	callstack 22
  4226                           
  4227                           ; BSR set to: 0
  4228                           ;incstack = 0
  4229                           ;Conversion@canal stored from wreg
  4230   001752  6E22               	movwf	Conversion@canal^0,c
  4231                           
  4232                           ;Lab6.c: 760: ADCON0=(canal<<2);
  4233   001754  4422               	rlncf	Conversion@canal^0,w,c
  4234   001756  46E8               	rlncf	wreg,f,c
  4235   001758  0BFC               	andlw	252
  4236   00175A  6EC2               	movwf	194,c	;volatile
  4237                           
  4238                           ;Lab6.c: 761: ADON=1;
  4239   00175C  80C2               	bsf	4034,0,c	;volatile
  4240                           
  4241                           ;Lab6.c: 762: GO_DONE=1;
  4242   00175E  82C2               	bsf	4034,1,c	;volatile
  4243   001760                     l562:
  4244   001760  B2C2               	btfsc	4034,1,c	;volatile
  4245   001762  D7FE               	goto	l562
  4246                           
  4247                           ;Lab6.c: 764: return ADRES;
  4248   001764  CFC3 F020          	movff	4035,?_Conversion	;volatile
  4249   001768  CFC4 F021          	movff	4036,?_Conversion+1	;volatile
  4250   00176C  0012               	return		;funcret
  4251   00176E                     __end_of_Conversion:
  4252                           	callstack 0
  4253                           
  4254 ;; *************** function _ConfigurarPWM *****************
  4255 ;; Defined at:
  4256 ;;		line 397 in file "Lab6.c"
  4257 ;; Parameters:    Size  Location     Type
  4258 ;;		None
  4259 ;; Auto vars:     Size  Location     Type
  4260 ;;		None
  4261 ;; Return value:  Size  Location     Type
  4262 ;;                  1    wreg      void 
  4263 ;; Registers used:
  4264 ;;		wreg, status,2
  4265 ;; Tracked objects:
  4266 ;;		On entry : 0/0
  4267 ;;		On exit  : 0/0
  4268 ;;		Unchanged: 0/0
  4269 ;; Data sizes:     COMRAM   BANK0   BANK1   BANK2   BANK3   BANK4   BANK5   BANK6   BANK7
  4270 ;;      Params:         0       0       0       0       0       0       0       0       0
  4271 ;;      Locals:         0       0       0       0       0       0       0       0       0
  4272 ;;      Temps:          0       0       0       0       0       0       0       0       0
  4273 ;;      Totals:         0       0       0       0       0       0       0       0       0
  4274 ;;Total ram usage:        0 bytes
  4275 ;; Hardware stack levels used: 1
  4276 ;; Hardware stack levels required when called: 8
  4277 ;; This function calls:
  4278 ;;		Nothing
  4279 ;; This function is called by:
  4280 ;;		_main
  4281 ;; This function uses a non-reentrant model
  4282 ;;
  4283                           
  4284                           	psect	text16
  4285   001838                     __ptext16:
  4286                           	callstack 0
  4287   001838                     _ConfigurarPWM:
  4288                           	callstack 22
  4289                           
  4290                           ;Lab6.c: 400: PR2 = 249;
  4291                           
  4292                           ;incstack = 0
  4293   001838  0EF9               	movlw	249
  4294   00183A  6ECB               	movwf	203,c	;volatile
  4295                           
  4296                           ;Lab6.c: 401: CCP1CON = 0b00001100;
  4297   00183C  0E0C               	movlw	12
  4298   00183E  6EBD               	movwf	189,c	;volatile
  4299                           
  4300                           ;Lab6.c: 402: T2CON = 0b00000100;
  4301   001840  0E04               	movlw	4
  4302   001842  6ECA               	movwf	202,c	;volatile
  4303   001844  0012               	return		;funcret
  4304   001846                     __end_of_ConfigurarPWM:
  4305                           	callstack 0
  4306                           
  4307 ;; *************** function _ConfigurarCaptura *****************
  4308 ;; Defined at:
  4309 ;;		line 405 in file "Lab6.c"
  4310 ;; Parameters:    Size  Location     Type
  4311 ;;		None
  4312 ;; Auto vars:     Size  Location     Type
  4313 ;;		None
  4314 ;; Return value:  Size  Location     Type
  4315 ;;                  1    wreg      void 
  4316 ;; Registers used:
  4317 ;;		wreg, status,2
  4318 ;; Tracked objects:
  4319 ;;		On entry : 0/0
  4320 ;;		On exit  : 0/0
  4321 ;;		Unchanged: 0/0
  4322 ;; Data sizes:     COMRAM   BANK0   BANK1   BANK2   BANK3   BANK4   BANK5   BANK6   BANK7
  4323 ;;      Params:         0       0       0       0       0       0       0       0       0
  4324 ;;      Locals:         0       0       0       0       0       0       0       0       0
  4325 ;;      Temps:          0       0       0       0       0       0       0       0       0
  4326 ;;      Totals:         0       0       0       0       0       0       0       0       0
  4327 ;;Total ram usage:        0 bytes
  4328 ;; Hardware stack levels used: 1
  4329 ;; Hardware stack levels required when called: 8
  4330 ;; This function calls:
  4331 ;;		Nothing
  4332 ;; This function is called by:
  4333 ;;		_main
  4334 ;; This function uses a non-reentrant model
  4335 ;;
  4336                           
  4337                           	psect	text17
  4338   001846                     __ptext17:
  4339                           	callstack 0
  4340   001846                     _ConfigurarCaptura:
  4341                           	callstack 22
  4342                           
  4343                           ;Lab6.c: 407: T3CON = 0b10001001;
  4344                           
  4345                           ;incstack = 0
  4346   001846  0E89               	movlw	137
  4347   001848  6EB1               	movwf	177,c	;volatile
  4348                           
  4349                           ;Lab6.c: 408: CCP2CON = 0b00000101;
  4350   00184A  0E05               	movlw	5
  4351   00184C  6EBA               	movwf	186,c	;volatile
  4352                           
  4353                           ;Lab6.c: 409: CCP2IE = 1;
  4354   00184E  80A0               	bsf	4000,0,c	;volatile
  4355                           
  4356                           ;Lab6.c: 410: CCP2IF = 0;
  4357   001850  90A1               	bcf	4001,0,c	;volatile
  4358   001852  0012               	return		;funcret
  4359   001854                     __end_of_ConfigurarCaptura:
  4360                           	callstack 0
  4361                           
  4362 ;; *************** function _ConfigVariables *****************
  4363 ;; Defined at:
  4364 ;;		line 659 in file "Lab6.c"
  4365 ;; Parameters:    Size  Location     Type
  4366 ;;		None
  4367 ;; Auto vars:     Size  Location     Type
  4368 ;;		None
  4369 ;; Return value:  Size  Location     Type
  4370 ;;                  1    wreg      void 
  4371 ;; Registers used:
  4372 ;;		wreg, status,2
  4373 ;; Tracked objects:
  4374 ;;		On entry : 0/0
  4375 ;;		On exit  : 0/0
  4376 ;;		Unchanged: 0/0
  4377 ;; Data sizes:     COMRAM   BANK0   BANK1   BANK2   BANK3   BANK4   BANK5   BANK6   BANK7
  4378 ;;      Params:         0       0       0       0       0       0       0       0       0
  4379 ;;      Locals:         0       0       0       0       0       0       0       0       0
  4380 ;;      Temps:          0       0       0       0       0       0       0       0       0
  4381 ;;      Totals:         0       0       0       0       0       0       0       0       0
  4382 ;;Total ram usage:        0 bytes
  4383 ;; Hardware stack levels used: 1
  4384 ;; Hardware stack levels required when called: 8
  4385 ;; This function calls:
  4386 ;;		Nothing
  4387 ;; This function is called by:
  4388 ;;		_main
  4389 ;; This function uses a non-reentrant model
  4390 ;;
  4391                           
  4392                           	psect	text18
  4393   001692                     __ptext18:
  4394                           	callstack 0
  4395   001692                     _ConfigVariables:
  4396                           	callstack 22
  4397                           
  4398                           ;Lab6.c: 660: Pulsado=1;
  4399                           
  4400                           ;incstack = 0
  4401   001692  0E01               	movlw	1
  4402   001694  6E3E               	movwf	_Pulsado^0,c
  4403                           
  4404                           ;Lab6.c: 661: contador=0;
  4405   001696  0E00               	movlw	0
  4406   001698  6E30               	movwf	(_contador+1)^0,c
  4407   00169A  0E00               	movlw	0
  4408   00169C  6E2F               	movwf	_contador^0,c
  4409                           
  4410                           ;Lab6.c: 662: salir=0;
  4411   00169E  6A3B               	clrf	_salir^0,c
  4412                           
  4413                           ;Lab6.c: 663: Supercontador=0;
  4414   0016A0  0E00               	movlw	0
  4415   0016A2  6E32               	movwf	(_Supercontador+1)^0,c
  4416   0016A4  0E00               	movlw	0
  4417   0016A6  6E31               	movwf	_Supercontador^0,c
  4418                           
  4419                           ;Lab6.c: 664: contadorRGB=0;
  4420   0016A8  0E00               	movlw	0
  4421   0016AA  6E2E               	movwf	(_contadorRGB+1)^0,c
  4422   0016AC  0E00               	movlw	0
  4423   0016AE  6E2D               	movwf	_contadorRGB^0,c
  4424                           
  4425                           ;Lab6.c: 665: posicion=0;
  4426   0016B0  6A3D               	clrf	_posicion^0,c
  4427                           
  4428                           ;Lab6.c: 666: Objetivo=0;
  4429   0016B2  0E00               	movlw	0
  4430   0016B4  6E2C               	movwf	(_Objetivo+1)^0,c
  4431   0016B6  0E00               	movlw	0
  4432   0016B8  6E2B               	movwf	_Objetivo^0,c
  4433                           
  4434                           ;Lab6.c: 667: Tecla='\0';
  4435   0016BA  6A3A               	clrf	_Tecla^0,c
  4436   0016BC  0012               	return		;funcret
  4437   0016BE                     __end_of_ConfigVariables:
  4438                           	callstack 0
  4439                           
  4440 ;; *************** function _Bienvenida *****************
  4441 ;; Defined at:
  4442 ;;		line 669 in file "Lab6.c"
  4443 ;; Parameters:    Size  Location     Type
  4444 ;;		None
  4445 ;; Auto vars:     Size  Location     Type
  4446 ;;  i               2    8[BANK0 ] int 
  4447 ;; Return value:  Size  Location     Type
  4448 ;;                  1    wreg      void 
  4449 ;; Registers used:
  4450 ;;		wreg, fsr2l, fsr2h, status,2, status,0, tblptrl, tblptrh, tblptru, prodl, prodh, cstack
  4451 ;; Tracked objects:
  4452 ;;		On entry : 0/0
  4453 ;;		On exit  : 3F/0
  4454 ;;		Unchanged: 0/0
  4455 ;; Data sizes:     COMRAM   BANK0   BANK1   BANK2   BANK3   BANK4   BANK5   BANK6   BANK7
  4456 ;;      Params:         0       0       0       0       0       0       0       0       0
  4457 ;;      Locals:         0       2       0       0       0       0       0       0       0
  4458 ;;      Temps:          0       2       0       0       0       0       0       0       0
  4459 ;;      Totals:         0       4       0       0       0       0       0       0       0
  4460 ;;Total ram usage:        4 bytes
  4461 ;; Hardware stack levels used: 1
  4462 ;; Hardware stack levels required when called: 14
  4463 ;; This function calls:
  4464 ;;		_ConfiguraLCD
  4465 ;;		_CrearCaracter
  4466 ;;		_DesplazaPantallaD
  4467 ;;		_DireccionaLCD
  4468 ;;		_EscribeLCD_c
  4469 ;;		_InicializaLCD
  4470 ;;		_MensajeLCD_Var
  4471 ;;		_OcultarCursor
  4472 ;; This function is called by:
  4473 ;;		_main
  4474 ;; This function uses a non-reentrant model
  4475 ;;
  4476                           
  4477                           	psect	text19
  4478   000F2E                     __ptext19:
  4479                           	callstack 0
  4480   000F2E                     _Bienvenida:
  4481                           	callstack 16
  4482                           
  4483                           ;Lab6.c: 671: ConfiguraLCD(4);
  4484                           
  4485                           ;incstack = 0
  4486   000F2E  0E04               	movlw	4
  4487   000F30  ECB7  F00B         	call	_ConfiguraLCD
  4488                           
  4489                           ;Lab6.c: 672: InicializaLCD();
  4490   000F34  ECEB  F007         	call	_InicializaLCD	;wreg free
  4491                           
  4492                           ;Lab6.c: 673: OcultarCursor();
  4493   000F38  EC4D  F00C         	call	_OcultarCursor	;wreg free
  4494                           
  4495                           ;Lab6.c: 676: CrearCaracter(Corazon, 0);
  4496   000F3C  0E83               	movlw	low _Corazon
  4497   000F3E  0100               	movlb	0	; () banked
  4498   000F40  6F60               	movwf	CrearCaracter@arreglo& (0+255),b
  4499   000F42  0E00               	movlw	0
  4500   000F44  6F61               	movwf	CrearCaracter@posicionCGRAM& (0+255),b
  4501   000F46  ECBB  F008         	call	_CrearCaracter	;wreg free
  4502                           
  4503                           ;Lab6.c: 679: EscribeLCD_c(0);
  4504   000F4A  0E00               	movlw	0
  4505   000F4C  ECC3  F00B         	call	_EscribeLCD_c
  4506                           
  4507                           ;Lab6.c: 680: EscribeLCD_c(0);
  4508   000F50  0E00               	movlw	0
  4509   000F52  ECC3  F00B         	call	_EscribeLCD_c
  4510                           
  4511                           ;Lab6.c: 681: MensajeLCD_Var("   Bienvenido ");
  4512   000F56  0E55               	movlw	low STR_19
  4513   000F58  0100               	movlb	0	; () banked
  4514   000F5A  6F60               	movwf	MensajeLCD_Var@a& (0+255),b
  4515   000F5C  0E7F               	movlw	high STR_19
  4516   000F5E  6F61               	movwf	(MensajeLCD_Var@a+1)& (0+255),b
  4517   000F60  EC12  F00A         	call	_MensajeLCD_Var	;wreg free
  4518                           
  4519                           ; BSR set to: 0
  4520                           ;Lab6.c: 682: DireccionaLCD(0xC0);
  4521   000F64  0EC0               	movlw	192
  4522   000F66  ECCE  F00B         	call	_DireccionaLCD
  4523                           
  4524                           ;Lab6.c: 683: EscribeLCD_c(0);
  4525   000F6A  0E00               	movlw	0
  4526   000F6C  ECC3  F00B         	call	_EscribeLCD_c
  4527                           
  4528                           ;Lab6.c: 684: EscribeLCD_c(0);
  4529   000F70  0E00               	movlw	0
  4530   000F72  ECC3  F00B         	call	_EscribeLCD_c
  4531                           
  4532                           ;Lab6.c: 685: MensajeLCD_Var("    Usuario");
  4533   000F76  0EDD               	movlw	low STR_20
  4534   000F78  0100               	movlb	0	; () banked
  4535   000F7A  6F60               	movwf	MensajeLCD_Var@a& (0+255),b
  4536   000F7C  0E7F               	movlw	high STR_20
  4537   000F7E  6F61               	movwf	(MensajeLCD_Var@a+1)& (0+255),b
  4538   000F80  EC12  F00A         	call	_MensajeLCD_Var	;wreg free
  4539                           
  4540                           ; BSR set to: 0
  4541                           ;Lab6.c: 686: _delay((unsigned long)((4200)*(1000000/4000.0)));
  4542   000F84  0E06               	movlw	6
  4543   000F86  0100               	movlb	0	; () banked
  4544   000F88  6F67               	movwf	(??_Bienvenida+1)& (0+255),b
  4545   000F8A  0E54               	movlw	84
  4546   000F8C  6F66               	movwf	??_Bienvenida& (0+255),b
  4547   000F8E  0E9D               	movlw	157
  4548   000F90                     u4447:
  4549   000F90  2EE8               	decfsz	wreg,f,c
  4550   000F92  D7FE               	bra	u4447
  4551   000F94  2F66               	decfsz	??_Bienvenida& (0+255),f,b
  4552   000F96  D7FC               	bra	u4447
  4553   000F98  2F67               	decfsz	(??_Bienvenida+1)& (0+255),f,b
  4554   000F9A  D7FA               	bra	u4447
  4555                           
  4556                           ;Lab6.c: 689: for(int i = 0; i < 18; i++){
  4557   000F9C  0E00               	movlw	0
  4558   000F9E  0100               	movlb	0	; () banked
  4559   000FA0  6F69               	movwf	(Bienvenida@i+1)& (0+255),b
  4560   000FA2  0E00               	movlw	0
  4561   000FA4  6F68               	movwf	Bienvenida@i& (0+255),b
  4562   000FA6                     l4511:
  4563                           
  4564                           ; BSR set to: 0
  4565                           ;Lab6.c: 690: DesplazaPantallaD();
  4566   000FA6  ECF9  F00B         	call	_DesplazaPantallaD	;wreg free
  4567                           
  4568                           ;Lab6.c: 691: _delay((unsigned long)((100)*(1000000/4000.0)));
  4569   000FAA  0E21               	movlw	33
  4570   000FAC  0100               	movlb	0	; () banked
  4571   000FAE  6F66               	movwf	??_Bienvenida& (0+255),b
  4572   000FB0  0E76               	movlw	118
  4573   000FB2                     u4457:
  4574   000FB2  2EE8               	decfsz	wreg,f,c
  4575   000FB4  D7FE               	bra	u4457
  4576   000FB6  2F66               	decfsz	??_Bienvenida& (0+255),f,b
  4577   000FB8  D7FC               	bra	u4457
  4578   000FBA  0000               	nop	
  4579   000FBC  0100               	movlb	0	; () banked
  4580   000FBE  4B68               	infsnz	Bienvenida@i& (0+255),f,b
  4581   000FC0  2B69               	incf	(Bienvenida@i+1)& (0+255),f,b
  4582                           
  4583                           ; BSR set to: 0
  4584   000FC2  BF69               	btfsc	(Bienvenida@i+1)& (0+255),7,b
  4585   000FC4  D7F0               	goto	l4511
  4586   000FC6  5169               	movf	(Bienvenida@i+1)& (0+255),w,b
  4587   000FC8  E105               	bnz	u3630
  4588   000FCA  0E12               	movlw	18
  4589   000FCC  5D68               	subwf	Bienvenida@i& (0+255),w,b
  4590   000FCE  B0D8               	btfsc	status,0,c
  4591   000FD0  0012               	return	
  4592   000FD2  D7E9               	goto	l4511
  4593   000FD4                     u3630:
  4594                           
  4595                           ; BSR set to: 0
  4596   000FD4  0012               	return		;funcret
  4597   000FD6                     __end_of_Bienvenida:
  4598                           	callstack 0
  4599                           
  4600 ;; *************** function _OcultarCursor *****************
  4601 ;; Defined at:
  4602 ;;		line 323 in file "LibLCDXC8.h"
  4603 ;; Parameters:    Size  Location     Type
  4604 ;;		None
  4605 ;; Auto vars:     Size  Location     Type
  4606 ;;		None
  4607 ;; Return value:  Size  Location     Type
  4608 ;;                  1    wreg      void 
  4609 ;; Registers used:
  4610 ;;		wreg, status,2, status,0, cstack
  4611 ;; Tracked objects:
  4612 ;;		On entry : 0/0
  4613 ;;		On exit  : 0/0
  4614 ;;		Unchanged: 0/0
  4615 ;; Data sizes:     COMRAM   BANK0   BANK1   BANK2   BANK3   BANK4   BANK5   BANK6   BANK7
  4616 ;;      Params:         0       0       0       0       0       0       0       0       0
  4617 ;;      Locals:         0       0       0       0       0       0       0       0       0
  4618 ;;      Temps:          0       0       0       0       0       0       0       0       0
  4619 ;;      Totals:         0       0       0       0       0       0       0       0       0
  4620 ;;Total ram usage:        0 bytes
  4621 ;; Hardware stack levels used: 1
  4622 ;; Hardware stack levels required when called: 13
  4623 ;; This function calls:
  4624 ;;		_ComandoLCD
  4625 ;; This function is called by:
  4626 ;;		_main
  4627 ;;		_Bienvenida
  4628 ;;		_PreguntaAlUsuario
  4629 ;; This function uses a non-reentrant model
  4630 ;;
  4631                           
  4632                           	psect	text20
  4633   00189A                     __ptext20:
  4634                           	callstack 0
  4635   00189A                     _OcultarCursor:
  4636                           	callstack 16
  4637                           
  4638                           ;LibLCDXC8.h: 324: ComandoLCD(0xC);
  4639                           
  4640                           ; BSR set to: 0
  4641                           ;incstack = 0
  4642   00189A  0E0C               	movlw	12
  4643   00189C  ECFE  F00A         	call	_ComandoLCD
  4644   0018A0  0012               	return		;funcret
  4645   0018A2                     __end_of_OcultarCursor:
  4646                           	callstack 0
  4647                           
  4648 ;; *************** function _ComandoLCD *****************
  4649 ;; Defined at:
  4650 ;;		line 127 in file "LibLCDXC8.h"
  4651 ;; Parameters:    Size  Location     Type
  4652 ;;  a               1    wreg     unsigned char 
  4653 ;; Auto vars:     Size  Location     Type
  4654 ;;  a               1    0[BANK0 ] unsigned char 
  4655 ;; Return value:  Size  Location     Type
  4656 ;;                  1    wreg      void 
  4657 ;; Registers used:
  4658 ;;		wreg, status,2, status,0, cstack
  4659 ;; Tracked objects:
  4660 ;;		On entry : 0/0
  4661 ;;		On exit  : 0/0
  4662 ;;		Unchanged: 0/0
  4663 ;; Data sizes:     COMRAM   BANK0   BANK1   BANK2   BANK3   BANK4   BANK5   BANK6   BANK7
  4664 ;;      Params:         0       0       0       0       0       0       0       0       0
  4665 ;;      Locals:         0       1       0       0       0       0       0       0       0
  4666 ;;      Temps:          0       0       0       0       0       0       0       0       0
  4667 ;;      Totals:         0       1       0       0       0       0       0       0       0
  4668 ;;Total ram usage:        1 bytes
  4669 ;; Hardware stack levels used: 1
  4670 ;; Hardware stack levels required when called: 12
  4671 ;; This function calls:
  4672 ;;		_BorraLCD
  4673 ;;		_CursorAInicio
  4674 ;;		_EnviaDato
  4675 ;;		_HabilitaLCD
  4676 ;;		_RetardoLCD
  4677 ;; This function is called by:
  4678 ;;		_OcultarCursor
  4679 ;;		_MostrarCursor
  4680 ;; This function uses a non-reentrant model
  4681 ;;
  4682                           
  4683                           	psect	text21
  4684   0015FC                     __ptext21:
  4685                           	callstack 0
  4686   0015FC                     _ComandoLCD:
  4687                           	callstack 16
  4688                           
  4689                           ;incstack = 0
  4690                           ;ComandoLCD@a stored from wreg
  4691   0015FC  0100               	movlb	0	; () banked
  4692   0015FE  6F60               	movwf	ComandoLCD@a& (0+255),b
  4693                           
  4694                           ;LibLCDXC8.h: 129: LATA4=0;
  4695   001600  9889               	bcf	3977,4,c	;volatile
  4696                           
  4697                           ;LibLCDXC8.h: 130: if(a==1)
  4698   001602  0100               	movlb	0	; () banked
  4699   001604  0560               	decf	ComandoLCD@a& (0+255),w,b
  4700   001606  A4D8               	btfss	status,2,c
  4701   001608  D003               	goto	l4215
  4702                           
  4703                           ; BSR set to: 0
  4704                           ;LibLCDXC8.h: 131: BorraLCD();
  4705   00160A  ECEF  F00B         	call	_BorraLCD	;wreg free
  4706   00160E  0012               	return	
  4707   001610                     l4215:
  4708                           
  4709                           ; BSR set to: 0
  4710                           ;LibLCDXC8.h: 132: else if((a&0b11111110)==2)
  4711   001610  5160               	movf	ComandoLCD@a& (0+255),w,b
  4712   001612  0BFE               	andlw	254
  4713   001614  0A02               	xorlw	2
  4714   001616  A4D8               	btfss	status,2,c
  4715   001618  D003               	goto	l4219
  4716                           
  4717                           ; BSR set to: 0
  4718                           ;LibLCDXC8.h: 133: CursorAInicio();
  4719   00161A  EC51  F00C         	call	_CursorAInicio	;wreg free
  4720   00161E  0012               	return	
  4721   001620                     l4219:
  4722                           
  4723                           ; BSR set to: 0
  4724                           ;LibLCDXC8.h: 134: else{;LibLCDXC8.h: 135: EnviaDato(a);
  4725   001620  5160               	movf	ComandoLCD@a& (0+255),w,b
  4726   001622  EC5D  F00A         	call	_EnviaDato
  4727                           
  4728                           ;LibLCDXC8.h: 136: HabilitaLCD();
  4729   001626  EC2A  F00C         	call	_HabilitaLCD	;wreg free
  4730                           
  4731                           ;LibLCDXC8.h: 137: RetardoLCD(4);
  4732   00162A  0E04               	movlw	4
  4733   00162C  EC43  F009         	call	_RetardoLCD
  4734   001630  0012               	return		;funcret
  4735   001632                     __end_of_ComandoLCD:
  4736                           	callstack 0
  4737                           
  4738 ;; *************** function _CursorAInicio *****************
  4739 ;; Defined at:
  4740 ;;		line 121 in file "LibLCDXC8.h"
  4741 ;; Parameters:    Size  Location     Type
  4742 ;;		None
  4743 ;; Auto vars:     Size  Location     Type
  4744 ;;		None
  4745 ;; Return value:  Size  Location     Type
  4746 ;;                  1    wreg      void 
  4747 ;; Registers used:
  4748 ;;		wreg, status,2, status,0, cstack
  4749 ;; Tracked objects:
  4750 ;;		On entry : 3F/0
  4751 ;;		On exit  : 0/0
  4752 ;;		Unchanged: 0/0
  4753 ;; Data sizes:     COMRAM   BANK0   BANK1   BANK2   BANK3   BANK4   BANK5   BANK6   BANK7
  4754 ;;      Params:         0       0       0       0       0       0       0       0       0
  4755 ;;      Locals:         0       0       0       0       0       0       0       0       0
  4756 ;;      Temps:          0       0       0       0       0       0       0       0       0
  4757 ;;      Totals:         0       0       0       0       0       0       0       0       0
  4758 ;;Total ram usage:        0 bytes
  4759 ;; Hardware stack levels used: 1
  4760 ;; Hardware stack levels required when called: 11
  4761 ;; This function calls:
  4762 ;;		_DireccionaLCD
  4763 ;; This function is called by:
  4764 ;;		_ComandoLCD
  4765 ;; This function uses a non-reentrant model
  4766 ;;
  4767                           
  4768                           	psect	text22
  4769   0018A2                     __ptext22:
  4770                           	callstack 0
  4771   0018A2                     _CursorAInicio:
  4772                           	callstack 16
  4773                           
  4774                           ; BSR set to: 0
  4775                           ;LibLCDXC8.h: 124: DireccionaLCD(0x80);
  4776                           
  4777                           ;incstack = 0
  4778   0018A2  0E80               	movlw	128
  4779   0018A4  ECCE  F00B         	call	_DireccionaLCD
  4780   0018A8  0012               	return		;funcret
  4781   0018AA                     __end_of_CursorAInicio:
  4782                           	callstack 0
  4783                           
  4784 ;; *************** function _MensajeLCD_Var *****************
  4785 ;; Defined at:
  4786 ;;		line 236 in file "LibLCDXC8.h"
  4787 ;; Parameters:    Size  Location     Type
  4788 ;;  a               2    0[BANK0 ] PTR unsigned char 
  4789 ;;		 -> STR_24(14), STR_23(14), STR_22(13), STR_21(17), 
  4790 ;;		 -> STR_20(12), STR_19(15), STR_18(14), STR_17(13), 
  4791 ;;		 -> STR_16(14), STR_15(13), STR_14(15), STR_13(16), 
  4792 ;;		 -> STR_10(11), STR_9(12), STR_6(13), STR_5(13), 
  4793 ;;		 -> STR_4(20), STR_3(19), STR_2(11), STR_1(18), 
  4794 ;; Auto vars:     Size  Location     Type
  4795 ;;  i               2    4[BANK0 ] int 
  4796 ;; Return value:  Size  Location     Type
  4797 ;;                  1    wreg      void 
  4798 ;; Registers used:
  4799 ;;		wreg, status,2, status,0, tblptrl, tblptrh, tblptru, cstack
  4800 ;; Tracked objects:
  4801 ;;		On entry : 3F/0
  4802 ;;		On exit  : 3F/0
  4803 ;;		Unchanged: 0/0
  4804 ;; Data sizes:     COMRAM   BANK0   BANK1   BANK2   BANK3   BANK4   BANK5   BANK6   BANK7
  4805 ;;      Params:         0       2       0       0       0       0       0       0       0
  4806 ;;      Locals:         0       2       0       0       0       0       0       0       0
  4807 ;;      Temps:          0       2       0       0       0       0       0       0       0
  4808 ;;      Totals:         0       6       0       0       0       0       0       0       0
  4809 ;;Total ram usage:        6 bytes
  4810 ;; Hardware stack levels used: 1
  4811 ;; Hardware stack levels required when called: 11
  4812 ;; This function calls:
  4813 ;;		_EscribeLCD_c
  4814 ;; This function is called by:
  4815 ;;		_main
  4816 ;;		_Bienvenida
  4817 ;;		_PreguntaAlUsuario
  4818 ;; This function uses a non-reentrant model
  4819 ;;
  4820                           
  4821                           	psect	text23
  4822   001424                     __ptext23:
  4823                           	callstack 0
  4824   001424                     _MensajeLCD_Var:
  4825                           	callstack 18
  4826                           
  4827                           ; BSR set to: 0
  4828                           ;LibLCDXC8.h: 241: for (int i=0;a[i] != '\0';i++){
  4829                           
  4830                           ;incstack = 0
  4831   001424  0E00               	movlw	0
  4832   001426  6F65               	movwf	(MensajeLCD_Var@i+1)& (0+255),b
  4833   001428  0E00               	movlw	0
  4834   00142A  6F64               	movwf	MensajeLCD_Var@i& (0+255),b
  4835   00142C  D011               	goto	l4297
  4836   00142E                     l4293:
  4837                           
  4838                           ; BSR set to: 0
  4839                           ;LibLCDXC8.h: 242: EscribeLCD_c(a[i]);
  4840   00142E  5164               	movf	MensajeLCD_Var@i& (0+255),w,b
  4841   001430  2560               	addwf	MensajeLCD_Var@a& (0+255),w,b
  4842   001432  6F62               	movwf	??_MensajeLCD_Var& (0+255),b
  4843   001434  5165               	movf	(MensajeLCD_Var@i+1)& (0+255),w,b
  4844   001436  2161               	addwfc	(MensajeLCD_Var@a+1)& (0+255),w,b
  4845   001438  6F63               	movwf	(??_MensajeLCD_Var+1)& (0+255),b
  4846   00143A  C062  FFF6         	movff	??_MensajeLCD_Var,tblptrl
  4847   00143E  C063  FFF7         	movff	??_MensajeLCD_Var+1,tblptrh
  4848   001442                     	if	0	;tblptru may be non-zero
  4849   001442                     	endif
  4850   001442                     	if	0	;tblptru may be non-zero
  4851   001442                     	endif
  4852   001442  0008               	tblrd		*
  4853   001444  50F5               	movf	tablat,w,c
  4854   001446  ECC3  F00B         	call	_EscribeLCD_c
  4855   00144A  0100               	movlb	0	; () banked
  4856   00144C  4B64               	infsnz	MensajeLCD_Var@i& (0+255),f,b
  4857   00144E  2B65               	incf	(MensajeLCD_Var@i+1)& (0+255),f,b
  4858   001450                     l4297:
  4859                           
  4860                           ; BSR set to: 0
  4861   001450  5164               	movf	MensajeLCD_Var@i& (0+255),w,b
  4862   001452  2560               	addwf	MensajeLCD_Var@a& (0+255),w,b
  4863   001454  6F62               	movwf	??_MensajeLCD_Var& (0+255),b
  4864   001456  5165               	movf	(MensajeLCD_Var@i+1)& (0+255),w,b
  4865   001458  2161               	addwfc	(MensajeLCD_Var@a+1)& (0+255),w,b
  4866   00145A  6F63               	movwf	(??_MensajeLCD_Var+1)& (0+255),b
  4867   00145C  C062  FFF6         	movff	??_MensajeLCD_Var,tblptrl
  4868   001460  C063  FFF7         	movff	??_MensajeLCD_Var+1,tblptrh
  4869   001464                     	if	0	;tblptru may be non-zero
  4870   001464                     	endif
  4871   001464                     	if	0	;tblptru may be non-zero
  4872   001464                     	endif
  4873   001464  0008               	tblrd		*
  4874   001466  50F5               	movf	tablat,w,c
  4875   001468  0900               	iorlw	0
  4876   00146A  B4D8               	btfsc	status,2,c
  4877   00146C  0012               	return	
  4878   00146E  D7DF               	goto	l4293
  4879   001470                     __end_of_MensajeLCD_Var:
  4880                           	callstack 0
  4881                           
  4882 ;; *************** function _EscribeLCD_c *****************
  4883 ;; Defined at:
  4884 ;;		line 140 in file "LibLCDXC8.h"
  4885 ;; Parameters:    Size  Location     Type
  4886 ;;  a               1    wreg     unsigned char 
  4887 ;; Auto vars:     Size  Location     Type
  4888 ;;  a               1   35[COMRAM] unsigned char 
  4889 ;; Return value:  Size  Location     Type
  4890 ;;                  1    wreg      void 
  4891 ;; Registers used:
  4892 ;;		wreg, status,2, status,0, cstack
  4893 ;; Tracked objects:
  4894 ;;		On entry : 0/0
  4895 ;;		On exit  : 0/0
  4896 ;;		Unchanged: 0/0
  4897 ;; Data sizes:     COMRAM   BANK0   BANK1   BANK2   BANK3   BANK4   BANK5   BANK6   BANK7
  4898 ;;      Params:         0       0       0       0       0       0       0       0       0
  4899 ;;      Locals:         1       0       0       0       0       0       0       0       0
  4900 ;;      Temps:          0       0       0       0       0       0       0       0       0
  4901 ;;      Totals:         1       0       0       0       0       0       0       0       0
  4902 ;;Total ram usage:        1 bytes
  4903 ;; Hardware stack levels used: 1
  4904 ;; Hardware stack levels required when called: 10
  4905 ;; This function calls:
  4906 ;;		_EnviaDato
  4907 ;;		_HabilitaLCD
  4908 ;;		_RetardoLCD
  4909 ;; This function is called by:
  4910 ;;		_MensajeLCD_Var
  4911 ;;		_Bienvenida
  4912 ;;		_PreguntaAlUsuario
  4913 ;; This function uses a non-reentrant model
  4914 ;;
  4915                           
  4916                           	psect	text24
  4917   001786                     __ptext24:
  4918                           	callstack 0
  4919   001786                     _EscribeLCD_c:
  4920                           	callstack 18
  4921                           
  4922                           ; BSR set to: 0
  4923                           ;incstack = 0
  4924                           ;EscribeLCD_c@a stored from wreg
  4925   001786  6E24               	movwf	EscribeLCD_c@a^0,c
  4926                           
  4927                           ;LibLCDXC8.h: 144: LATA4=1;
  4928   001788  8889               	bsf	3977,4,c	;volatile
  4929                           
  4930                           ;LibLCDXC8.h: 145: EnviaDato(a);
  4931   00178A  5024               	movf	EscribeLCD_c@a^0,w,c
  4932   00178C  EC5D  F00A         	call	_EnviaDato
  4933                           
  4934                           ;LibLCDXC8.h: 146: HabilitaLCD();
  4935   001790  EC2A  F00C         	call	_HabilitaLCD	;wreg free
  4936                           
  4937                           ;LibLCDXC8.h: 147: RetardoLCD(4);
  4938   001794  0E04               	movlw	4
  4939   001796  EC43  F009         	call	_RetardoLCD
  4940   00179A  0012               	return		;funcret
  4941   00179C                     __end_of_EscribeLCD_c:
  4942                           	callstack 0
  4943                           
  4944 ;; *************** function _InicializaLCD *****************
  4945 ;; Defined at:
  4946 ;;		line 73 in file "LibLCDXC8.h"
  4947 ;; Parameters:    Size  Location     Type
  4948 ;;		None
  4949 ;; Auto vars:     Size  Location     Type
  4950 ;;		None
  4951 ;; Return value:  Size  Location     Type
  4952 ;;                  1    wreg      void 
  4953 ;; Registers used:
  4954 ;;		wreg, status,2, status,0, cstack
  4955 ;; Tracked objects:
  4956 ;;		On entry : 0/0
  4957 ;;		On exit  : 0/0
  4958 ;;		Unchanged: 0/0
  4959 ;; Data sizes:     COMRAM   BANK0   BANK1   BANK2   BANK3   BANK4   BANK5   BANK6   BANK7
  4960 ;;      Params:         0       0       0       0       0       0       0       0       0
  4961 ;;      Locals:         0       0       0       0       0       0       0       0       0
  4962 ;;      Temps:          0       0       0       0       0       0       0       0       0
  4963 ;;      Totals:         0       0       0       0       0       0       0       0       0
  4964 ;;Total ram usage:        0 bytes
  4965 ;; Hardware stack levels used: 1
  4966 ;; Hardware stack levels required when called: 11
  4967 ;; This function calls:
  4968 ;;		_BorraLCD
  4969 ;;		_EnviaDato
  4970 ;;		_HabilitaLCD
  4971 ;;		_RetardoLCD
  4972 ;; This function is called by:
  4973 ;;		_Bienvenida
  4974 ;; This function uses a non-reentrant model
  4975 ;;
  4976                           
  4977                           	psect	text25
  4978   000FD6                     __ptext25:
  4979                           	callstack 0
  4980   000FD6                     _InicializaLCD:
  4981                           	callstack 18
  4982                           
  4983                           ;LibLCDXC8.h: 75: LATA4=0;
  4984                           
  4985                           ;incstack = 0
  4986   000FD6  9889               	bcf	3977,4,c	;volatile
  4987                           
  4988                           ;LibLCDXC8.h: 76: if(interfaz==4)
  4989   000FD8  0E04               	movlw	4
  4990   000FDA  183F               	xorwf	_interfaz^0,w,c
  4991   000FDC  A4D8               	btfss	status,2,c
  4992   000FDE  D004               	goto	l4243
  4993                           
  4994                           ;LibLCDXC8.h: 77: LATD=(LATD & 0b00001111) | 0x30;
  4995   000FE0  508C               	movf	140,w,c	;volatile
  4996   000FE2  0B0F               	andlw	15
  4997   000FE4  0930               	iorlw	48
  4998   000FE6  D001               	goto	L10
  4999   000FE8                     l4243:
  5000                           
  5001                           ;LibLCDXC8.h: 78: else;LibLCDXC8.h: 79: LATD=0x3F;
  5002   000FE8  0E3F               	movlw	63
  5003   000FEA                     L10:
  5004   000FEA  6E8C               	movwf	140,c	;volatile
  5005                           
  5006                           ;LibLCDXC8.h: 80: HabilitaLCD();
  5007   000FEC  EC2A  F00C         	call	_HabilitaLCD	;wreg free
  5008                           
  5009                           ;LibLCDXC8.h: 81: RetardoLCD(1);
  5010   000FF0  0E01               	movlw	1
  5011   000FF2  EC43  F009         	call	_RetardoLCD
  5012                           
  5013                           ;LibLCDXC8.h: 82: if(interfaz==4)
  5014   000FF6  0E04               	movlw	4
  5015   000FF8  183F               	xorwf	_interfaz^0,w,c
  5016   000FFA  A4D8               	btfss	status,2,c
  5017   000FFC  D004               	goto	l4253
  5018                           
  5019                           ;LibLCDXC8.h: 83: LATD=(LATD & 0b00001111) | 0x30;
  5020   000FFE  508C               	movf	140,w,c	;volatile
  5021   001000  0B0F               	andlw	15
  5022   001002  0930               	iorlw	48
  5023   001004  D001               	goto	L11
  5024   001006                     l4253:
  5025                           
  5026                           ;LibLCDXC8.h: 84: else;LibLCDXC8.h: 85: LATD=0x3F;
  5027   001006  0E3F               	movlw	63
  5028   001008                     L11:
  5029   001008  6E8C               	movwf	140,c	;volatile
  5030                           
  5031                           ;LibLCDXC8.h: 86: HabilitaLCD();
  5032   00100A  EC2A  F00C         	call	_HabilitaLCD	;wreg free
  5033                           
  5034                           ;LibLCDXC8.h: 87: RetardoLCD(3);
  5035   00100E  0E03               	movlw	3
  5036   001010  EC43  F009         	call	_RetardoLCD
  5037                           
  5038                           ;LibLCDXC8.h: 88: if(interfaz==4)
  5039   001014  0E04               	movlw	4
  5040   001016  183F               	xorwf	_interfaz^0,w,c
  5041   001018  A4D8               	btfss	status,2,c
  5042   00101A  D004               	goto	l4263
  5043                           
  5044                           ;LibLCDXC8.h: 89: LATD=(LATD & 0b00001111) | 0x30;
  5045   00101C  508C               	movf	140,w,c	;volatile
  5046   00101E  0B0F               	andlw	15
  5047   001020  0930               	iorlw	48
  5048   001022  D001               	goto	L12
  5049   001024                     l4263:
  5050                           
  5051                           ;LibLCDXC8.h: 90: else;LibLCDXC8.h: 91: LATD=0x3F;
  5052   001024  0E3F               	movlw	63
  5053   001026                     L12:
  5054   001026  6E8C               	movwf	140,c	;volatile
  5055                           
  5056                           ;LibLCDXC8.h: 92: HabilitaLCD();
  5057   001028  EC2A  F00C         	call	_HabilitaLCD	;wreg free
  5058                           
  5059                           ;LibLCDXC8.h: 93: RetardoLCD(4);
  5060   00102C  0E04               	movlw	4
  5061   00102E  EC43  F009         	call	_RetardoLCD
  5062                           
  5063                           ;LibLCDXC8.h: 94: if(interfaz==4){
  5064   001032  0E04               	movlw	4
  5065   001034  183F               	xorwf	_interfaz^0,w,c
  5066   001036  A4D8               	btfss	status,2,c
  5067   001038  D011               	goto	l4283
  5068                           
  5069                           ;LibLCDXC8.h: 95: LATD=(LATD & 0b00001111) | 0x20;
  5070   00103A  508C               	movf	140,w,c	;volatile
  5071   00103C  0B0F               	andlw	15
  5072   00103E  0920               	iorlw	32
  5073   001040  6E8C               	movwf	140,c	;volatile
  5074                           
  5075                           ;LibLCDXC8.h: 96: HabilitaLCD();
  5076   001042  EC2A  F00C         	call	_HabilitaLCD	;wreg free
  5077                           
  5078                           ;LibLCDXC8.h: 97: RetardoLCD(4);
  5079   001046  0E04               	movlw	4
  5080   001048  EC43  F009         	call	_RetardoLCD
  5081                           
  5082                           ;LibLCDXC8.h: 98: EnviaDato(0x2F);
  5083   00104C  0E2F               	movlw	47
  5084   00104E  EC5D  F00A         	call	_EnviaDato
  5085                           
  5086                           ;LibLCDXC8.h: 99: HabilitaLCD();
  5087   001052  EC2A  F00C         	call	_HabilitaLCD	;wreg free
  5088                           
  5089                           ;LibLCDXC8.h: 100: RetardoLCD(4);
  5090   001056  0E04               	movlw	4
  5091   001058  EC43  F009         	call	_RetardoLCD
  5092   00105C                     l4283:
  5093                           
  5094                           ;LibLCDXC8.h: 101: };LibLCDXC8.h: 102: BorraLCD();
  5095   00105C  ECEF  F00B         	call	_BorraLCD	;wreg free
  5096                           
  5097                           ;LibLCDXC8.h: 103: EnviaDato(0xF);
  5098   001060  0E0F               	movlw	15
  5099   001062  EC5D  F00A         	call	_EnviaDato
  5100                           
  5101                           ;LibLCDXC8.h: 104: HabilitaLCD();
  5102   001066  EC2A  F00C         	call	_HabilitaLCD	;wreg free
  5103                           
  5104                           ;LibLCDXC8.h: 105: RetardoLCD(4);
  5105   00106A  0E04               	movlw	4
  5106   00106C  EC43  F009         	call	_RetardoLCD
  5107   001070  0012               	return		;funcret
  5108   001072                     __end_of_InicializaLCD:
  5109                           	callstack 0
  5110                           
  5111 ;; *************** function _BorraLCD *****************
  5112 ;; Defined at:
  5113 ;;		line 114 in file "LibLCDXC8.h"
  5114 ;; Parameters:    Size  Location     Type
  5115 ;;		None
  5116 ;; Auto vars:     Size  Location     Type
  5117 ;;		None
  5118 ;; Return value:  Size  Location     Type
  5119 ;;                  1    wreg      void 
  5120 ;; Registers used:
  5121 ;;		wreg, status,2, status,0, cstack
  5122 ;; Tracked objects:
  5123 ;;		On entry : 0/0
  5124 ;;		On exit  : 0/0
  5125 ;;		Unchanged: 0/0
  5126 ;; Data sizes:     COMRAM   BANK0   BANK1   BANK2   BANK3   BANK4   BANK5   BANK6   BANK7
  5127 ;;      Params:         0       0       0       0       0       0       0       0       0
  5128 ;;      Locals:         0       0       0       0       0       0       0       0       0
  5129 ;;      Temps:          0       0       0       0       0       0       0       0       0
  5130 ;;      Totals:         0       0       0       0       0       0       0       0       0
  5131 ;;Total ram usage:        0 bytes
  5132 ;; Hardware stack levels used: 1
  5133 ;; Hardware stack levels required when called: 10
  5134 ;; This function calls:
  5135 ;;		_EnviaDato
  5136 ;;		_HabilitaLCD
  5137 ;;		_RetardoLCD
  5138 ;; This function is called by:
  5139 ;;		_InicializaLCD
  5140 ;;		_ComandoLCD
  5141 ;;		_main
  5142 ;;		_PreguntaAlUsuario
  5143 ;; This function uses a non-reentrant model
  5144 ;;
  5145                           
  5146                           	psect	text26
  5147   0017DE                     __ptext26:
  5148                           	callstack 0
  5149   0017DE                     _BorraLCD:
  5150                           	callstack 17
  5151                           
  5152                           ;LibLCDXC8.h: 116: LATA4=0;
  5153                           
  5154                           ;incstack = 0
  5155   0017DE  9889               	bcf	3977,4,c	;volatile
  5156                           
  5157                           ;LibLCDXC8.h: 117: EnviaDato(0x01);
  5158   0017E0  0E01               	movlw	1
  5159   0017E2  EC5D  F00A         	call	_EnviaDato
  5160                           
  5161                           ;LibLCDXC8.h: 118: HabilitaLCD();
  5162   0017E6  EC2A  F00C         	call	_HabilitaLCD	;wreg free
  5163                           
  5164                           ;LibLCDXC8.h: 119: RetardoLCD(2);
  5165   0017EA  0E02               	movlw	2
  5166   0017EC  EC43  F009         	call	_RetardoLCD
  5167   0017F0  0012               	return		;funcret
  5168   0017F2                     __end_of_BorraLCD:
  5169                           	callstack 0
  5170                           
  5171 ;; *************** function _DesplazaPantallaD *****************
  5172 ;; Defined at:
  5173 ;;		line 262 in file "LibLCDXC8.h"
  5174 ;; Parameters:    Size  Location     Type
  5175 ;;		None
  5176 ;; Auto vars:     Size  Location     Type
  5177 ;;		None
  5178 ;; Return value:  Size  Location     Type
  5179 ;;                  1    wreg      void 
  5180 ;; Registers used:
  5181 ;;		wreg, status,2, status,0, cstack
  5182 ;; Tracked objects:
  5183 ;;		On entry : 0/0
  5184 ;;		On exit  : 0/0
  5185 ;;		Unchanged: 0/0
  5186 ;; Data sizes:     COMRAM   BANK0   BANK1   BANK2   BANK3   BANK4   BANK5   BANK6   BANK7
  5187 ;;      Params:         0       0       0       0       0       0       0       0       0
  5188 ;;      Locals:         0       0       0       0       0       0       0       0       0
  5189 ;;      Temps:          0       0       0       0       0       0       0       0       0
  5190 ;;      Totals:         0       0       0       0       0       0       0       0       0
  5191 ;;Total ram usage:        0 bytes
  5192 ;; Hardware stack levels used: 1
  5193 ;; Hardware stack levels required when called: 10
  5194 ;; This function calls:
  5195 ;;		_EnviaDato
  5196 ;;		_HabilitaLCD
  5197 ;;		_RetardoLCD
  5198 ;; This function is called by:
  5199 ;;		_Bienvenida
  5200 ;; This function uses a non-reentrant model
  5201 ;;
  5202                           
  5203                           	psect	text27
  5204   0017F2                     __ptext27:
  5205                           	callstack 0
  5206   0017F2                     _DesplazaPantallaD:
  5207                           	callstack 19
  5208                           
  5209                           ;LibLCDXC8.h: 264: LATA4=0;
  5210                           
  5211                           ;incstack = 0
  5212   0017F2  9889               	bcf	3977,4,c	;volatile
  5213                           
  5214                           ;LibLCDXC8.h: 265: EnviaDato(28);
  5215   0017F4  0E1C               	movlw	28
  5216   0017F6  EC5D  F00A         	call	_EnviaDato
  5217                           
  5218                           ;LibLCDXC8.h: 266: HabilitaLCD();
  5219   0017FA  EC2A  F00C         	call	_HabilitaLCD	;wreg free
  5220                           
  5221                           ;LibLCDXC8.h: 267: RetardoLCD(4);
  5222   0017FE  0E04               	movlw	4
  5223   001800  EC43  F009         	call	_RetardoLCD
  5224   001804  0012               	return		;funcret
  5225   001806                     __end_of_DesplazaPantallaD:
  5226                           	callstack 0
  5227                           
  5228 ;; *************** function _CrearCaracter *****************
  5229 ;; Defined at:
  5230 ;;		line 309 in file "LibLCDXC8.h"
  5231 ;; Parameters:    Size  Location     Type
  5232 ;;  arreglo         1    0[BANK0 ] PTR unsigned char 
  5233 ;;		 -> RayaAlPiso(8), Corazon(8), 
  5234 ;;  posicionCGRA    1    1[BANK0 ] unsigned char 
  5235 ;; Auto vars:     Size  Location     Type
  5236 ;;  i               2    2[BANK0 ] int 
  5237 ;; Return value:  Size  Location     Type
  5238 ;;                  1    wreg      void 
  5239 ;; Registers used:
  5240 ;;		wreg, fsr2l, fsr2h, status,2, status,0, prodl, prodh, cstack
  5241 ;; Tracked objects:
  5242 ;;		On entry : 3F/0
  5243 ;;		On exit  : 0/0
  5244 ;;		Unchanged: 0/0
  5245 ;; Data sizes:     COMRAM   BANK0   BANK1   BANK2   BANK3   BANK4   BANK5   BANK6   BANK7
  5246 ;;      Params:         0       2       0       0       0       0       0       0       0
  5247 ;;      Locals:         0       2       0       0       0       0       0       0       0
  5248 ;;      Temps:          0       0       0       0       0       0       0       0       0
  5249 ;;      Totals:         0       4       0       0       0       0       0       0       0
  5250 ;;Total ram usage:        4 bytes
  5251 ;; Hardware stack levels used: 1
  5252 ;; Hardware stack levels required when called: 11
  5253 ;; This function calls:
  5254 ;;		_DireccionaLCD
  5255 ;;		_EnviaDato
  5256 ;;		_HabilitaLCD
  5257 ;;		_RetardoLCD
  5258 ;; This function is called by:
  5259 ;;		_Bienvenida
  5260 ;;		_PreguntaAlUsuario
  5261 ;; This function uses a non-reentrant model
  5262 ;;
  5263                           
  5264                           	psect	text28
  5265   001176                     __ptext28:
  5266                           	callstack 0
  5267   001176                     _CrearCaracter:
  5268                           	callstack 18
  5269                           
  5270                           ; BSR set to: 0
  5271                           ;LibLCDXC8.h: 310: LATA4=0;
  5272                           
  5273                           ;incstack = 0
  5274   001176  9889               	bcf	3977,4,c	;volatile
  5275                           
  5276                           ; BSR set to: 0
  5277                           ;LibLCDXC8.h: 311: EnviaDato(0x40|(posicionCGRAM*8));
  5278   001178  5161               	movf	CrearCaracter@posicionCGRAM& (0+255),w,b
  5279   00117A  0D08               	mullw	8
  5280   00117C  50F3               	movf	243,w,c
  5281   00117E  0940               	iorlw	64
  5282   001180  EC5D  F00A         	call	_EnviaDato
  5283                           
  5284                           ;LibLCDXC8.h: 312: HabilitaLCD();
  5285   001184  EC2A  F00C         	call	_HabilitaLCD	;wreg free
  5286                           
  5287                           ;LibLCDXC8.h: 313: RetardoLCD(4);
  5288   001188  0E04               	movlw	4
  5289   00118A  EC43  F009         	call	_RetardoLCD
  5290                           
  5291                           ;LibLCDXC8.h: 314: LATA4=1;
  5292   00118E  8889               	bsf	3977,4,c	;volatile
  5293                           
  5294                           ;LibLCDXC8.h: 315: RetardoLCD(2);
  5295   001190  0E02               	movlw	2
  5296   001192  EC43  F009         	call	_RetardoLCD
  5297                           
  5298                           ;LibLCDXC8.h: 316: for (int i=0;i<8;i++){
  5299   001196  0E00               	movlw	0
  5300   001198  0100               	movlb	0	; () banked
  5301   00119A  6F63               	movwf	(CrearCaracter@i+1)& (0+255),b
  5302   00119C  0E00               	movlw	0
  5303   00119E  6F62               	movwf	CrearCaracter@i& (0+255),b
  5304   0011A0                     l4325:
  5305                           
  5306                           ; BSR set to: 0
  5307                           ;LibLCDXC8.h: 317: EnviaDato(arreglo[i]);
  5308   0011A0  5160               	movf	CrearCaracter@arreglo& (0+255),w,b
  5309   0011A2  2562               	addwf	CrearCaracter@i& (0+255),w,b
  5310   0011A4  6ED9               	movwf	fsr2l,c
  5311   0011A6  6ADA               	clrf	fsr2h,c
  5312   0011A8  50DF               	movf	indf2,w,c
  5313   0011AA  EC5D  F00A         	call	_EnviaDato
  5314                           
  5315                           ;LibLCDXC8.h: 318: HabilitaLCD();
  5316   0011AE  EC2A  F00C         	call	_HabilitaLCD	;wreg free
  5317                           
  5318                           ;LibLCDXC8.h: 319: RetardoLCD(4);
  5319   0011B2  0E04               	movlw	4
  5320   0011B4  EC43  F009         	call	_RetardoLCD
  5321   0011B8  0100               	movlb	0	; () banked
  5322   0011BA  4B62               	infsnz	CrearCaracter@i& (0+255),f,b
  5323   0011BC  2B63               	incf	(CrearCaracter@i+1)& (0+255),f,b
  5324                           
  5325                           ; BSR set to: 0
  5326   0011BE  BF63               	btfsc	(CrearCaracter@i+1)& (0+255),7,b
  5327   0011C0  D7EF               	goto	l4325
  5328   0011C2  5163               	movf	(CrearCaracter@i+1)& (0+255),w,b
  5329   0011C4  E104               	bnz	u3510
  5330   0011C6  0E08               	movlw	8
  5331   0011C8  5D62               	subwf	CrearCaracter@i& (0+255),w,b
  5332   0011CA  A0D8               	btfss	status,0,c
  5333   0011CC  D7E9               	goto	l4325
  5334   0011CE                     u3510:
  5335                           
  5336                           ; BSR set to: 0
  5337                           ;LibLCDXC8.h: 320: };LibLCDXC8.h: 321: DireccionaLCD(0x80);
  5338   0011CE  0E80               	movlw	128
  5339   0011D0  ECCE  F00B         	call	_DireccionaLCD
  5340   0011D4  0012               	return		;funcret
  5341   0011D6                     __end_of_CrearCaracter:
  5342                           	callstack 0
  5343                           
  5344 ;; *************** function _DireccionaLCD *****************
  5345 ;; Defined at:
  5346 ;;		line 245 in file "LibLCDXC8.h"
  5347 ;; Parameters:    Size  Location     Type
  5348 ;;  a               1    wreg     unsigned char 
  5349 ;; Auto vars:     Size  Location     Type
  5350 ;;  a               1   35[COMRAM] unsigned char 
  5351 ;; Return value:  Size  Location     Type
  5352 ;;                  1    wreg      void 
  5353 ;; Registers used:
  5354 ;;		wreg, status,2, status,0, cstack
  5355 ;; Tracked objects:
  5356 ;;		On entry : 0/0
  5357 ;;		On exit  : 0/0
  5358 ;;		Unchanged: 0/0
  5359 ;; Data sizes:     COMRAM   BANK0   BANK1   BANK2   BANK3   BANK4   BANK5   BANK6   BANK7
  5360 ;;      Params:         0       0       0       0       0       0       0       0       0
  5361 ;;      Locals:         1       0       0       0       0       0       0       0       0
  5362 ;;      Temps:          0       0       0       0       0       0       0       0       0
  5363 ;;      Totals:         1       0       0       0       0       0       0       0       0
  5364 ;;Total ram usage:        1 bytes
  5365 ;; Hardware stack levels used: 1
  5366 ;; Hardware stack levels required when called: 10
  5367 ;; This function calls:
  5368 ;;		_EnviaDato
  5369 ;;		_HabilitaLCD
  5370 ;;		_RetardoLCD
  5371 ;; This function is called by:
  5372 ;;		_CursorAInicio
  5373 ;;		_CrearCaracter
  5374 ;;		_main
  5375 ;;		_Bienvenida
  5376 ;;		_PreguntaAlUsuario
  5377 ;; This function uses a non-reentrant model
  5378 ;;
  5379                           
  5380                           	psect	text29
  5381   00179C                     __ptext29:
  5382                           	callstack 0
  5383   00179C                     _DireccionaLCD:
  5384                           	callstack 16
  5385                           
  5386                           ;incstack = 0
  5387                           ;DireccionaLCD@a stored from wreg
  5388   00179C  6E24               	movwf	DireccionaLCD@a^0,c
  5389                           
  5390                           ;LibLCDXC8.h: 248: LATA4=0;
  5391   00179E  9889               	bcf	3977,4,c	;volatile
  5392                           
  5393                           ;LibLCDXC8.h: 249: EnviaDato(a);
  5394   0017A0  5024               	movf	DireccionaLCD@a^0,w,c
  5395   0017A2  EC5D  F00A         	call	_EnviaDato
  5396                           
  5397                           ;LibLCDXC8.h: 250: HabilitaLCD();
  5398   0017A6  EC2A  F00C         	call	_HabilitaLCD	;wreg free
  5399                           
  5400                           ;LibLCDXC8.h: 251: RetardoLCD(4);
  5401   0017AA  0E04               	movlw	4
  5402   0017AC  EC43  F009         	call	_RetardoLCD
  5403   0017B0  0012               	return		;funcret
  5404   0017B2                     __end_of_DireccionaLCD:
  5405                           	callstack 0
  5406                           
  5407 ;; *************** function _EnviaDato *****************
  5408 ;; Defined at:
  5409 ;;		line 61 in file "LibLCDXC8.h"
  5410 ;; Parameters:    Size  Location     Type
  5411 ;;  a               1    wreg     unsigned char 
  5412 ;; Auto vars:     Size  Location     Type
  5413 ;;  a               1   34[COMRAM] unsigned char 
  5414 ;; Return value:  Size  Location     Type
  5415 ;;                  1    wreg      void 
  5416 ;; Registers used:
  5417 ;;		wreg, status,2, status,0, cstack
  5418 ;; Tracked objects:
  5419 ;;		On entry : 0/0
  5420 ;;		On exit  : 0/0
  5421 ;;		Unchanged: 0/0
  5422 ;; Data sizes:     COMRAM   BANK0   BANK1   BANK2   BANK3   BANK4   BANK5   BANK6   BANK7
  5423 ;;      Params:         0       0       0       0       0       0       0       0       0
  5424 ;;      Locals:         1       0       0       0       0       0       0       0       0
  5425 ;;      Temps:          1       0       0       0       0       0       0       0       0
  5426 ;;      Totals:         2       0       0       0       0       0       0       0       0
  5427 ;;Total ram usage:        2 bytes
  5428 ;; Hardware stack levels used: 1
  5429 ;; Hardware stack levels required when called: 9
  5430 ;; This function calls:
  5431 ;;		_HabilitaLCD
  5432 ;;		_RetardoLCD
  5433 ;; This function is called by:
  5434 ;;		_InicializaLCD
  5435 ;;		_BorraLCD
  5436 ;;		_ComandoLCD
  5437 ;;		_EscribeLCD_c
  5438 ;;		_EscribeLCD_n8
  5439 ;;		_DireccionaLCD
  5440 ;;		_DesplazaPantallaD
  5441 ;;		_CrearCaracter
  5442 ;; This function uses a non-reentrant model
  5443 ;;
  5444                           
  5445                           	psect	text30
  5446   0014BA                     __ptext30:
  5447                           	callstack 0
  5448   0014BA                     _EnviaDato:
  5449                           	callstack 18
  5450                           
  5451                           ;incstack = 0
  5452                           ;EnviaDato@a stored from wreg
  5453   0014BA  6E23               	movwf	EnviaDato@a^0,c
  5454                           
  5455                           ;LibLCDXC8.h: 62: if(interfaz==4){
  5456   0014BC  0E04               	movlw	4
  5457   0014BE  183F               	xorwf	_interfaz^0,w,c
  5458   0014C0  A4D8               	btfss	status,2,c
  5459   0014C2  D017               	goto	l4187
  5460                           
  5461                           ;LibLCDXC8.h: 63: LATD=(LATD & 0b00001111) | (a & 0b11110000);
  5462   0014C4  C023  F022         	movff	EnviaDato@a,??_EnviaDato
  5463   0014C8  0EF0               	movlw	240
  5464   0014CA  1622               	andwf	??_EnviaDato^0,f,c
  5465   0014CC  508C               	movf	140,w,c	;volatile
  5466   0014CE  0B0F               	andlw	15
  5467   0014D0  1022               	iorwf	??_EnviaDato^0,w,c
  5468   0014D2  6E8C               	movwf	140,c	;volatile
  5469                           
  5470                           ;LibLCDXC8.h: 64: HabilitaLCD();
  5471   0014D4  EC2A  F00C         	call	_HabilitaLCD	;wreg free
  5472                           
  5473                           ;LibLCDXC8.h: 65: RetardoLCD(1);
  5474   0014D8  0E01               	movlw	1
  5475   0014DA  EC43  F009         	call	_RetardoLCD
  5476                           
  5477                           ;LibLCDXC8.h: 66: LATD=(LATD & 0b00001111) | (a<<4);
  5478   0014DE  C023  F022         	movff	EnviaDato@a,??_EnviaDato
  5479   0014E2  3A22               	swapf	??_EnviaDato^0,f,c
  5480   0014E4  0EF0               	movlw	240
  5481   0014E6  1622               	andwf	??_EnviaDato^0,f,c
  5482   0014E8  508C               	movf	140,w,c	;volatile
  5483   0014EA  0B0F               	andlw	15
  5484   0014EC  1022               	iorwf	??_EnviaDato^0,w,c
  5485   0014EE  6E8C               	movwf	140,c	;volatile
  5486                           
  5487                           ;LibLCDXC8.h: 69: }else if(interfaz==8){
  5488   0014F0  0012               	return	
  5489   0014F2                     l4187:
  5490   0014F2  0E08               	movlw	8
  5491   0014F4  183F               	xorwf	_interfaz^0,w,c
  5492   0014F6  A4D8               	btfss	status,2,c
  5493   0014F8  0012               	return	
  5494                           
  5495                           ;LibLCDXC8.h: 70: LATD=a;
  5496   0014FA  C023  FF8C         	movff	EnviaDato@a,3980	;volatile
  5497   0014FE  0012               	return		;funcret
  5498   001500                     __end_of_EnviaDato:
  5499                           	callstack 0
  5500                           
  5501 ;; *************** function _RetardoLCD *****************
  5502 ;; Defined at:
  5503 ;;		line 290 in file "LibLCDXC8.h"
  5504 ;; Parameters:    Size  Location     Type
  5505 ;;  a               1    wreg     unsigned char 
  5506 ;; Auto vars:     Size  Location     Type
  5507 ;;  a               1   32[COMRAM] unsigned char 
  5508 ;; Return value:  Size  Location     Type
  5509 ;;                  1    wreg      void 
  5510 ;; Registers used:
  5511 ;;		wreg, status,2, status,0
  5512 ;; Tracked objects:
  5513 ;;		On entry : 0/0
  5514 ;;		On exit  : 0/0
  5515 ;;		Unchanged: 0/0
  5516 ;; Data sizes:     COMRAM   BANK0   BANK1   BANK2   BANK3   BANK4   BANK5   BANK6   BANK7
  5517 ;;      Params:         0       0       0       0       0       0       0       0       0
  5518 ;;      Locals:         1       0       0       0       0       0       0       0       0
  5519 ;;      Temps:          1       0       0       0       0       0       0       0       0
  5520 ;;      Totals:         2       0       0       0       0       0       0       0       0
  5521 ;;Total ram usage:        2 bytes
  5522 ;; Hardware stack levels used: 1
  5523 ;; Hardware stack levels required when called: 8
  5524 ;; This function calls:
  5525 ;;		Nothing
  5526 ;; This function is called by:
  5527 ;;		_EnviaDato
  5528 ;;		_InicializaLCD
  5529 ;;		_BorraLCD
  5530 ;;		_ComandoLCD
  5531 ;;		_EscribeLCD_c
  5532 ;;		_EscribeLCD_n8
  5533 ;;		_DireccionaLCD
  5534 ;;		_DesplazaPantallaD
  5535 ;;		_CrearCaracter
  5536 ;; This function uses a non-reentrant model
  5537 ;;
  5538                           
  5539                           	psect	text31
  5540   001286                     __ptext31:
  5541                           	callstack 0
  5542   001286                     _RetardoLCD:
  5543                           	callstack 19
  5544                           
  5545                           ;incstack = 0
  5546                           ;RetardoLCD@a stored from wreg
  5547   001286  6E21               	movwf	RetardoLCD@a^0,c
  5548                           
  5549                           ;LibLCDXC8.h: 291: switch(a){
  5550   001288  D01B               	goto	l4175
  5551   00128A                     l4165:
  5552   00128A  0E05               	movlw	5
  5553   00128C  6E20               	movwf	??_RetardoLCD^0,c
  5554   00128E  0EDE               	movlw	222
  5555   001290                     u4467:
  5556   001290  2EE8               	decfsz	wreg,f,c
  5557   001292  D7FE               	bra	u4467
  5558   001294  2E20               	decfsz	??_RetardoLCD^0,f,c
  5559   001296  D7FC               	bra	u4467
  5560                           
  5561                           ;LibLCDXC8.h: 294: break;
  5562   001298  0012               	return	
  5563   00129A                     l4167:
  5564   00129A  0E53               	movlw	83
  5565   00129C                     u4477:
  5566   00129C  2EE8               	decfsz	wreg,f,c
  5567   00129E  D7FE               	bra	u4477
  5568   0012A0  0000               	nop	
  5569                           
  5570                           ;LibLCDXC8.h: 296: _delay((unsigned long)((640)*(1000000/4000000.0)));
  5571   0012A2  0E35               	movlw	53
  5572   0012A4                     u4487:
  5573   0012A4  2EE8               	decfsz	wreg,f,c
  5574   0012A6  D7FE               	bra	u4487
  5575   0012A8  0000               	nop	
  5576                           
  5577                           ;LibLCDXC8.h: 298: break;
  5578   0012AA  0012               	return	
  5579   0012AC                     l4169:
  5580   0012AC  0E08               	movlw	8
  5581   0012AE                     u4497:
  5582   0012AE  2EE8               	decfsz	wreg,f,c
  5583   0012B0  D7FE               	bra	u4497
  5584   0012B2  0000               	nop	
  5585                           
  5586                           ;LibLCDXC8.h: 301: break;
  5587   0012B4  0012               	return	
  5588   0012B6                     l4171:
  5589   0012B6  0E03               	movlw	3
  5590   0012B8                     u4507:
  5591   0012B8  2EE8               	decfsz	wreg,f,c
  5592   0012BA  D7FE               	bra	u4507
  5593   0012BC  0000               	nop	
  5594                           
  5595                           ;LibLCDXC8.h: 304: break;
  5596   0012BE  0012               	return	
  5597   0012C0                     l4175:
  5598   0012C0  5021               	movf	RetardoLCD@a^0,w,c
  5599                           
  5600                           ; Switch size 1, requested type "simple"
  5601                           ; Number of cases is 4, Range of values is 1 to 4
  5602                           ; switch strategies available:
  5603                           ; Name         Instructions Cycles
  5604                           ; simple_byte           13     7 (average)
  5605                           ;	Chosen strategy is simple_byte
  5606   0012C2  0A01               	xorlw	1	; case 1
  5607   0012C4  B4D8               	btfsc	status,2,c
  5608   0012C6  D7E1               	goto	l4165
  5609   0012C8  0A03               	xorlw	3	; case 2
  5610   0012CA  B4D8               	btfsc	status,2,c
  5611   0012CC  D7E6               	goto	l4167
  5612   0012CE  0A01               	xorlw	1	; case 3
  5613   0012D0  B4D8               	btfsc	status,2,c
  5614   0012D2  D7EC               	goto	l4169
  5615   0012D4  0A07               	xorlw	7	; case 4
  5616   0012D6  A4D8               	btfss	status,2,c
  5617   0012D8  0012               	return	
  5618   0012DA  D7ED               	goto	l4171
  5619   0012DC                     __end_of_RetardoLCD:
  5620                           	callstack 0
  5621                           
  5622 ;; *************** function _HabilitaLCD *****************
  5623 ;; Defined at:
  5624 ;;		line 107 in file "LibLCDXC8.h"
  5625 ;; Parameters:    Size  Location     Type
  5626 ;;		None
  5627 ;; Auto vars:     Size  Location     Type
  5628 ;;		None
  5629 ;; Return value:  Size  Location     Type
  5630 ;;                  1    wreg      void 
  5631 ;; Registers used:
  5632 ;;		wreg
  5633 ;; Tracked objects:
  5634 ;;		On entry : 0/0
  5635 ;;		On exit  : 0/0
  5636 ;;		Unchanged: 0/0
  5637 ;; Data sizes:     COMRAM   BANK0   BANK1   BANK2   BANK3   BANK4   BANK5   BANK6   BANK7
  5638 ;;      Params:         0       0       0       0       0       0       0       0       0
  5639 ;;      Locals:         0       0       0       0       0       0       0       0       0
  5640 ;;      Temps:          0       0       0       0       0       0       0       0       0
  5641 ;;      Totals:         0       0       0       0       0       0       0       0       0
  5642 ;;Total ram usage:        0 bytes
  5643 ;; Hardware stack levels used: 1
  5644 ;; Hardware stack levels required when called: 8
  5645 ;; This function calls:
  5646 ;;		Nothing
  5647 ;; This function is called by:
  5648 ;;		_EnviaDato
  5649 ;;		_InicializaLCD
  5650 ;;		_BorraLCD
  5651 ;;		_ComandoLCD
  5652 ;;		_EscribeLCD_c
  5653 ;;		_EscribeLCD_n8
  5654 ;;		_DireccionaLCD
  5655 ;;		_DesplazaPantallaD
  5656 ;;		_CrearCaracter
  5657 ;; This function uses a non-reentrant model
  5658 ;;
  5659                           
  5660                           	psect	text32
  5661   001854                     __ptext32:
  5662                           	callstack 0
  5663   001854                     _HabilitaLCD:
  5664                           	callstack 19
  5665                           
  5666                           ;LibLCDXC8.h: 109: LATA5=1;
  5667                           
  5668                           ;incstack = 0
  5669   001854  8A89               	bsf	3977,5,c	;volatile
  5670                           
  5671                           ;LibLCDXC8.h: 110: _delay((unsigned long)((40)*(1000000/4000000.0)));
  5672   001856  0E03               	movlw	3
  5673   001858                     u4517:
  5674   001858  2EE8               	decfsz	wreg,f,c
  5675   00185A  D7FE               	bra	u4517
  5676   00185C  0000               	nop	
  5677                           
  5678                           ;LibLCDXC8.h: 112: LATA5=0;
  5679   00185E  9A89               	bcf	3977,5,c	;volatile
  5680   001860  0012               	return		;funcret
  5681   001862                     __end_of_HabilitaLCD:
  5682                           	callstack 0
  5683                           
  5684 ;; *************** function _ConfiguraLCD *****************
  5685 ;; Defined at:
  5686 ;;		line 57 in file "LibLCDXC8.h"
  5687 ;; Parameters:    Size  Location     Type
  5688 ;;  a               1    wreg     unsigned char 
  5689 ;; Auto vars:     Size  Location     Type
  5690 ;;  a               1   31[COMRAM] unsigned char 
  5691 ;; Return value:  Size  Location     Type
  5692 ;;                  1    wreg      void 
  5693 ;; Registers used:
  5694 ;;		wreg, status,2, status,0
  5695 ;; Tracked objects:
  5696 ;;		On entry : 0/0
  5697 ;;		On exit  : 0/0
  5698 ;;		Unchanged: 0/0
  5699 ;; Data sizes:     COMRAM   BANK0   BANK1   BANK2   BANK3   BANK4   BANK5   BANK6   BANK7
  5700 ;;      Params:         0       0       0       0       0       0       0       0       0
  5701 ;;      Locals:         1       0       0       0       0       0       0       0       0
  5702 ;;      Temps:          0       0       0       0       0       0       0       0       0
  5703 ;;      Totals:         1       0       0       0       0       0       0       0       0
  5704 ;;Total ram usage:        1 bytes
  5705 ;; Hardware stack levels used: 1
  5706 ;; Hardware stack levels required when called: 8
  5707 ;; This function calls:
  5708 ;;		Nothing
  5709 ;; This function is called by:
  5710 ;;		_Bienvenida
  5711 ;; This function uses a non-reentrant model
  5712 ;;
  5713                           
  5714                           	psect	text33
  5715   00176E                     __ptext33:
  5716                           	callstack 0
  5717   00176E                     _ConfiguraLCD:
  5718                           	callstack 21
  5719                           
  5720                           ;incstack = 0
  5721                           ;ConfiguraLCD@a stored from wreg
  5722   00176E  6E20               	movwf	ConfiguraLCD@a^0,c
  5723                           
  5724                           ;LibLCDXC8.h: 58: if(a==4 | a ==8)
  5725   001770  0E04               	movlw	4
  5726   001772  1820               	xorwf	ConfiguraLCD@a^0,w,c
  5727   001774  B4D8               	btfsc	status,2,c
  5728   001776  D004               	goto	u3450
  5729   001778  0E08               	movlw	8
  5730   00177A  1820               	xorwf	ConfiguraLCD@a^0,w,c
  5731   00177C  A4D8               	btfss	status,2,c
  5732   00177E  0012               	return	
  5733   001780                     u3450:
  5734                           
  5735                           ;LibLCDXC8.h: 59: interfaz=a;
  5736   001780  C020  F03F         	movff	ConfiguraLCD@a,_interfaz
  5737   001784  0012               	return		;funcret
  5738   001786                     __end_of_ConfiguraLCD:
  5739                           	callstack 0
  5740                           
  5741 ;; *************** function _ISR *****************
  5742 ;; Defined at:
  5743 ;;		line 442 in file "Lab6.c"
  5744 ;; Parameters:    Size  Location     Type
  5745 ;;		None
  5746 ;; Auto vars:     Size  Location     Type
  5747 ;;  calculo_temp    4   25[COMRAM] unsigned long 
  5748 ;;  captura_raw     2   29[COMRAM] unsigned int 
  5749 ;; Return value:  Size  Location     Type
  5750 ;;                  1    wreg      void 
  5751 ;; Registers used:
  5752 ;;		wreg, status,2, status,0, tblptrl, tblptrh, tblptru, prodl, prodh, cstack
  5753 ;; Tracked objects:
  5754 ;;		On entry : 0/0
  5755 ;;		On exit  : 0/0
  5756 ;;		Unchanged: 0/0
  5757 ;; Data sizes:     COMRAM   BANK0   BANK1   BANK2   BANK3   BANK4   BANK5   BANK6   BANK7
  5758 ;;      Params:         0       0       0       0       0       0       0       0       0
  5759 ;;      Locals:         6       0       0       0       0       0       0       0       0
  5760 ;;      Temps:         10       0       0       0       0       0       0       0       0
  5761 ;;      Totals:        16       0       0       0       0       0       0       0       0
  5762 ;;Total ram usage:       16 bytes
  5763 ;; Hardware stack levels used: 1
  5764 ;; Hardware stack levels required when called: 7
  5765 ;; This function calls:
  5766 ;;		_Borrar
  5767 ;;		_ConfigPregunta
  5768 ;;		i2_BorraLCD
  5769 ;;		i2_ConfigurarPWM
  5770 ;;		i2_DireccionaLCD
  5771 ;;		i2_EscribeLCD_n8
  5772 ;;		i2_GuardarEEPROM
  5773 ;;		i2_MensajeLCD_Var
  5774 ;;		i2_OcultarCursor
  5775 ;;		i2___lldiv
  5776 ;;		i2___lwdiv
  5777 ;; This function is called by:
  5778 ;;		Interrupt level 2
  5779 ;; This function uses a non-reentrant model
  5780 ;;
  5781                           
  5782                           	psect	intcode
  5783   000008                     __pintcode:
  5784                           	callstack 0
  5785   000008                     _ISR:
  5786                           	callstack 16
  5787                           
  5788                           ;incstack = 0
  5789   000008  8240               	bsf	btemp,1,c	;set compiler interrupt flag (level 2)
  5790   00000A  EDA1  F003         	call	int_func,f	;refresh shadow registers
  5791                           
  5792                           	psect	intcode_body
  5793   000742                     __pintcode_body:
  5794                           	callstack 16
  5795   000742                     int_func:
  5796                           	callstack 16
  5797   000742  0006               	pop		; remove dummy address from shadow register refresh
  5798   000744  CFF3 F014          	movff	prodl,??_ISR+4
  5799   000748  CFF4 F015          	movff	prodh,??_ISR+5
  5800   00074C  CFF6 F016          	movff	tblptrl,??_ISR+6
  5801   000750  CFF7 F017          	movff	tblptrh,??_ISR+7
  5802   000754  CFF8 F018          	movff	tblptru,??_ISR+8
  5803   000758  CFF5 F019          	movff	tablat,??_ISR+9
  5804                           
  5805                           ;Lab6.c: 444: if (RCIF==1){
  5806   00075C  AA9E               	btfss	3998,5,c	;volatile
  5807   00075E  D09E               	goto	i2l3981
  5808                           
  5809                           ;Lab6.c: 445: datoSerial = RCREG;
  5810   000760  CFAE F038          	movff	4014,_datoSerial	;volatile
  5811                           
  5812                           ;Lab6.c: 448: if(datoSerial == 'Z' || datoSerial == 'z'){ control_manual_pwm = 1; pwm_du
      +                          ty_perc = 0; }
  5813   000764  0E5A               	movlw	90
  5814   000766  1838               	xorwf	_datoSerial^0,w,c
  5815   000768  B4D8               	btfsc	status,2,c
  5816   00076A  D004               	goto	i2u288_40
  5817   00076C  0E7A               	movlw	122
  5818   00076E  1838               	xorwf	_datoSerial^0,w,c
  5819   000770  A4D8               	btfss	status,2,c
  5820   000772  D004               	goto	i2l3913
  5821   000774                     i2u288_40:
  5822   000774  0E01               	movlw	1
  5823   000776  6E34               	movwf	_control_manual_pwm^0,c
  5824   000778  6A35               	clrf	_pwm_duty_perc^0,c
  5825   00077A  D045               	goto	i2l451
  5826   00077C                     i2l3913:
  5827                           
  5828                           ;Lab6.c: 449: else if(datoSerial == 'X' || datoSerial == 'x'){ control_manual_pwm = 1; p
      +                          wm_duty_perc = 20; }
  5829   00077C  0E58               	movlw	88
  5830   00077E  1838               	xorwf	_datoSerial^0,w,c
  5831   000780  B4D8               	btfsc	status,2,c
  5832   000782  D004               	goto	i2u290_40
  5833   000784  0E78               	movlw	120
  5834   000786  1838               	xorwf	_datoSerial^0,w,c
  5835   000788  A4D8               	btfss	status,2,c
  5836   00078A  D004               	goto	i2l3919
  5837   00078C                     i2u290_40:
  5838   00078C  0E01               	movlw	1
  5839   00078E  6E34               	movwf	_control_manual_pwm^0,c
  5840   000790  0E14               	movlw	20
  5841   000792  D02F               	goto	L18
  5842   000794                     i2l3919:
  5843                           
  5844                           ;Lab6.c: 450: else if(datoSerial == 'C' || datoSerial == 'c'){ control_manual_pwm = 1; p
      +                          wm_duty_perc = 40; }
  5845   000794  0E43               	movlw	67
  5846   000796  1838               	xorwf	_datoSerial^0,w,c
  5847   000798  B4D8               	btfsc	status,2,c
  5848   00079A  D004               	goto	i2u292_40
  5849   00079C  0E63               	movlw	99
  5850   00079E  1838               	xorwf	_datoSerial^0,w,c
  5851   0007A0  A4D8               	btfss	status,2,c
  5852   0007A2  D004               	goto	i2l3925
  5853   0007A4                     i2u292_40:
  5854   0007A4  0E01               	movlw	1
  5855   0007A6  6E34               	movwf	_control_manual_pwm^0,c
  5856   0007A8  0E28               	movlw	40
  5857   0007AA  D023               	goto	L18
  5858   0007AC                     i2l3925:
  5859                           
  5860                           ;Lab6.c: 451: else if(datoSerial == 'V' || datoSerial == 'v'){ control_manual_pwm = 1; p
      +                          wm_duty_perc = 60; }
  5861   0007AC  0E56               	movlw	86
  5862   0007AE  1838               	xorwf	_datoSerial^0,w,c
  5863   0007B0  B4D8               	btfsc	status,2,c
  5864   0007B2  D004               	goto	i2u294_40
  5865   0007B4  0E76               	movlw	118
  5866   0007B6  1838               	xorwf	_datoSerial^0,w,c
  5867   0007B8  A4D8               	btfss	status,2,c
  5868   0007BA  D004               	goto	i2l3931
  5869   0007BC                     i2u294_40:
  5870   0007BC  0E01               	movlw	1
  5871   0007BE  6E34               	movwf	_control_manual_pwm^0,c
  5872   0007C0  0E3C               	movlw	60
  5873   0007C2  D017               	goto	L18
  5874   0007C4                     i2l3931:
  5875                           
  5876                           ;Lab6.c: 452: else if(datoSerial == 'B' || datoSerial == 'b'){ control_manual_pwm = 1; p
      +                          wm_duty_perc = 80; }
  5877   0007C4  0E42               	movlw	66
  5878   0007C6  1838               	xorwf	_datoSerial^0,w,c
  5879   0007C8  B4D8               	btfsc	status,2,c
  5880   0007CA  D004               	goto	i2u296_40
  5881   0007CC  0E62               	movlw	98
  5882   0007CE  1838               	xorwf	_datoSerial^0,w,c
  5883   0007D0  A4D8               	btfss	status,2,c
  5884   0007D2  D004               	goto	i2l3937
  5885   0007D4                     i2u296_40:
  5886   0007D4  0E01               	movlw	1
  5887   0007D6  6E34               	movwf	_control_manual_pwm^0,c
  5888   0007D8  0E50               	movlw	80
  5889   0007DA  D00B               	goto	L18
  5890   0007DC                     i2l3937:
  5891                           
  5892                           ;Lab6.c: 453: else if(datoSerial == 'N' || datoSerial == 'n'){ control_manual_pwm = 1; p
      +                          wm_duty_perc = 100; }
  5893   0007DC  0E4E               	movlw	78
  5894   0007DE  1838               	xorwf	_datoSerial^0,w,c
  5895   0007E0  B4D8               	btfsc	status,2,c
  5896   0007E2  D004               	goto	i2u298_40
  5897   0007E4  0E6E               	movlw	110
  5898   0007E6  1838               	xorwf	_datoSerial^0,w,c
  5899   0007E8  A4D8               	btfss	status,2,c
  5900   0007EA  D005               	goto	i2l3943
  5901   0007EC                     i2u298_40:
  5902   0007EC  0E01               	movlw	1
  5903   0007EE  6E34               	movwf	_control_manual_pwm^0,c
  5904   0007F0  0E64               	movlw	100
  5905   0007F2                     L18:
  5906   0007F2  6E35               	movwf	_pwm_duty_perc^0,c
  5907   0007F4  D008               	goto	i2l451
  5908   0007F6                     i2l3943:
  5909                           
  5910                           ;Lab6.c: 454: else if(datoSerial == 'M' || datoSerial == 'm'){ control_manual_pwm = 0; }
  5911   0007F6  0E4D               	movlw	77
  5912   0007F8  1838               	xorwf	_datoSerial^0,w,c
  5913   0007FA  B4D8               	btfsc	status,2,c
  5914   0007FC  D003               	goto	i2u300_40
  5915   0007FE  0E6D               	movlw	109
  5916   000800  1838               	xorwf	_datoSerial^0,w,c
  5917   000802  B4D8               	btfsc	status,2,c
  5918   000804                     i2u300_40:
  5919   000804  6A34               	clrf	_control_manual_pwm^0,c
  5920   000806                     i2l451:
  5921                           
  5922                           ;Lab6.c: 457: if(datoSerial==80 || datoSerial==112){
  5923   000806  0E50               	movlw	80
  5924   000808  1838               	xorwf	_datoSerial^0,w,c
  5925   00080A  B4D8               	btfsc	status,2,c
  5926   00080C  D004               	goto	i2u302_40
  5927   00080E  0E70               	movlw	112
  5928   000810  1838               	xorwf	_datoSerial^0,w,c
  5929   000812  A4D8               	btfss	status,2,c
  5930   000814  D017               	goto	i2l3965
  5931   000816                     i2u302_40:
  5932                           
  5933                           ;Lab6.c: 458: LATE=0b00000110;
  5934   000816  0E06               	movlw	6
  5935   000818  6E8D               	movwf	141,c	;volatile
  5936                           
  5937                           ;Lab6.c: 460: BorraLCD();
  5938   00081A  EC03  F00C         	call	i2_BorraLCD	;wreg free
  5939                           
  5940                           ;Lab6.c: 461: OcultarCursor();
  5941   00081E  EC55  F00C         	call	i2_OcultarCursor	;wreg free
  5942                           
  5943                           ;Lab6.c: 462: MensajeLCD_Var("   PARADA DE");
  5944   000822  0EAA               	movlw	low STR_15
  5945   000824  6E06               	movwf	i2MensajeLCD_Var@a^0,c
  5946   000826  0E7F               	movlw	high STR_15
  5947   000828  6E07               	movwf	(i2MensajeLCD_Var@a+1)^0,c
  5948   00082A  EC38  F00A         	call	i2_MensajeLCD_Var	;wreg free
  5949                           
  5950                           ;Lab6.c: 463: DireccionaLCD(0xC0);
  5951   00082E  0EC0               	movlw	192
  5952   000830  ECD9  F00B         	call	i2_DireccionaLCD
  5953                           
  5954                           ;Lab6.c: 464: MensajeLCD_Var("   EMERGENCIA");
  5955   000834  0E8F               	movlw	low STR_16
  5956   000836  6E06               	movwf	i2MensajeLCD_Var@a^0,c
  5957   000838  0E7F               	movlw	high STR_16
  5958   00083A  6E07               	movwf	(i2MensajeLCD_Var@a+1)^0,c
  5959   00083C  EC38  F00A         	call	i2_MensajeLCD_Var	;wreg free
  5960                           
  5961                           ;Lab6.c: 465: CCP1CON = 0;
  5962   000840  6ABD               	clrf	189,c	;volatile
  5963   000842                     i2l466:
  5964   000842  D7FF               	goto	i2l466
  5965   000844                     i2l3965:
  5966   000844  043B               	decf	_salir^0,w,c
  5967   000846  A4D8               	btfss	status,2,c
  5968   000848  D029               	goto	i2l3981
  5969   00084A  0E72               	movlw	114
  5970   00084C  1838               	xorwf	_datoSerial^0,w,c
  5971   00084E  B4D8               	btfsc	status,2,c
  5972   000850  D004               	goto	i2u305_40
  5973   000852  0E52               	movlw	82
  5974   000854  1838               	xorwf	_datoSerial^0,w,c
  5975   000856  A4D8               	btfss	status,2,c
  5976   000858  D021               	goto	i2l3981
  5977   00085A                     i2u305_40:
  5978                           
  5979                           ;Lab6.c: 469: contador=0;
  5980   00085A  0E00               	movlw	0
  5981   00085C  6E30               	movwf	(_contador+1)^0,c
  5982   00085E  0E00               	movlw	0
  5983   000860  6E2F               	movwf	_contador^0,c
  5984                           
  5985                           ;Lab6.c: 470: Supercontador = 0;
  5986   000862  0E00               	movlw	0
  5987   000864  6E32               	movwf	(_Supercontador+1)^0,c
  5988   000866  0E00               	movlw	0
  5989   000868  6E31               	movwf	_Supercontador^0,c
  5990                           
  5991                           ;Lab6.c: 471: contadorRGB = 0;
  5992   00086A  0E00               	movlw	0
  5993   00086C  6E2E               	movwf	(_contadorRGB+1)^0,c
  5994   00086E  0E00               	movlw	0
  5995   000870  6E2D               	movwf	_contadorRGB^0,c
  5996                           
  5997                           ;Lab6.c: 472: LATE=0b00000010;
  5998   000872  0E02               	movlw	2
  5999   000874  6E8D               	movwf	141,c	;volatile
  6000                           
  6001                           ;Lab6.c: 473: DireccionaLCD(0x8B);
  6002   000876  0E8B               	movlw	139
  6003   000878  ECD9  F00B         	call	i2_DireccionaLCD
  6004                           
  6005                           ;Lab6.c: 474: EscribeLCD_n8(Objetivo-Supercontador,2);
  6006   00087C  0E02               	movlw	2
  6007   00087E  6E09               	movwf	i2EscribeLCD_n8@b^0,c
  6008   000880  5031               	movf	_Supercontador^0,w,c
  6009   000882  5C2B               	subwf	_Objetivo^0,w,c
  6010   000884  EC24  F007         	call	i2_EscribeLCD_n8
  6011                           
  6012                           ;Lab6.c: 475: LATD=contador;
  6013   000888  C02F  FF8C         	movff	_contador,3980	;volatile
  6014                           
  6015                           ;Lab6.c: 476: GuardarEEPROM(0,0);
  6016   00088C  0E00               	movlw	0
  6017   00088E  6E02               	movwf	(i2GuardarEEPROM@direccion+1)^0,c
  6018   000890  0E00               	movlw	0
  6019   000892  6E01               	movwf	i2GuardarEEPROM@direccion^0,c
  6020   000894  0E00               	movlw	0
  6021   000896  6E03               	movwf	i2GuardarEEPROM@dato^0,c
  6022   000898  EC98  F00B         	call	i2_GuardarEEPROM	;wreg free
  6023   00089C                     i2l3981:
  6024                           
  6025                           ;Lab6.c: 477: };Lab6.c: 478: };Lab6.c: 481: if(CCP2IF){
  6026   00089C  A0A1               	btfss	4001,0,c	;volatile
  6027   00089E  D03B               	goto	i2l3999
  6028                           
  6029                           ;Lab6.c: 482: if(CCP2M0 == 1){
  6030   0008A0  A0BA               	btfss	4026,0,c	;volatile
  6031   0008A2  D004               	goto	i2l3989
  6032                           
  6033                           ;Lab6.c: 484: TMR3H = 0;
  6034   0008A4  6AB3               	clrf	179,c	;volatile
  6035                           
  6036                           ;Lab6.c: 485: TMR3L = 0;
  6037   0008A6  6AB2               	clrf	178,c	;volatile
  6038                           
  6039                           ;Lab6.c: 486: CCP2CON = 0b00000100;
  6040   0008A8  0E04               	movlw	4
  6041   0008AA  D033               	goto	L13
  6042   0008AC                     i2l3989:
  6043                           
  6044                           ;Lab6.c: 490: unsigned int captura_raw = ((unsigned int)CCPR2H << 8) | CCPR2L;
  6045   0008AC  50BC               	movf	188,w,c	;volatile
  6046   0008AE  6E10               	movwf	??_ISR^0,c
  6047   0008B0  50BB               	movf	187,w,c	;volatile
  6048   0008B2  6E1E               	movwf	ISR@captura_raw^0,c
  6049   0008B4  C010  F01F         	movff	??_ISR,ISR@captura_raw+1
  6050                           
  6051                           ;Lab6.c: 493: unsigned long calculo_temp = (unsigned long)captura_raw * 4;
  6052   0008B8  501E               	movf	ISR@captura_raw^0,w,c
  6053   0008BA  6E10               	movwf	??_ISR^0,c
  6054   0008BC  501F               	movf	(ISR@captura_raw+1)^0,w,c
  6055   0008BE  6E11               	movwf	(??_ISR+1)^0,c
  6056   0008C0  6A12               	clrf	(??_ISR+2)^0,c
  6057   0008C2  6A13               	clrf	(??_ISR+3)^0,c
  6058   0008C4  0E02               	movlw	2
  6059   0008C6                     i2u308_45:
  6060   0008C6  90D8               	bcf	status,0,c
  6061   0008C8  3610               	rlcf	??_ISR^0,f,c
  6062   0008CA  3611               	rlcf	(??_ISR+1)^0,f,c
  6063   0008CC  3612               	rlcf	(??_ISR+2)^0,f,c
  6064   0008CE  3613               	rlcf	(??_ISR+3)^0,f,c
  6065   0008D0  2EE8               	decfsz	wreg,f,c
  6066   0008D2  D7F9               	goto	i2u308_45
  6067   0008D4  C010  F01A         	movff	??_ISR,ISR@calculo_temp
  6068   0008D8  C011  F01B         	movff	??_ISR+1,ISR@calculo_temp+1
  6069   0008DC  C012  F01C         	movff	??_ISR+2,ISR@calculo_temp+2
  6070   0008E0  C013  F01D         	movff	??_ISR+3,ISR@calculo_temp+3
  6071                           
  6072                           ;Lab6.c: 494: distancia = (int)(calculo_temp / 58);
  6073   0008E4  C01A  F001         	movff	ISR@calculo_temp,i2___lldiv@dividend
  6074   0008E8  C01B  F002         	movff	ISR@calculo_temp+1,i2___lldiv@dividend+1
  6075   0008EC  C01C  F003         	movff	ISR@calculo_temp+2,i2___lldiv@dividend+2
  6076   0008F0  C01D  F004         	movff	ISR@calculo_temp+3,i2___lldiv@dividend+3
  6077   0008F4  0E3A               	movlw	58
  6078   0008F6  6E05               	movwf	i2___lldiv@divisor^0,c
  6079   0008F8  0E00               	movlw	0
  6080   0008FA  6E06               	movwf	(i2___lldiv@divisor+1)^0,c
  6081   0008FC  0E00               	movlw	0
  6082   0008FE  6E07               	movwf	(i2___lldiv@divisor+2)^0,c
  6083   000900  0E00               	movlw	0
  6084   000902  6E08               	movwf	(i2___lldiv@divisor+3)^0,c
  6085   000904  EC7A  F008         	call	i2___lldiv	;wreg free
  6086   000908  C001  F025         	movff	?i2___lldiv,_distancia
  6087   00090C  C002  F026         	movff	?i2___lldiv+1,_distancia+1
  6088                           
  6089                           ;Lab6.c: 496: CCP2CON = 0b00000101;
  6090   000910  0E05               	movlw	5
  6091   000912                     L13:
  6092   000912  6EBA               	movwf	186,c	;volatile
  6093                           
  6094                           ;Lab6.c: 497: };Lab6.c: 498: CCP2IF = 0;
  6095   000914  90A1               	bcf	4001,0,c	;volatile
  6096   000916                     i2l3999:
  6097                           
  6098                           ;Lab6.c: 499: };Lab6.c: 501: if(TMR0IF==1){
  6099   000916  A4F2               	btfss	4082,2,c	;volatile
  6100   000918  D007               	goto	i2l4005
  6101                           
  6102                           ;Lab6.c: 502: TMR0=3036;
  6103   00091A  0E0B               	movlw	11
  6104   00091C  6ED7               	movwf	215,c	;volatile
  6105   00091E  0EDC               	movlw	220
  6106   000920  6ED6               	movwf	214,c	;volatile
  6107                           
  6108                           ;Lab6.c: 503: TMR0IF=0;
  6109   000922  94F2               	bcf	4082,2,c	;volatile
  6110                           
  6111                           ;Lab6.c: 507: flag_timer0_event = 1;
  6112   000924  0E01               	movlw	1
  6113   000926  6E37               	movwf	_flag_timer0_event^0,c	;volatile
  6114   000928                     i2l4005:
  6115                           
  6116                           ;Lab6.c: 508: };Lab6.c: 510: if (TMR1IF){
  6117   000928  A09E               	btfss	3998,0,c	;volatile
  6118   00092A  D014               	goto	i2l4029
  6119                           
  6120                           ;Lab6.c: 511: TMR1 = 34286;
  6121   00092C  0E85               	movlw	133
  6122   00092E  6ECF               	movwf	207,c	;volatile
  6123   000930  0EEE               	movlw	238
  6124   000932  6ECE               	movwf	206,c	;volatile
  6125                           
  6126                           ;Lab6.c: 512: TMR1IF = 0;
  6127   000934  909E               	bcf	3998,0,c	;volatile
  6128                           
  6129                           ;Lab6.c: 514: Inactividad++;
  6130   000936  2A39               	incf	_Inactividad^0,f,c
  6131                           
  6132                           ;Lab6.c: 517: if(Inactividad == 10){
  6133   000938  0E0A               	movlw	10
  6134   00093A  1839               	xorwf	_Inactividad^0,w,c
  6135   00093C  B4D8               	btfsc	status,2,c
  6136                           
  6137                           ;Lab6.c: 519: LATA3 = 0;
  6138   00093E  9689               	bcf	3977,3,c	;volatile
  6139                           
  6140                           ;Lab6.c: 520: };Lab6.c: 523: if(Inactividad >= 20){
  6141   000940  0E13               	movlw	19
  6142   000942  6439               	cpfsgt	_Inactividad^0,c
  6143   000944  D007               	goto	i2l4029
  6144                           
  6145                           ;Lab6.c: 524: CCP1CON = 0;
  6146   000946  6ABD               	clrf	189,c	;volatile
  6147   000948  0003               	sleep		;# 
  6148                           
  6149                           ;Lab6.c: 528: ConfigurarPWM();
  6150   00094A  EC31  F00C         	call	i2_ConfigurarPWM	;wreg free
  6151                           
  6152                           ;Lab6.c: 529: Inactividad = 0;
  6153   00094E  6A39               	clrf	_Inactividad^0,c
  6154                           
  6155                           ;Lab6.c: 530: RBIF = 0;
  6156   000950  90F2               	bcf	4082,0,c	;volatile
  6157                           
  6158                           ;Lab6.c: 531: TMR1ON = 1;
  6159   000952  80CD               	bsf	4045,0,c	;volatile
  6160   000954                     i2l4029:
  6161                           
  6162                           ;Lab6.c: 532: };Lab6.c: 533: };Lab6.c: 535: if(RBIF==1){
  6163   000954  A0F2               	btfss	4082,0,c	;volatile
  6164   000956  D0EB               	goto	i2l528
  6165                           
  6166                           ;Lab6.c: 536: if(PORTB!=0b11110000){
  6167   000958  0EF0               	movlw	240
  6168   00095A  1881               	xorwf	129,w,c	;volatile
  6169   00095C  B4D8               	btfsc	status,2,c
  6170   00095E  D0DF               	goto	i2l4153
  6171                           
  6172                           ;Lab6.c: 537: Inactividad = 0;
  6173   000960  6A39               	clrf	_Inactividad^0,c
  6174                           
  6175                           ;Lab6.c: 538: LATB=0b11111110;
  6176   000962  0EFE               	movlw	254
  6177   000964  6E8A               	movwf	138,c	;volatile
  6178                           
  6179                           ;Lab6.c: 539: if(RB4==0){
  6180   000966  B881               	btfsc	3969,4,c	;volatile
  6181   000968  D005               	goto	i2l482
  6182                           
  6183                           ;Lab6.c: 540: Tecla=1;
  6184   00096A  0E01               	movlw	1
  6185   00096C                     L14:
  6186   00096C  6E3A               	movwf	_Tecla^0,c
  6187   00096E                     i2l4041:
  6188                           
  6189                           ;Lab6.c: 541: ConfigPregunta();
  6190   00096E  ECEB  F008         	call	_ConfigPregunta	;wreg free
  6191                           
  6192                           ;Lab6.c: 542: }
  6193   000972  D0D3               	goto	i2l506
  6194   000974                     i2l482:
  6195                           
  6196                           ;Lab6.c: 543: else if(RB5==0) {
  6197   000974  BA81               	btfsc	3969,5,c	;volatile
  6198   000976  D002               	goto	i2l484
  6199                           
  6200                           ;Lab6.c: 544: Tecla=2;
  6201   000978  0E02               	movlw	2
  6202   00097A  D7F8               	goto	L14
  6203   00097C                     i2l484:
  6204                           
  6205                           ;Lab6.c: 548: else if(RB6==0){
  6206   00097C  BC81               	btfsc	3969,6,c	;volatile
  6207   00097E  D002               	goto	i2l486
  6208                           
  6209                           ;Lab6.c: 549: Tecla=3;
  6210   000980  0E03               	movlw	3
  6211   000982  D7F4               	goto	L14
  6212   000984                     i2l486:
  6213                           
  6214                           ;Lab6.c: 553: else if(RB7==0){
  6215   000984  BE81               	btfsc	3969,7,c	;volatile
  6216   000986  D003               	goto	i2l4053
  6217                           
  6218                           ;Lab6.c: 554: Tecla='*';
  6219   000988  0E2A               	movlw	42
  6220   00098A  6E3A               	movwf	_Tecla^0,c
  6221                           
  6222                           ;Lab6.c: 555: }
  6223   00098C  D0C6               	goto	i2l506
  6224   00098E                     i2l4053:
  6225                           
  6226                           ;Lab6.c: 560: else{;Lab6.c: 561: LATB=0b11111101;
  6227   00098E  0EFD               	movlw	253
  6228   000990  6E8A               	movwf	138,c	;volatile
  6229                           
  6230                           ;Lab6.c: 562: if(RB4==0){
  6231   000992  B881               	btfsc	3969,4,c	;volatile
  6232   000994  D002               	goto	i2l490
  6233                           
  6234                           ;Lab6.c: 563: Tecla=4;
  6235   000996  0E04               	movlw	4
  6236   000998  D7E9               	goto	L14
  6237   00099A                     i2l490:
  6238                           
  6239                           ;Lab6.c: 566: else if(RB5==0) {
  6240   00099A  BA81               	btfsc	3969,5,c	;volatile
  6241   00099C  D002               	goto	i2l492
  6242                           
  6243                           ;Lab6.c: 567: Tecla=5;
  6244   00099E  0E05               	movlw	5
  6245   0009A0  D7E5               	goto	L14
  6246   0009A2                     i2l492:
  6247                           
  6248                           ;Lab6.c: 570: else if(RB6==0) {
  6249   0009A2  BC81               	btfsc	3969,6,c	;volatile
  6250   0009A4  D002               	goto	i2l494
  6251                           
  6252                           ;Lab6.c: 571: Tecla=6;
  6253   0009A6  0E06               	movlw	6
  6254   0009A8  D7E1               	goto	L14
  6255   0009AA                     i2l494:
  6256                           
  6257                           ;Lab6.c: 574: else if(RB7==0) {
  6258   0009AA  BE81               	btfsc	3969,7,c	;volatile
  6259   0009AC  D017               	goto	i2l4083
  6260                           
  6261                           ;Lab6.c: 575: LATE=0b00000110;
  6262   0009AE  0E06               	movlw	6
  6263   0009B0  6E8D               	movwf	141,c	;volatile
  6264                           
  6265                           ;Lab6.c: 577: BorraLCD();
  6266   0009B2  EC03  F00C         	call	i2_BorraLCD	;wreg free
  6267                           
  6268                           ;Lab6.c: 578: OcultarCursor();
  6269   0009B6  EC55  F00C         	call	i2_OcultarCursor	;wreg free
  6270                           
  6271                           ;Lab6.c: 579: MensajeLCD_Var("   PARADA DE");
  6272   0009BA  0EAA               	movlw	low STR_15
  6273   0009BC  6E06               	movwf	i2MensajeLCD_Var@a^0,c
  6274   0009BE  0E7F               	movlw	high STR_15
  6275   0009C0  6E07               	movwf	(i2MensajeLCD_Var@a+1)^0,c
  6276   0009C2  EC38  F00A         	call	i2_MensajeLCD_Var	;wreg free
  6277                           
  6278                           ;Lab6.c: 580: DireccionaLCD(0xC0);
  6279   0009C6  0EC0               	movlw	192
  6280   0009C8  ECD9  F00B         	call	i2_DireccionaLCD
  6281                           
  6282                           ;Lab6.c: 581: MensajeLCD_Var("   EMERGENCIA");
  6283   0009CC  0E8F               	movlw	low STR_16
  6284   0009CE  6E06               	movwf	i2MensajeLCD_Var@a^0,c
  6285   0009D0  0E7F               	movlw	high STR_16
  6286   0009D2  6E07               	movwf	(i2MensajeLCD_Var@a+1)^0,c
  6287   0009D4  EC38  F00A         	call	i2_MensajeLCD_Var	;wreg free
  6288                           
  6289                           ;Lab6.c: 582: CCP1CON = 0;
  6290   0009D8  6ABD               	clrf	189,c	;volatile
  6291   0009DA                     i2l497:
  6292   0009DA  D7FF               	goto	i2l497
  6293   0009DC                     i2l4083:
  6294                           
  6295                           ;Lab6.c: 588: else{;Lab6.c: 589: LATB=0b11111011;
  6296   0009DC  0EFB               	movlw	251
  6297   0009DE  6E8A               	movwf	138,c	;volatile
  6298                           
  6299                           ;Lab6.c: 590: if(RB4==0) {
  6300   0009E0  B881               	btfsc	3969,4,c	;volatile
  6301   0009E2  D002               	goto	i2l501
  6302                           
  6303                           ;Lab6.c: 591: Tecla=7;
  6304   0009E4  0E07               	movlw	7
  6305   0009E6  D7C2               	goto	L14
  6306   0009E8                     i2l501:
  6307                           
  6308                           ;Lab6.c: 594: else if(RB5==0) {
  6309   0009E8  BA81               	btfsc	3969,5,c	;volatile
  6310   0009EA  D002               	goto	i2l503
  6311                           
  6312                           ;Lab6.c: 595: Tecla=8;
  6313   0009EC  0E08               	movlw	8
  6314   0009EE  D7BE               	goto	L14
  6315   0009F0                     i2l503:
  6316                           
  6317                           ;Lab6.c: 598: else if(RB6==0) {
  6318   0009F0  BC81               	btfsc	3969,6,c	;volatile
  6319   0009F2  D002               	goto	i2l505
  6320                           
  6321                           ;Lab6.c: 599: Tecla=9;
  6322   0009F4  0E09               	movlw	9
  6323   0009F6  D7BA               	goto	L14
  6324   0009F8                     i2l505:
  6325                           
  6326                           ;Lab6.c: 602: else if(RB7==0) {
  6327   0009F8  BE81               	btfsc	3969,7,c	;volatile
  6328   0009FA  D003               	goto	i2l4101
  6329                           
  6330                           ;Lab6.c: 603: Borrar();
  6331   0009FC  EC32  F00B         	call	_Borrar	;wreg free
  6332                           
  6333                           ;Lab6.c: 604: }
  6334   000A00  D08C               	goto	i2l506
  6335   000A02                     i2l4101:
  6336                           
  6337                           ;Lab6.c: 608: else{;Lab6.c: 609: LATB=0b11110111;
  6338   000A02  0EF7               	movlw	247
  6339   000A04  6E8A               	movwf	138,c	;volatile
  6340                           
  6341                           ;Lab6.c: 610: if(RB4==0){
  6342   000A06  B881               	btfsc	3969,4,c	;volatile
  6343   000A08  D025               	goto	i2l509
  6344                           
  6345                           ;Lab6.c: 611: contador=0;
  6346   000A0A  0E00               	movlw	0
  6347   000A0C  6E30               	movwf	(_contador+1)^0,c
  6348   000A0E  0E00               	movlw	0
  6349   000A10  6E2F               	movwf	_contador^0,c
  6350                           
  6351                           ;Lab6.c: 612: Supercontador = 0;
  6352   000A12  0E00               	movlw	0
  6353   000A14  6E32               	movwf	(_Supercontador+1)^0,c
  6354   000A16  0E00               	movlw	0
  6355   000A18  6E31               	movwf	_Supercontador^0,c
  6356                           
  6357                           ;Lab6.c: 613: contadorRGB = 0;
  6358   000A1A  0E00               	movlw	0
  6359   000A1C  6E2E               	movwf	(_contadorRGB+1)^0,c
  6360   000A1E  0E00               	movlw	0
  6361   000A20  6E2D               	movwf	_contadorRGB^0,c
  6362                           
  6363                           ;Lab6.c: 614: LATE=0b00000010;
  6364   000A22  0E02               	movlw	2
  6365   000A24  6E8D               	movwf	141,c	;volatile
  6366                           
  6367                           ;Lab6.c: 615: if(salir==1){
  6368   000A26  043B               	decf	_salir^0,w,c
  6369   000A28  A4D8               	btfss	status,2,c
  6370   000A2A  D077               	goto	i2l506
  6371                           
  6372                           ;Lab6.c: 616: DireccionaLCD(0x8B);
  6373   000A2C  0E8B               	movlw	139
  6374   000A2E  ECD9  F00B         	call	i2_DireccionaLCD
  6375                           
  6376                           ;Lab6.c: 617: EscribeLCD_n8(Objetivo-Supercontador,2);
  6377   000A32  0E02               	movlw	2
  6378   000A34  6E09               	movwf	i2EscribeLCD_n8@b^0,c
  6379   000A36  5031               	movf	_Supercontador^0,w,c
  6380   000A38  5C2B               	subwf	_Objetivo^0,w,c
  6381   000A3A  EC24  F007         	call	i2_EscribeLCD_n8
  6382                           
  6383                           ;Lab6.c: 618: LATD=contador;
  6384   000A3E  C02F  FF8C         	movff	_contador,3980	;volatile
  6385                           
  6386                           ;Lab6.c: 619: GuardarEEPROM(0,0);
  6387   000A42  0E00               	movlw	0
  6388   000A44  6E02               	movwf	(i2GuardarEEPROM@direccion+1)^0,c
  6389   000A46  0E00               	movlw	0
  6390   000A48  6E01               	movwf	i2GuardarEEPROM@direccion^0,c
  6391   000A4A  0E00               	movlw	0
  6392   000A4C  6E03               	movwf	i2GuardarEEPROM@dato^0,c
  6393   000A4E  EC98  F00B         	call	i2_GuardarEEPROM	;wreg free
  6394   000A52  D063               	goto	i2l506
  6395   000A54                     i2l509:
  6396                           
  6397                           ;Lab6.c: 622: else if(RB5==0) {
  6398   000A54  BA81               	btfsc	3969,5,c	;volatile
  6399   000A56  D002               	goto	i2l512
  6400                           
  6401                           ;Lab6.c: 623: Tecla=0;
  6402   000A58  6A3A               	clrf	_Tecla^0,c
  6403   000A5A  D789               	goto	i2l4041
  6404   000A5C                     i2l512:
  6405                           
  6406                           ;Lab6.c: 626: else if(RB6==0) {
  6407   000A5C  BC81               	btfsc	3969,6,c	;volatile
  6408   000A5E  D055               	goto	i2l514
  6409                           
  6410                           ;Lab6.c: 627: Borrar();
  6411   000A60  EC32  F00B         	call	_Borrar	;wreg free
  6412                           
  6413                           ;Lab6.c: 628: Supercontador=Objetivo;
  6414   000A64  C02B  F031         	movff	_Objetivo,_Supercontador
  6415   000A68  C02C  F032         	movff	_Objetivo+1,_Supercontador+1
  6416                           
  6417                           ;Lab6.c: 629: contadorRGB = Objetivo/10;
  6418   000A6C  C02B  F001         	movff	_Objetivo,i2___lwdiv@dividend
  6419   000A70  C02C  F002         	movff	_Objetivo+1,i2___lwdiv@dividend+1
  6420   000A74  0E00               	movlw	0
  6421   000A76  6E04               	movwf	(i2___lwdiv@divisor+1)^0,c
  6422   000A78  0E0A               	movlw	10
  6423   000A7A  6E03               	movwf	i2___lwdiv@divisor^0,c
  6424   000A7C  ECC3  F009         	call	i2___lwdiv	;wreg free
  6425   000A80  C001  F02D         	movff	?i2___lwdiv,_contadorRGB
  6426   000A84  C002  F02E         	movff	?i2___lwdiv+1,_contadorRGB+1
  6427                           
  6428                           ;Lab6.c: 630: contador = Objetivo-contadorRGB*10;
  6429   000A88  0EF6               	movlw	246
  6430   000A8A  6E10               	movwf	??_ISR^0,c
  6431   000A8C  0EFF               	movlw	255
  6432   000A8E  6E11               	movwf	(??_ISR+1)^0,c
  6433   000A90  5010               	movf	??_ISR^0,w,c
  6434   000A92  022D               	mulwf	_contadorRGB^0,c
  6435   000A94  CFF3 F012          	movff	prodl,??_ISR+2
  6436   000A98  CFF4 F013          	movff	prodh,??_ISR+3
  6437   000A9C  022E               	mulwf	(_contadorRGB+1)^0,c
  6438   000A9E  50F3               	movf	prodl,w,c
  6439   000AA0  2613               	addwf	(??_ISR+3)^0,f,c
  6440   000AA2  5011               	movf	(??_ISR+1)^0,w,c
  6441   000AA4  022D               	mulwf	_contadorRGB^0,c
  6442   000AA6  50F3               	movf	prodl,w,c
  6443   000AA8  2613               	addwf	(??_ISR+3)^0,f,c
  6444   000AAA  502B               	movf	_Objetivo^0,w,c
  6445   000AAC  2412               	addwf	(??_ISR+2)^0,w,c
  6446   000AAE  6E2F               	movwf	_contador^0,c
  6447   000AB0  502C               	movf	(_Objetivo+1)^0,w,c
  6448   000AB2  2013               	addwfc	(??_ISR+3)^0,w,c
  6449   000AB4  6E30               	movwf	(_contador+1)^0,c
  6450                           
  6451                           ;Lab6.c: 631: if(contadorRGB==0){
  6452   000AB6  502D               	movf	_contadorRGB^0,w,c
  6453   000AB8  102E               	iorwf	(_contadorRGB+1)^0,w,c
  6454   000ABA  A4D8               	btfss	status,2,c
  6455   000ABC  D002               	goto	i2l4129
  6456                           
  6457                           ;Lab6.c: 632: LATE=0b00000010;
  6458   000ABE  0E02               	movlw	2
  6459   000AC0  D01A               	goto	L22
  6460   000AC2                     i2l4129:
  6461   000AC2  042D               	decf	_contadorRGB^0,w,c
  6462   000AC4  102E               	iorwf	(_contadorRGB+1)^0,w,c
  6463   000AC6  A4D8               	btfss	status,2,c
  6464   000AC8  D002               	goto	i2l4133
  6465                           
  6466                           ;Lab6.c: 634: LATE=0b00000011;
  6467   000ACA  0E03               	movlw	3
  6468   000ACC  D014               	goto	L22
  6469   000ACE                     i2l4133:
  6470   000ACE  0E02               	movlw	2
  6471   000AD0  182D               	xorwf	_contadorRGB^0,w,c
  6472   000AD2  102E               	iorwf	(_contadorRGB+1)^0,w,c
  6473   000AD4  A4D8               	btfss	status,2,c
  6474   000AD6  D002               	goto	i2l4137
  6475                           
  6476                           ;Lab6.c: 636: LATE=0b00000001;
  6477   000AD8  0E01               	movlw	1
  6478   000ADA  D00D               	goto	L22
  6479   000ADC                     i2l4137:
  6480   000ADC  0E03               	movlw	3
  6481   000ADE  182D               	xorwf	_contadorRGB^0,w,c
  6482   000AE0  102E               	iorwf	(_contadorRGB+1)^0,w,c
  6483   000AE2  A4D8               	btfss	status,2,c
  6484   000AE4  D002               	goto	i2l4141
  6485                           
  6486                           ;Lab6.c: 638: LATE=0b00000101;
  6487   000AE6  0E05               	movlw	5
  6488   000AE8  D006               	goto	L22
  6489   000AEA                     i2l4141:
  6490   000AEA  0E04               	movlw	4
  6491   000AEC  182D               	xorwf	_contadorRGB^0,w,c
  6492   000AEE  102E               	iorwf	(_contadorRGB+1)^0,w,c
  6493   000AF0  A4D8               	btfss	status,2,c
  6494   000AF2  D003               	goto	i2l4145
  6495                           
  6496                           ;Lab6.c: 640: LATE=0b00000100;
  6497   000AF4  0E04               	movlw	4
  6498   000AF6                     L22:
  6499   000AF6  6E8D               	movwf	141,c	;volatile
  6500                           
  6501                           ;Lab6.c: 641: }else if(contadorRGB==5){
  6502   000AF8  D005               	goto	i2l520
  6503   000AFA                     i2l4145:
  6504   000AFA  0E05               	movlw	5
  6505   000AFC  182D               	xorwf	_contadorRGB^0,w,c
  6506   000AFE  102E               	iorwf	(_contadorRGB+1)^0,w,c
  6507   000B00  B4D8               	btfsc	status,2,c
  6508                           
  6509                           ;Lab6.c: 642: LATE=0b00000000;
  6510   000B02  6A8D               	clrf	141,c	;volatile
  6511   000B04                     i2l520:
  6512                           
  6513                           ;Lab6.c: 643: };Lab6.c: 644: LATD=contador;
  6514   000B04  C02F  FF8C         	movff	_contador,3980	;volatile
  6515                           
  6516                           ;Lab6.c: 645: }
  6517   000B08  D008               	goto	i2l506
  6518   000B0A                     i2l514:
  6519                           
  6520                           ;Lab6.c: 646: else if(RB7==0) {
  6521   000B0A  BE81               	btfsc	3969,7,c	;volatile
  6522   000B0C  D006               	goto	i2l506
  6523                           
  6524                           ;Lab6.c: 647: LATA3=LATA3^1;
  6525   000B0E  B689               	btfsc	3977,3,c	;volatile
  6526   000B10  D002               	goto	i2u338_40
  6527   000B12  8689               	bsf	3977,3,c	;volatile
  6528   000B14  D001               	goto	i2u339_45
  6529   000B16                     i2u338_40:
  6530   000B16  9689               	bcf	3977,3,c	;volatile
  6531   000B18                     i2u339_45:
  6532                           
  6533                           ;Lab6.c: 648: TMR1ON=1;
  6534   000B18  80CD               	bsf	4045,0,c	;volatile
  6535   000B1A                     i2l506:
  6536                           
  6537                           ;Lab6.c: 649: };Lab6.c: 650: };Lab6.c: 651: };Lab6.c: 652: };Lab6.c: 653: LATB=0b1111000
      +                          0;
  6538   000B1A  0EF0               	movlw	240
  6539   000B1C  6E8A               	movwf	138,c	;volatile
  6540   000B1E                     i2l4153:
  6541                           
  6542                           ;Lab6.c: 654: };Lab6.c: 655: _delay((unsigned long)((300)*(1000000/4000.0)));
  6543   000B1E  0E62               	movlw	98
  6544   000B20  6E10               	movwf	??_ISR^0,c
  6545   000B22  0E66               	movlw	102
  6546   000B24                     i2u452_47:
  6547   000B24  2EE8               	decfsz	wreg,f,c
  6548   000B26  D7FE               	bra	i2u452_47
  6549   000B28  2E10               	decfsz	??_ISR^0,f,c
  6550   000B2A  D7FC               	bra	i2u452_47
  6551                           
  6552                           ;Lab6.c: 656: RBIF=0;
  6553   000B2C  90F2               	bcf	4082,0,c	;volatile
  6554   000B2E                     i2l528:
  6555   000B2E  C019  FFF5         	movff	??_ISR+9,tablat
  6556   000B32  C018  FFF8         	movff	??_ISR+8,tblptru
  6557   000B36  C017  FFF7         	movff	??_ISR+7,tblptrh
  6558   000B3A  C016  FFF6         	movff	??_ISR+6,tblptrl
  6559   000B3E  C015  FFF4         	movff	??_ISR+5,prodh
  6560   000B42  C014  FFF3         	movff	??_ISR+4,prodl
  6561   000B46  9240               	bcf	btemp,1,c	;clear compiler interrupt flag (level 2)
  6562   000B48  0011               	retfie		f
  6563   000B4A                     __end_of_ISR:
  6564                           	callstack 0
  6565                           
  6566 ;; *************** function i2___lwdiv *****************
  6567 ;; Defined at:
  6568 ;;		line 7 in file "C:\Program Files\Microchip\xc8\v2.50\pic\sources\c90\common\lwdiv.c"
  6569 ;; Parameters:    Size  Location     Type
  6570 ;;  dividend        2    0[COMRAM] unsigned int 
  6571 ;;  divisor         2    2[COMRAM] unsigned int 
  6572 ;; Auto vars:     Size  Location     Type
  6573 ;;  quotient        2    4[COMRAM] unsigned int 
  6574 ;;  counter         1    6[COMRAM] unsigned char 
  6575 ;; Return value:  Size  Location     Type
  6576 ;;                  2    0[COMRAM] unsigned int 
  6577 ;; Registers used:
  6578 ;;		wreg, status,2, status,0
  6579 ;; Tracked objects:
  6580 ;;		On entry : 0/0
  6581 ;;		On exit  : 0/0
  6582 ;;		Unchanged: 0/0
  6583 ;; Data sizes:     COMRAM   BANK0   BANK1   BANK2   BANK3   BANK4   BANK5   BANK6   BANK7
  6584 ;;      Params:         4       0       0       0       0       0       0       0       0
  6585 ;;      Locals:         3       0       0       0       0       0       0       0       0
  6586 ;;      Temps:          0       0       0       0       0       0       0       0       0
  6587 ;;      Totals:         7       0       0       0       0       0       0       0       0
  6588 ;;Total ram usage:        7 bytes
  6589 ;; Hardware stack levels used: 1
  6590 ;; This function calls:
  6591 ;;		Nothing
  6592 ;; This function is called by:
  6593 ;;		_ISR
  6594 ;; This function uses a non-reentrant model
  6595 ;;
  6596                           
  6597                           	psect	text35
  6598   001386                     __ptext35:
  6599                           	callstack 0
  6600   001386                     i2___lwdiv:
  6601                           	callstack 22
  6602                           
  6603                           ;incstack = 0
  6604   001386  0E00               	movlw	0
  6605   001388  6E06               	movwf	(i2___lwdiv@quotient+1)^0,c
  6606   00138A  0E00               	movlw	0
  6607   00138C  6E05               	movwf	i2___lwdiv@quotient^0,c
  6608   00138E  5003               	movf	i2___lwdiv@divisor^0,w,c
  6609   001390  1004               	iorwf	(i2___lwdiv@divisor+1)^0,w,c
  6610   001392  B4D8               	btfsc	status,2,c
  6611   001394  D01C               	goto	i2l1083
  6612   001396  0E01               	movlw	1
  6613   001398  6E07               	movwf	i2___lwdiv@counter^0,c
  6614   00139A  D004               	goto	i2l3497
  6615   00139C                     i2l3495:
  6616   00139C  90D8               	bcf	status,0,c
  6617   00139E  3603               	rlcf	i2___lwdiv@divisor^0,f,c
  6618   0013A0  3604               	rlcf	(i2___lwdiv@divisor+1)^0,f,c
  6619   0013A2  2A07               	incf	i2___lwdiv@counter^0,f,c
  6620   0013A4                     i2l3497:
  6621   0013A4  AE04               	btfss	(i2___lwdiv@divisor+1)^0,7,c
  6622   0013A6  D7FA               	goto	i2l3495
  6623   0013A8                     i2u230_40:
  6624   0013A8  90D8               	bcf	status,0,c
  6625   0013AA  3605               	rlcf	i2___lwdiv@quotient^0,f,c
  6626   0013AC  3606               	rlcf	(i2___lwdiv@quotient+1)^0,f,c
  6627   0013AE  5003               	movf	i2___lwdiv@divisor^0,w,c
  6628   0013B0  5C01               	subwf	i2___lwdiv@dividend^0,w,c
  6629   0013B2  5004               	movf	(i2___lwdiv@divisor+1)^0,w,c
  6630   0013B4  5802               	subwfb	(i2___lwdiv@dividend+1)^0,w,c
  6631   0013B6  A0D8               	btfss	status,0,c
  6632   0013B8  D005               	goto	i2l3507
  6633   0013BA  5003               	movf	i2___lwdiv@divisor^0,w,c
  6634   0013BC  5E01               	subwf	i2___lwdiv@dividend^0,f,c
  6635   0013BE  5004               	movf	(i2___lwdiv@divisor+1)^0,w,c
  6636   0013C0  5A02               	subwfb	(i2___lwdiv@dividend+1)^0,f,c
  6637   0013C2  8005               	bsf	i2___lwdiv@quotient^0,0,c
  6638   0013C4                     i2l3507:
  6639   0013C4  90D8               	bcf	status,0,c
  6640   0013C6  3204               	rrcf	(i2___lwdiv@divisor+1)^0,f,c
  6641   0013C8  3203               	rrcf	i2___lwdiv@divisor^0,f,c
  6642   0013CA  2E07               	decfsz	i2___lwdiv@counter^0,f,c
  6643   0013CC  D7ED               	goto	i2u230_40
  6644   0013CE                     i2l1083:
  6645   0013CE  C005  F001         	movff	i2___lwdiv@quotient,?i2___lwdiv
  6646   0013D2  C006  F002         	movff	i2___lwdiv@quotient+1,?i2___lwdiv+1
  6647   0013D6  0012               	return		;funcret
  6648   0013D8                     __end_ofi2___lwdiv:
  6649                           	callstack 0
  6650                           
  6651 ;; *************** function i2___lldiv *****************
  6652 ;; Defined at:
  6653 ;;		line 7 in file "C:\Program Files\Microchip\xc8\v2.50\pic\sources\c90\common\__lldiv.c"
  6654 ;; Parameters:    Size  Location     Type
  6655 ;;  dividend        4    0[COMRAM] unsigned long 
  6656 ;;  divisor         4    4[COMRAM] unsigned long 
  6657 ;; Auto vars:     Size  Location     Type
  6658 ;;  quotient        4    8[COMRAM] unsigned long 
  6659 ;;  counter         1   12[COMRAM] unsigned char 
  6660 ;; Return value:  Size  Location     Type
  6661 ;;                  4    0[COMRAM] unsigned long 
  6662 ;; Registers used:
  6663 ;;		wreg, status,2, status,0
  6664 ;; Tracked objects:
  6665 ;;		On entry : 0/0
  6666 ;;		On exit  : 0/0
  6667 ;;		Unchanged: 0/0
  6668 ;; Data sizes:     COMRAM   BANK0   BANK1   BANK2   BANK3   BANK4   BANK5   BANK6   BANK7
  6669 ;;      Params:         8       0       0       0       0       0       0       0       0
  6670 ;;      Locals:         5       0       0       0       0       0       0       0       0
  6671 ;;      Temps:          0       0       0       0       0       0       0       0       0
  6672 ;;      Totals:        13       0       0       0       0       0       0       0       0
  6673 ;;Total ram usage:       13 bytes
  6674 ;; Hardware stack levels used: 1
  6675 ;; This function calls:
  6676 ;;		Nothing
  6677 ;; This function is called by:
  6678 ;;		_ISR
  6679 ;; This function uses a non-reentrant model
  6680 ;;
  6681                           
  6682                           	psect	text36
  6683   0010F4                     __ptext36:
  6684                           	callstack 0
  6685   0010F4                     i2___lldiv:
  6686                           	callstack 22
  6687                           
  6688                           ;incstack = 0
  6689   0010F4  0E00               	movlw	0
  6690   0010F6  6E09               	movwf	i2___lldiv@quotient^0,c
  6691   0010F8  0E00               	movlw	0
  6692   0010FA  6E0A               	movwf	(i2___lldiv@quotient+1)^0,c
  6693   0010FC  0E00               	movlw	0
  6694   0010FE  6E0B               	movwf	(i2___lldiv@quotient+2)^0,c
  6695   001100  0E00               	movlw	0
  6696   001102  6E0C               	movwf	(i2___lldiv@quotient+3)^0,c
  6697   001104  5005               	movf	i2___lldiv@divisor^0,w,c
  6698   001106  1006               	iorwf	(i2___lldiv@divisor+1)^0,w,c
  6699   001108  1007               	iorwf	(i2___lldiv@divisor+2)^0,w,c
  6700   00110A  1008               	iorwf	(i2___lldiv@divisor+3)^0,w,c
  6701   00110C  B4D8               	btfsc	status,2,c
  6702   00110E  D02A               	goto	i2l631
  6703   001110  0E01               	movlw	1
  6704   001112  6E0D               	movwf	i2___lldiv@counter^0,c
  6705   001114  D006               	goto	i2l3475
  6706   001116                     i2l3473:
  6707   001116  90D8               	bcf	status,0,c
  6708   001118  3605               	rlcf	i2___lldiv@divisor^0,f,c
  6709   00111A  3606               	rlcf	(i2___lldiv@divisor+1)^0,f,c
  6710   00111C  3607               	rlcf	(i2___lldiv@divisor+2)^0,f,c
  6711   00111E  3608               	rlcf	(i2___lldiv@divisor+3)^0,f,c
  6712   001120  2A0D               	incf	i2___lldiv@counter^0,f,c
  6713   001122                     i2l3475:
  6714   001122  AE08               	btfss	(i2___lldiv@divisor+3)^0,7,c
  6715   001124  D7F8               	goto	i2l3473
  6716   001126                     i2u227_40:
  6717   001126  90D8               	bcf	status,0,c
  6718   001128  3609               	rlcf	i2___lldiv@quotient^0,f,c
  6719   00112A  360A               	rlcf	(i2___lldiv@quotient+1)^0,f,c
  6720   00112C  360B               	rlcf	(i2___lldiv@quotient+2)^0,f,c
  6721   00112E  360C               	rlcf	(i2___lldiv@quotient+3)^0,f,c
  6722   001130  5005               	movf	i2___lldiv@divisor^0,w,c
  6723   001132  5C01               	subwf	i2___lldiv@dividend^0,w,c
  6724   001134  5006               	movf	(i2___lldiv@divisor+1)^0,w,c
  6725   001136  5802               	subwfb	(i2___lldiv@dividend+1)^0,w,c
  6726   001138  5007               	movf	(i2___lldiv@divisor+2)^0,w,c
  6727   00113A  5803               	subwfb	(i2___lldiv@dividend+2)^0,w,c
  6728   00113C  5008               	movf	(i2___lldiv@divisor+3)^0,w,c
  6729   00113E  5804               	subwfb	(i2___lldiv@dividend+3)^0,w,c
  6730   001140  A0D8               	btfss	status,0,c
  6731   001142  D009               	goto	i2l3485
  6732   001144  5005               	movf	i2___lldiv@divisor^0,w,c
  6733   001146  5E01               	subwf	i2___lldiv@dividend^0,f,c
  6734   001148  5006               	movf	(i2___lldiv@divisor+1)^0,w,c
  6735   00114A  5A02               	subwfb	(i2___lldiv@dividend+1)^0,f,c
  6736   00114C  5007               	movf	(i2___lldiv@divisor+2)^0,w,c
  6737   00114E  5A03               	subwfb	(i2___lldiv@dividend+2)^0,f,c
  6738   001150  5008               	movf	(i2___lldiv@divisor+3)^0,w,c
  6739   001152  5A04               	subwfb	(i2___lldiv@dividend+3)^0,f,c
  6740   001154  8009               	bsf	i2___lldiv@quotient^0,0,c
  6741   001156                     i2l3485:
  6742   001156  90D8               	bcf	status,0,c
  6743   001158  3208               	rrcf	(i2___lldiv@divisor+3)^0,f,c
  6744   00115A  3207               	rrcf	(i2___lldiv@divisor+2)^0,f,c
  6745   00115C  3206               	rrcf	(i2___lldiv@divisor+1)^0,f,c
  6746   00115E  3205               	rrcf	i2___lldiv@divisor^0,f,c
  6747   001160  2E0D               	decfsz	i2___lldiv@counter^0,f,c
  6748   001162  D7E1               	goto	i2u227_40
  6749   001164                     i2l631:
  6750   001164  C009  F001         	movff	i2___lldiv@quotient,?i2___lldiv
  6751   001168  C00A  F002         	movff	i2___lldiv@quotient+1,?i2___lldiv+1
  6752   00116C  C00B  F003         	movff	i2___lldiv@quotient+2,?i2___lldiv+2
  6753   001170  C00C  F004         	movff	i2___lldiv@quotient+3,?i2___lldiv+3
  6754   001174  0012               	return		;funcret
  6755   001176                     __end_ofi2___lldiv:
  6756                           	callstack 0
  6757                           
  6758 ;; *************** function i2_MensajeLCD_Var *****************
  6759 ;; Defined at:
  6760 ;;		line 236 in file "LibLCDXC8.h"
  6761 ;; Parameters:    Size  Location     Type
  6762 ;;  a               2    5[COMRAM] PTR unsigned char 
  6763 ;;		 -> STR_24(14), STR_23(14), STR_22(13), STR_21(17), 
  6764 ;;		 -> STR_20(12), STR_19(15), STR_18(14), STR_17(13), 
  6765 ;;		 -> STR_16(14), STR_15(13), STR_14(15), STR_13(16), 
  6766 ;;		 -> STR_10(11), STR_9(12), STR_6(13), STR_5(13), 
  6767 ;;		 -> STR_4(20), STR_3(19), STR_2(11), STR_1(18), 
  6768 ;; Auto vars:     Size  Location     Type
  6769 ;;  i               2    9[COMRAM] int 
  6770 ;; Return value:  Size  Location     Type
  6771 ;;                  1    wreg      void 
  6772 ;; Registers used:
  6773 ;;		wreg, status,2, status,0, tblptrl, tblptrh, tblptru, cstack
  6774 ;; Tracked objects:
  6775 ;;		On entry : 0/0
  6776 ;;		On exit  : 0/0
  6777 ;;		Unchanged: 0/0
  6778 ;; Data sizes:     COMRAM   BANK0   BANK1   BANK2   BANK3   BANK4   BANK5   BANK6   BANK7
  6779 ;;      Params:         2       0       0       0       0       0       0       0       0
  6780 ;;      Locals:         2       0       0       0       0       0       0       0       0
  6781 ;;      Temps:          2       0       0       0       0       0       0       0       0
  6782 ;;      Totals:         6       0       0       0       0       0       0       0       0
  6783 ;;Total ram usage:        6 bytes
  6784 ;; Hardware stack levels used: 1
  6785 ;; Hardware stack levels required when called: 3
  6786 ;; This function calls:
  6787 ;;		i2_EscribeLCD_c
  6788 ;; This function is called by:
  6789 ;;		_ISR
  6790 ;; This function uses a non-reentrant model
  6791 ;;
  6792                           
  6793                           	psect	text37
  6794   001470                     __ptext37:
  6795                           	callstack 0
  6796   001470                     i2_MensajeLCD_Var:
  6797                           	callstack 19
  6798                           
  6799                           ;LibLCDXC8.h: 241: for (int i=0;a[i] != '\0';i++){
  6800                           
  6801                           ;incstack = 0
  6802   001470  0E00               	movlw	0
  6803   001472  6E0B               	movwf	(i2MensajeLCD_Var@i+1)^0,c
  6804   001474  0E00               	movlw	0
  6805   001476  6E0A               	movwf	i2MensajeLCD_Var@i^0,c
  6806   001478  D010               	goto	i2l3457
  6807   00147A                     i2l3453:
  6808                           
  6809                           ;LibLCDXC8.h: 242: EscribeLCD_c(a[i]);
  6810   00147A  500A               	movf	i2MensajeLCD_Var@i^0,w,c
  6811   00147C  2406               	addwf	i2MensajeLCD_Var@a^0,w,c
  6812   00147E  6E08               	movwf	??i2_MensajeLCD_Var^0,c
  6813   001480  500B               	movf	(i2MensajeLCD_Var@i+1)^0,w,c
  6814   001482  2007               	addwfc	(i2MensajeLCD_Var@a+1)^0,w,c
  6815   001484  6E09               	movwf	(??i2_MensajeLCD_Var+1)^0,c
  6816   001486  C008  FFF6         	movff	??i2_MensajeLCD_Var,tblptrl
  6817   00148A  C009  FFF7         	movff	??i2_MensajeLCD_Var+1,tblptrh
  6818   00148E                     	if	0	;tblptru may be non-zero
  6819   00148E                     	endif
  6820   00148E                     	if	0	;tblptru may be non-zero
  6821   00148E                     	endif
  6822   00148E  0008               	tblrd		*
  6823   001490  50F5               	movf	tablat,w,c
  6824   001492  ECE4  F00B         	call	i2_EscribeLCD_c
  6825   001496  4A0A               	infsnz	i2MensajeLCD_Var@i^0,f,c
  6826   001498  2A0B               	incf	(i2MensajeLCD_Var@i+1)^0,f,c
  6827   00149A                     i2l3457:
  6828   00149A  500A               	movf	i2MensajeLCD_Var@i^0,w,c
  6829   00149C  2406               	addwf	i2MensajeLCD_Var@a^0,w,c
  6830   00149E  6E08               	movwf	??i2_MensajeLCD_Var^0,c
  6831   0014A0  500B               	movf	(i2MensajeLCD_Var@i+1)^0,w,c
  6832   0014A2  2007               	addwfc	(i2MensajeLCD_Var@a+1)^0,w,c
  6833   0014A4  6E09               	movwf	(??i2_MensajeLCD_Var+1)^0,c
  6834   0014A6  C008  FFF6         	movff	??i2_MensajeLCD_Var,tblptrl
  6835   0014AA  C009  FFF7         	movff	??i2_MensajeLCD_Var+1,tblptrh
  6836   0014AE                     	if	0	;tblptru may be non-zero
  6837   0014AE                     	endif
  6838   0014AE                     	if	0	;tblptru may be non-zero
  6839   0014AE                     	endif
  6840   0014AE  0008               	tblrd		*
  6841   0014B0  50F5               	movf	tablat,w,c
  6842   0014B2  0900               	iorlw	0
  6843   0014B4  B4D8               	btfsc	status,2,c
  6844   0014B6  0012               	return	
  6845   0014B8  D7E0               	goto	i2l3453
  6846   0014BA                     __end_ofi2_MensajeLCD_Var:
  6847                           	callstack 0
  6848                           
  6849 ;; *************** function i2_GuardarEEPROM *****************
  6850 ;; Defined at:
  6851 ;;		line 421 in file "Lab6.c"
  6852 ;; Parameters:    Size  Location     Type
  6853 ;;  direccion       2    0[COMRAM] unsigned int 
  6854 ;;  dato            1    2[COMRAM] unsigned char 
  6855 ;; Auto vars:     Size  Location     Type
  6856 ;;		None
  6857 ;; Return value:  Size  Location     Type
  6858 ;;                  1    wreg      void 
  6859 ;; Registers used:
  6860 ;;		wreg, status,2
  6861 ;; Tracked objects:
  6862 ;;		On entry : 0/0
  6863 ;;		On exit  : 0/0
  6864 ;;		Unchanged: 0/0
  6865 ;; Data sizes:     COMRAM   BANK0   BANK1   BANK2   BANK3   BANK4   BANK5   BANK6   BANK7
  6866 ;;      Params:         3       0       0       0       0       0       0       0       0
  6867 ;;      Locals:         0       0       0       0       0       0       0       0       0
  6868 ;;      Temps:          0       0       0       0       0       0       0       0       0
  6869 ;;      Totals:         3       0       0       0       0       0       0       0       0
  6870 ;;Total ram usage:        3 bytes
  6871 ;; Hardware stack levels used: 1
  6872 ;; This function calls:
  6873 ;;		Nothing
  6874 ;; This function is called by:
  6875 ;;		_ISR
  6876 ;; This function uses a non-reentrant model
  6877 ;;
  6878                           
  6879                           	psect	text38
  6880   001730                     __ptext38:
  6881                           	callstack 0
  6882   001730                     i2_GuardarEEPROM:
  6883                           	callstack 22
  6884                           
  6885                           ;Lab6.c: 422: EEADR = direccion;
  6886                           
  6887                           ;incstack = 0
  6888   001730  C001  FFA9         	movff	i2GuardarEEPROM@direccion,4009	;volatile
  6889                           
  6890                           ;Lab6.c: 423: EEDATA = dato;
  6891   001734  C003  FFA8         	movff	i2GuardarEEPROM@dato,4008	;volatile
  6892                           
  6893                           ;Lab6.c: 424: EECON1 = 0b0010;
  6894   001738  0E02               	movlw	2
  6895   00173A  6EA6               	movwf	166,c	;volsfr
  6896                           
  6897                           ;Lab6.c: 425: GIE = 0;
  6898   00173C  9EF2               	bcf	4082,7,c	;volatile
  6899                           
  6900                           ;Lab6.c: 426: EECON2 = 0x55;
  6901   00173E  0E55               	movlw	85
  6902   001740  6EA7               	movwf	167,c	;volsfr
  6903                           
  6904                           ;Lab6.c: 427: EECON2 = 0xAA;
  6905   001742  0EAA               	movlw	170
  6906   001744  6EA7               	movwf	167,c	;volsfr
  6907                           
  6908                           ;Lab6.c: 428: EECON1bits.WR = 1;
  6909   001746  82A6               	bsf	166,1,c	;volsfr
  6910   001748                     i2l424:
  6911   001748  B2A6               	btfsc	166,1,c	;volsfr
  6912   00174A  D7FE               	goto	i2l424
  6913                           
  6914                           ;Lab6.c: 430: GIE = 1;
  6915   00174C  8EF2               	bsf	4082,7,c	;volatile
  6916                           
  6917                           ;Lab6.c: 431: EECON1bits.WREN = 0;
  6918   00174E  94A6               	bcf	166,2,c	;volsfr
  6919   001750  0012               	return		;funcret
  6920   001752                     __end_ofi2_GuardarEEPROM:
  6921                           	callstack 0
  6922                           
  6923 ;; *************** function i2_ConfigurarPWM *****************
  6924 ;; Defined at:
  6925 ;;		line 397 in file "Lab6.c"
  6926 ;; Parameters:    Size  Location     Type
  6927 ;;		None
  6928 ;; Auto vars:     Size  Location     Type
  6929 ;;		None
  6930 ;; Return value:  Size  Location     Type
  6931 ;;                  1    wreg      void 
  6932 ;; Registers used:
  6933 ;;		wreg, status,2
  6934 ;; Tracked objects:
  6935 ;;		On entry : 0/0
  6936 ;;		On exit  : 0/0
  6937 ;;		Unchanged: 0/0
  6938 ;; Data sizes:     COMRAM   BANK0   BANK1   BANK2   BANK3   BANK4   BANK5   BANK6   BANK7
  6939 ;;      Params:         0       0       0       0       0       0       0       0       0
  6940 ;;      Locals:         0       0       0       0       0       0       0       0       0
  6941 ;;      Temps:          0       0       0       0       0       0       0       0       0
  6942 ;;      Totals:         0       0       0       0       0       0       0       0       0
  6943 ;;Total ram usage:        0 bytes
  6944 ;; Hardware stack levels used: 1
  6945 ;; This function calls:
  6946 ;;		Nothing
  6947 ;; This function is called by:
  6948 ;;		_ISR
  6949 ;; This function uses a non-reentrant model
  6950 ;;
  6951                           
  6952                           	psect	text39
  6953   001862                     __ptext39:
  6954                           	callstack 0
  6955   001862                     i2_ConfigurarPWM:
  6956                           	callstack 22
  6957                           
  6958                           ;Lab6.c: 400: PR2 = 249;
  6959                           
  6960                           ;incstack = 0
  6961   001862  0EF9               	movlw	249
  6962   001864  6ECB               	movwf	203,c	;volatile
  6963                           
  6964                           ;Lab6.c: 401: CCP1CON = 0b00001100;
  6965   001866  0E0C               	movlw	12
  6966   001868  6EBD               	movwf	189,c	;volatile
  6967                           
  6968                           ;Lab6.c: 402: T2CON = 0b00000100;
  6969   00186A  0E04               	movlw	4
  6970   00186C  6ECA               	movwf	202,c	;volatile
  6971   00186E  0012               	return		;funcret
  6972   001870                     __end_ofi2_ConfigurarPWM:
  6973                           	callstack 0
  6974                           
  6975 ;; *************** function _ConfigPregunta *****************
  6976 ;; Defined at:
  6977 ;;		line 737 in file "Lab6.c"
  6978 ;; Parameters:    Size  Location     Type
  6979 ;;		None
  6980 ;; Auto vars:     Size  Location     Type
  6981 ;;		None
  6982 ;; Return value:  Size  Location     Type
  6983 ;;                  1    wreg      void 
  6984 ;; Registers used:
  6985 ;;		wreg, status,2, status,0, prodl, prodh, cstack
  6986 ;; Tracked objects:
  6987 ;;		On entry : 0/0
  6988 ;;		On exit  : 0/0
  6989 ;;		Unchanged: 0/0
  6990 ;; Data sizes:     COMRAM   BANK0   BANK1   BANK2   BANK3   BANK4   BANK5   BANK6   BANK7
  6991 ;;      Params:         0       0       0       0       0       0       0       0       0
  6992 ;;      Locals:         0       0       0       0       0       0       0       0       0
  6993 ;;      Temps:          2       0       0       0       0       0       0       0       0
  6994 ;;      Totals:         2       0       0       0       0       0       0       0       0
  6995 ;;Total ram usage:        2 bytes
  6996 ;; Hardware stack levels used: 1
  6997 ;; Hardware stack levels required when called: 6
  6998 ;; This function calls:
  6999 ;;		i2_EscribeLCD_n8
  7000 ;;		i2_OcultarCursor
  7001 ;; This function is called by:
  7002 ;;		_ISR
  7003 ;; This function uses a non-reentrant model
  7004 ;;
  7005                           
  7006                           	psect	text40
  7007   0011D6                     __ptext40:
  7008                           	callstack 0
  7009   0011D6                     _ConfigPregunta:
  7010                           	callstack 16
  7011                           
  7012                           ;Lab6.c: 738: if(posicion==0 && editor==1){
  7013                           
  7014                           ;incstack = 0
  7015   0011D6  503D               	movf	_posicion^0,w,c
  7016   0011D8  A4D8               	btfss	status,2,c
  7017   0011DA  D00C               	goto	i2l3391
  7018   0011DC  043C               	decf	_editor^0,w,c
  7019   0011DE  A4D8               	btfss	status,2,c
  7020   0011E0  D009               	goto	i2l3391
  7021                           
  7022                           ;Lab6.c: 739: EscribeLCD_n8(Tecla,1);
  7023   0011E2  0E01               	movlw	1
  7024   0011E4  6E09               	movwf	i2EscribeLCD_n8@b^0,c
  7025   0011E6  503A               	movf	_Tecla^0,w,c
  7026   0011E8  EC24  F007         	call	i2_EscribeLCD_n8
  7027                           
  7028                           ;Lab6.c: 740: Objetivo=Tecla;
  7029   0011EC  C03A  F02B         	movff	_Tecla,_Objetivo
  7030   0011F0  6A2C               	clrf	(_Objetivo+1)^0,c
  7031                           
  7032                           ;Lab6.c: 741: }else if(posicion==1 && editor==1){
  7033   0011F2  D01C               	goto	i2l3401
  7034   0011F4                     i2l3391:
  7035   0011F4  043D               	decf	_posicion^0,w,c
  7036   0011F6  A4D8               	btfss	status,2,c
  7037   0011F8  D019               	goto	i2l3401
  7038   0011FA  043C               	decf	_editor^0,w,c
  7039   0011FC  A4D8               	btfss	status,2,c
  7040   0011FE  D016               	goto	i2l3401
  7041                           
  7042                           ;Lab6.c: 742: EscribeLCD_n8(Tecla,1);
  7043   001200  0E01               	movlw	1
  7044   001202  6E09               	movwf	i2EscribeLCD_n8@b^0,c
  7045   001204  503A               	movf	_Tecla^0,w,c
  7046   001206  EC24  F007         	call	i2_EscribeLCD_n8
  7047                           
  7048                           ;Lab6.c: 743: Objetivo=Objetivo*10+Tecla;
  7049   00120A  0E0A               	movlw	10
  7050   00120C  022B               	mulwf	_Objetivo^0,c
  7051   00120E  CFF3 F00E          	movff	prodl,??_ConfigPregunta
  7052   001212  CFF4 F00F          	movff	prodh,??_ConfigPregunta+1
  7053   001216  022C               	mulwf	(_Objetivo+1)^0,c
  7054   001218  50F3               	movf	prodl,w,c
  7055   00121A  260F               	addwf	(??_ConfigPregunta+1)^0,f,c
  7056   00121C  503A               	movf	_Tecla^0,w,c
  7057   00121E  240E               	addwf	??_ConfigPregunta^0,w,c
  7058   001220  6E2B               	movwf	_Objetivo^0,c
  7059   001222  0E00               	movlw	0
  7060   001224  200F               	addwfc	(??_ConfigPregunta+1)^0,w,c
  7061   001226  6E2C               	movwf	(_Objetivo+1)^0,c
  7062                           
  7063                           ;Lab6.c: 744: OcultarCursor();
  7064   001228  EC55  F00C         	call	i2_OcultarCursor	;wreg free
  7065   00122C                     i2l3401:
  7066                           
  7067                           ;Lab6.c: 745: };Lab6.c: 746: posicion++;
  7068   00122C  2A3D               	incf	_posicion^0,f,c
  7069   00122E  0012               	return		;funcret
  7070   001230                     __end_of_ConfigPregunta:
  7071                           	callstack 0
  7072                           
  7073 ;; *************** function i2_OcultarCursor *****************
  7074 ;; Defined at:
  7075 ;;		line 323 in file "LibLCDXC8.h"
  7076 ;; Parameters:    Size  Location     Type
  7077 ;;		None
  7078 ;; Auto vars:     Size  Location     Type
  7079 ;;		None
  7080 ;; Return value:  Size  Location     Type
  7081 ;;                  1    wreg      void 
  7082 ;; Registers used:
  7083 ;;		wreg, status,2, status,0, cstack
  7084 ;; Tracked objects:
  7085 ;;		On entry : 0/0
  7086 ;;		On exit  : 0/0
  7087 ;;		Unchanged: 0/0
  7088 ;; Data sizes:     COMRAM   BANK0   BANK1   BANK2   BANK3   BANK4   BANK5   BANK6   BANK7
  7089 ;;      Params:         0       0       0       0       0       0       0       0       0
  7090 ;;      Locals:         0       0       0       0       0       0       0       0       0
  7091 ;;      Temps:          0       0       0       0       0       0       0       0       0
  7092 ;;      Totals:         0       0       0       0       0       0       0       0       0
  7093 ;;Total ram usage:        0 bytes
  7094 ;; Hardware stack levels used: 1
  7095 ;; Hardware stack levels required when called: 5
  7096 ;; This function calls:
  7097 ;;		i2_ComandoLCD
  7098 ;; This function is called by:
  7099 ;;		_ISR
  7100 ;;		_ConfigPregunta
  7101 ;; This function uses a non-reentrant model
  7102 ;;
  7103                           
  7104                           	psect	text41
  7105   0018AA                     __ptext41:
  7106                           	callstack 0
  7107   0018AA                     i2_OcultarCursor:
  7108                           	callstack 17
  7109                           
  7110                           ;LibLCDXC8.h: 324: ComandoLCD(0xC);
  7111                           
  7112                           ;incstack = 0
  7113   0018AA  0E0C               	movlw	12
  7114   0018AC  EC19  F00B         	call	i2_ComandoLCD
  7115   0018B0  0012               	return		;funcret
  7116   0018B2                     __end_ofi2_OcultarCursor:
  7117                           	callstack 0
  7118                           
  7119 ;; *************** function i2_EscribeLCD_n8 *****************
  7120 ;; Defined at:
  7121 ;;		line 149 in file "LibLCDXC8.h"
  7122 ;; Parameters:    Size  Location     Type
  7123 ;;  a               1    wreg     unsigned char 
  7124 ;;  b               1    8[COMRAM] unsigned char 
  7125 ;; Auto vars:     Size  Location     Type
  7126 ;;  a               1   12[COMRAM] unsigned char 
  7127 ;;  unidad          1   11[COMRAM] unsigned char 
  7128 ;;  decena          1   10[COMRAM] unsigned char 
  7129 ;;  centena         1    9[COMRAM] unsigned char 
  7130 ;; Return value:  Size  Location     Type
  7131 ;;                  1    wreg      void 
  7132 ;; Registers used:
  7133 ;;		wreg, status,2, status,0, cstack
  7134 ;; Tracked objects:
  7135 ;;		On entry : 0/0
  7136 ;;		On exit  : 0/0
  7137 ;;		Unchanged: 0/0
  7138 ;; Data sizes:     COMRAM   BANK0   BANK1   BANK2   BANK3   BANK4   BANK5   BANK6   BANK7
  7139 ;;      Params:         1       0       0       0       0       0       0       0       0
  7140 ;;      Locals:         4       0       0       0       0       0       0       0       0
  7141 ;;      Temps:          0       0       0       0       0       0       0       0       0
  7142 ;;      Totals:         5       0       0       0       0       0       0       0       0
  7143 ;;Total ram usage:        5 bytes
  7144 ;; Hardware stack levels used: 1
  7145 ;; Hardware stack levels required when called: 2
  7146 ;; This function calls:
  7147 ;;		i2_EnviaDato
  7148 ;;		i2_HabilitaLCD
  7149 ;;		i2_RetardoLCD
  7150 ;;		i2___lbdiv
  7151 ;;		i2___lbmod
  7152 ;; This function is called by:
  7153 ;;		_ISR
  7154 ;;		_ConfigPregunta
  7155 ;; This function uses a non-reentrant model
  7156 ;;
  7157                           
  7158                           	psect	text42
  7159   000E48                     __ptext42:
  7160                           	callstack 0
  7161   000E48                     i2_EscribeLCD_n8:
  7162                           	callstack 20
  7163                           
  7164                           ;incstack = 0
  7165                           ;i2EscribeLCD_n8@a stored from wreg
  7166   000E48  6E0D               	movwf	i2EscribeLCD_n8@a^0,c
  7167                           
  7168                           ;LibLCDXC8.h: 154: unsigned char centena,decena,unidad;;LibLCDXC8.h: 155: LATA4=1;
  7169   000E4A  8889               	bsf	3977,4,c	;volatile
  7170                           
  7171                           ;LibLCDXC8.h: 156: switch(b){
  7172   000E4C  D065               	goto	i2l3185
  7173   000E4E                     i2l3153:
  7174   000E4E  0E0A               	movlw	10
  7175   000E50  6E01               	movwf	i2___lbmod@divisor^0,c
  7176   000E52  500D               	movf	i2EscribeLCD_n8@a^0,w,c
  7177   000E54  EC73  F00B         	call	i2___lbmod
  7178   000E58  6E0C               	movwf	i2EscribeLCD_n8@unidad^0,c
  7179                           
  7180                           ;LibLCDXC8.h: 158: EnviaDato(unidad+48);
  7181   000E5A  500C               	movf	i2EscribeLCD_n8@unidad^0,w,c
  7182   000E5C  0F30               	addlw	48
  7183   000E5E  EC80  F00A         	call	i2_EnviaDato
  7184                           
  7185                           ;LibLCDXC8.h: 159: HabilitaLCD();
  7186   000E62  EC38  F00C         	call	i2_HabilitaLCD	;wreg free
  7187                           
  7188                           ;LibLCDXC8.h: 160: RetardoLCD(4);
  7189   000E66  0E04               	movlw	4
  7190   000E68  EC6E  F009         	call	i2_RetardoLCD
  7191                           
  7192                           ;LibLCDXC8.h: 161: break;
  7193   000E6C  0012               	return	
  7194   000E6E                     i2l3159:
  7195   000E6E  0E0A               	movlw	10
  7196   000E70  6E05               	movwf	i2___lbdiv@divisor^0,c
  7197   000E72  0E64               	movlw	100
  7198   000E74  6E01               	movwf	i2___lbmod@divisor^0,c
  7199   000E76  500D               	movf	i2EscribeLCD_n8@a^0,w,c
  7200   000E78  EC73  F00B         	call	i2___lbmod
  7201   000E7C  ECE2  F00A         	call	i2___lbdiv
  7202   000E80  6E0B               	movwf	i2EscribeLCD_n8@decena^0,c
  7203                           
  7204                           ;LibLCDXC8.h: 163: unidad=a%10;
  7205   000E82  0E0A               	movlw	10
  7206   000E84  6E01               	movwf	i2___lbmod@divisor^0,c
  7207   000E86  500D               	movf	i2EscribeLCD_n8@a^0,w,c
  7208   000E88  EC73  F00B         	call	i2___lbmod
  7209   000E8C  6E0C               	movwf	i2EscribeLCD_n8@unidad^0,c
  7210                           
  7211                           ;LibLCDXC8.h: 164: EnviaDato(decena+48);
  7212   000E8E  500B               	movf	i2EscribeLCD_n8@decena^0,w,c
  7213   000E90  0F30               	addlw	48
  7214   000E92  EC80  F00A         	call	i2_EnviaDato
  7215                           
  7216                           ;LibLCDXC8.h: 165: HabilitaLCD();
  7217   000E96  EC38  F00C         	call	i2_HabilitaLCD	;wreg free
  7218                           
  7219                           ;LibLCDXC8.h: 166: RetardoLCD(4);
  7220   000E9A  0E04               	movlw	4
  7221   000E9C  EC6E  F009         	call	i2_RetardoLCD
  7222                           
  7223                           ;LibLCDXC8.h: 167: EnviaDato(unidad+48);
  7224   000EA0  500C               	movf	i2EscribeLCD_n8@unidad^0,w,c
  7225   000EA2  0F30               	addlw	48
  7226   000EA4  EC80  F00A         	call	i2_EnviaDato
  7227                           
  7228                           ;LibLCDXC8.h: 168: HabilitaLCD();
  7229   000EA8  EC38  F00C         	call	i2_HabilitaLCD	;wreg free
  7230                           
  7231                           ;LibLCDXC8.h: 169: RetardoLCD(4);
  7232   000EAC  0E04               	movlw	4
  7233   000EAE  EC6E  F009         	call	i2_RetardoLCD
  7234                           
  7235                           ;LibLCDXC8.h: 170: break;
  7236   000EB2  0012               	return	
  7237   000EB4                     i2l3169:
  7238   000EB4  0E64               	movlw	100
  7239   000EB6  6E05               	movwf	i2___lbdiv@divisor^0,c
  7240   000EB8  500D               	movf	i2EscribeLCD_n8@a^0,w,c
  7241   000EBA  ECE2  F00A         	call	i2___lbdiv
  7242   000EBE  6E0A               	movwf	i2EscribeLCD_n8@centena^0,c
  7243                           
  7244                           ;LibLCDXC8.h: 172: decena=(a%100)/10;
  7245   000EC0  0E0A               	movlw	10
  7246   000EC2  6E05               	movwf	i2___lbdiv@divisor^0,c
  7247   000EC4  0E64               	movlw	100
  7248   000EC6  6E01               	movwf	i2___lbmod@divisor^0,c
  7249   000EC8  500D               	movf	i2EscribeLCD_n8@a^0,w,c
  7250   000ECA  EC73  F00B         	call	i2___lbmod
  7251   000ECE  ECE2  F00A         	call	i2___lbdiv
  7252   000ED2  6E0B               	movwf	i2EscribeLCD_n8@decena^0,c
  7253                           
  7254                           ;LibLCDXC8.h: 173: unidad=a%10;
  7255   000ED4  0E0A               	movlw	10
  7256   000ED6  6E01               	movwf	i2___lbmod@divisor^0,c
  7257   000ED8  500D               	movf	i2EscribeLCD_n8@a^0,w,c
  7258   000EDA  EC73  F00B         	call	i2___lbmod
  7259   000EDE  6E0C               	movwf	i2EscribeLCD_n8@unidad^0,c
  7260                           
  7261                           ;LibLCDXC8.h: 174: EnviaDato(centena+48);
  7262   000EE0  500A               	movf	i2EscribeLCD_n8@centena^0,w,c
  7263   000EE2  0F30               	addlw	48
  7264   000EE4  EC80  F00A         	call	i2_EnviaDato
  7265                           
  7266                           ;LibLCDXC8.h: 175: HabilitaLCD();
  7267   000EE8  EC38  F00C         	call	i2_HabilitaLCD	;wreg free
  7268                           
  7269                           ;LibLCDXC8.h: 176: RetardoLCD(4);
  7270   000EEC  0E04               	movlw	4
  7271   000EEE  EC6E  F009         	call	i2_RetardoLCD
  7272                           
  7273                           ;LibLCDXC8.h: 177: EnviaDato(decena+48);
  7274   000EF2  500B               	movf	i2EscribeLCD_n8@decena^0,w,c
  7275   000EF4  0F30               	addlw	48
  7276   000EF6  EC80  F00A         	call	i2_EnviaDato
  7277                           
  7278                           ;LibLCDXC8.h: 178: HabilitaLCD();
  7279   000EFA  EC38  F00C         	call	i2_HabilitaLCD	;wreg free
  7280                           
  7281                           ;LibLCDXC8.h: 179: RetardoLCD(4);
  7282   000EFE  0E04               	movlw	4
  7283   000F00  EC6E  F009         	call	i2_RetardoLCD
  7284                           
  7285                           ;LibLCDXC8.h: 180: EnviaDato(unidad+48);
  7286   000F04  500C               	movf	i2EscribeLCD_n8@unidad^0,w,c
  7287   000F06  0F30               	addlw	48
  7288   000F08  EC80  F00A         	call	i2_EnviaDato
  7289                           
  7290                           ;LibLCDXC8.h: 181: HabilitaLCD();
  7291   000F0C  EC38  F00C         	call	i2_HabilitaLCD	;wreg free
  7292                           
  7293                           ;LibLCDXC8.h: 182: RetardoLCD(4);
  7294   000F10  0E04               	movlw	4
  7295   000F12  EC6E  F009         	call	i2_RetardoLCD
  7296                           
  7297                           ;LibLCDXC8.h: 183: break;
  7298   000F16  0012               	return	
  7299   000F18                     i2l3185:
  7300   000F18  5009               	movf	i2EscribeLCD_n8@b^0,w,c
  7301                           
  7302                           ; Switch size 1, requested type "simple"
  7303                           ; Number of cases is 3, Range of values is 1 to 3
  7304                           ; switch strategies available:
  7305                           ; Name         Instructions Cycles
  7306                           ; simple_byte           10     6 (average)
  7307                           ;	Chosen strategy is simple_byte
  7308   000F1A  0A01               	xorlw	1	; case 1
  7309   000F1C  B4D8               	btfsc	status,2,c
  7310   000F1E  D797               	goto	i2l3153
  7311   000F20  0A03               	xorlw	3	; case 2
  7312   000F22  B4D8               	btfsc	status,2,c
  7313   000F24  D7A4               	goto	i2l3159
  7314   000F26  0A01               	xorlw	1	; case 3
  7315   000F28  A4D8               	btfss	status,2,c
  7316   000F2A  0012               	return	
  7317   000F2C  D7C3               	goto	i2l3169
  7318   000F2E                     __end_ofi2_EscribeLCD_n8:
  7319                           	callstack 0
  7320                           
  7321 ;; *************** function i2___lbmod *****************
  7322 ;; Defined at:
  7323 ;;		line 4 in file "C:\Program Files\Microchip\xc8\v2.50\pic\sources\c90\common\lbmod.c"
  7324 ;; Parameters:    Size  Location     Type
  7325 ;;  dividend        1    wreg     unsigned char 
  7326 ;;  divisor         1    0[COMRAM] unsigned char 
  7327 ;; Auto vars:     Size  Location     Type
  7328 ;;  dividend        1    1[COMRAM] unsigned char 
  7329 ;;  rem             1    3[COMRAM] unsigned char 
  7330 ;;  counter         1    2[COMRAM] unsigned char 
  7331 ;; Return value:  Size  Location     Type
  7332 ;;                  1    wreg      unsigned char 
  7333 ;; Registers used:
  7334 ;;		wreg, status,2, status,0
  7335 ;; Tracked objects:
  7336 ;;		On entry : 0/0
  7337 ;;		On exit  : 0/0
  7338 ;;		Unchanged: 0/0
  7339 ;; Data sizes:     COMRAM   BANK0   BANK1   BANK2   BANK3   BANK4   BANK5   BANK6   BANK7
  7340 ;;      Params:         1       0       0       0       0       0       0       0       0
  7341 ;;      Locals:         3       0       0       0       0       0       0       0       0
  7342 ;;      Temps:          0       0       0       0       0       0       0       0       0
  7343 ;;      Totals:         4       0       0       0       0       0       0       0       0
  7344 ;;Total ram usage:        4 bytes
  7345 ;; Hardware stack levels used: 1
  7346 ;; This function calls:
  7347 ;;		Nothing
  7348 ;; This function is called by:
  7349 ;;		i2_EscribeLCD_n8
  7350 ;; This function uses a non-reentrant model
  7351 ;;
  7352                           
  7353                           	psect	text43
  7354   0016E6                     __ptext43:
  7355                           	callstack 0
  7356   0016E6                     i2___lbmod:
  7357                           	callstack 21
  7358                           
  7359                           ;incstack = 0
  7360                           ;i2___lbmod@dividend stored from wreg
  7361   0016E6  6E02               	movwf	i2___lbmod@dividend^0,c
  7362   0016E8  0E08               	movlw	8
  7363   0016EA  6E03               	movwf	i2___lbmod@counter^0,c
  7364   0016EC  6A04               	clrf	i2___lbmod@rem^0,c
  7365   0016EE                     i2l2939:
  7366   0016EE  90D8               	bcf	status,0,c
  7367   0016F0  3402               	rlcf	i2___lbmod@dividend^0,w,c
  7368   0016F2  3404               	rlcf	i2___lbmod@rem^0,w,c
  7369   0016F4  6E04               	movwf	i2___lbmod@rem^0,c
  7370   0016F6  90D8               	bcf	status,0,c
  7371   0016F8  3602               	rlcf	i2___lbmod@dividend^0,f,c
  7372   0016FA  5001               	movf	i2___lbmod@divisor^0,w,c
  7373   0016FC  5C04               	subwf	i2___lbmod@rem^0,w,c
  7374   0016FE  A0D8               	btfss	status,0,c
  7375   001700  D002               	goto	i2l2947
  7376   001702  5001               	movf	i2___lbmod@divisor^0,w,c
  7377   001704  5E04               	subwf	i2___lbmod@rem^0,f,c
  7378   001706                     i2l2947:
  7379   001706  2E03               	decfsz	i2___lbmod@counter^0,f,c
  7380   001708  D7F2               	goto	i2l2939
  7381   00170A  5004               	movf	i2___lbmod@rem^0,w,c
  7382   00170C  0012               	return		;funcret
  7383   00170E                     __end_ofi2___lbmod:
  7384                           	callstack 0
  7385                           
  7386 ;; *************** function i2___lbdiv *****************
  7387 ;; Defined at:
  7388 ;;		line 4 in file "C:\Program Files\Microchip\xc8\v2.50\pic\sources\c90\common\lbdiv.c"
  7389 ;; Parameters:    Size  Location     Type
  7390 ;;  dividend        1    wreg     unsigned char 
  7391 ;;  divisor         1    4[COMRAM] unsigned char 
  7392 ;; Auto vars:     Size  Location     Type
  7393 ;;  dividend        1    5[COMRAM] unsigned char 
  7394 ;;  quotient        1    7[COMRAM] unsigned char 
  7395 ;;  counter         1    6[COMRAM] unsigned char 
  7396 ;; Return value:  Size  Location     Type
  7397 ;;                  1    wreg      unsigned char 
  7398 ;; Registers used:
  7399 ;;		wreg, status,2, status,0
  7400 ;; Tracked objects:
  7401 ;;		On entry : 0/0
  7402 ;;		On exit  : 0/0
  7403 ;;		Unchanged: 0/0
  7404 ;; Data sizes:     COMRAM   BANK0   BANK1   BANK2   BANK3   BANK4   BANK5   BANK6   BANK7
  7405 ;;      Params:         1       0       0       0       0       0       0       0       0
  7406 ;;      Locals:         3       0       0       0       0       0       0       0       0
  7407 ;;      Temps:          0       0       0       0       0       0       0       0       0
  7408 ;;      Totals:         4       0       0       0       0       0       0       0       0
  7409 ;;Total ram usage:        4 bytes
  7410 ;; Hardware stack levels used: 1
  7411 ;; This function calls:
  7412 ;;		Nothing
  7413 ;; This function is called by:
  7414 ;;		i2_EscribeLCD_n8
  7415 ;; This function uses a non-reentrant model
  7416 ;;
  7417                           
  7418                           	psect	text44
  7419   0015C4                     __ptext44:
  7420                           	callstack 0
  7421   0015C4                     i2___lbdiv:
  7422                           	callstack 21
  7423                           
  7424                           ;incstack = 0
  7425                           ;i2___lbdiv@dividend stored from wreg
  7426   0015C4  6E06               	movwf	i2___lbdiv@dividend^0,c
  7427   0015C6  6A08               	clrf	i2___lbdiv@quotient^0,c
  7428   0015C8  5005               	movf	i2___lbdiv@divisor^0,w,c
  7429   0015CA  B4D8               	btfsc	status,2,c
  7430   0015CC  D015               	goto	i2l2931
  7431   0015CE  0E01               	movlw	1
  7432   0015D0  6E07               	movwf	i2___lbdiv@counter^0,c
  7433   0015D2  D003               	goto	i2l2919
  7434   0015D4                     i2l2915:
  7435   0015D4  90D8               	bcf	status,0,c
  7436   0015D6  3605               	rlcf	i2___lbdiv@divisor^0,f,c
  7437   0015D8  2A07               	incf	i2___lbdiv@counter^0,f,c
  7438   0015DA                     i2l2919:
  7439   0015DA  AE05               	btfss	i2___lbdiv@divisor^0,7,c
  7440   0015DC  D7FB               	goto	i2l2915
  7441   0015DE                     i2u180_40:
  7442   0015DE  90D8               	bcf	status,0,c
  7443   0015E0  3608               	rlcf	i2___lbdiv@quotient^0,f,c
  7444   0015E2  5005               	movf	i2___lbdiv@divisor^0,w,c
  7445   0015E4  5C06               	subwf	i2___lbdiv@dividend^0,w,c
  7446   0015E6  A0D8               	btfss	status,0,c
  7447   0015E8  D003               	goto	i2l2927
  7448   0015EA  5005               	movf	i2___lbdiv@divisor^0,w,c
  7449   0015EC  5E06               	subwf	i2___lbdiv@dividend^0,f,c
  7450   0015EE  8008               	bsf	i2___lbdiv@quotient^0,0,c
  7451   0015F0                     i2l2927:
  7452   0015F0  90D8               	bcf	status,0,c
  7453   0015F2  3205               	rrcf	i2___lbdiv@divisor^0,f,c
  7454   0015F4  2E07               	decfsz	i2___lbdiv@counter^0,f,c
  7455   0015F6  D7F3               	goto	i2u180_40
  7456   0015F8                     i2l2931:
  7457   0015F8  5008               	movf	i2___lbdiv@quotient^0,w,c
  7458   0015FA  0012               	return		;funcret
  7459   0015FC                     __end_ofi2___lbdiv:
  7460                           	callstack 0
  7461                           
  7462 ;; *************** function _Borrar *****************
  7463 ;; Defined at:
  7464 ;;		line 748 in file "Lab6.c"
  7465 ;; Parameters:    Size  Location     Type
  7466 ;;		None
  7467 ;; Auto vars:     Size  Location     Type
  7468 ;;		None
  7469 ;; Return value:  Size  Location     Type
  7470 ;;                  1    wreg      void 
  7471 ;; Registers used:
  7472 ;;		wreg, status,2, status,0, cstack
  7473 ;; Tracked objects:
  7474 ;;		On entry : 0/0
  7475 ;;		On exit  : 0/0
  7476 ;;		Unchanged: 0/0
  7477 ;; Data sizes:     COMRAM   BANK0   BANK1   BANK2   BANK3   BANK4   BANK5   BANK6   BANK7
  7478 ;;      Params:         0       0       0       0       0       0       0       0       0
  7479 ;;      Locals:         0       0       0       0       0       0       0       0       0
  7480 ;;      Temps:          0       0       0       0       0       0       0       0       0
  7481 ;;      Totals:         0       0       0       0       0       0       0       0       0
  7482 ;;Total ram usage:        0 bytes
  7483 ;; Hardware stack levels used: 1
  7484 ;; Hardware stack levels required when called: 6
  7485 ;; This function calls:
  7486 ;;		i2_DireccionaLCD
  7487 ;;		i2_EscribeLCD_c
  7488 ;;		i2_MostrarCursor
  7489 ;; This function is called by:
  7490 ;;		_ISR
  7491 ;; This function uses a non-reentrant model
  7492 ;;
  7493                           
  7494                           	psect	text45
  7495   001664                     __ptext45:
  7496                           	callstack 0
  7497   001664                     _Borrar:
  7498                           	callstack 16
  7499                           
  7500                           ;Lab6.c: 749: if(editor==1){
  7501                           
  7502                           ;incstack = 0
  7503   001664  043C               	decf	_editor^0,w,c
  7504   001666  A4D8               	btfss	status,2,c
  7505   001668  0012               	return	
  7506                           
  7507                           ;Lab6.c: 750: MostrarCursor();
  7508   00166A  EC59  F00C         	call	i2_MostrarCursor	;wreg free
  7509                           
  7510                           ;Lab6.c: 751: Objetivo=0;
  7511   00166E  0E00               	movlw	0
  7512   001670  6E2C               	movwf	(_Objetivo+1)^0,c
  7513   001672  0E00               	movlw	0
  7514   001674  6E2B               	movwf	_Objetivo^0,c
  7515                           
  7516                           ;Lab6.c: 752: posicion=0;
  7517   001676  6A3D               	clrf	_posicion^0,c
  7518                           
  7519                           ;Lab6.c: 753: DireccionaLCD(0xC7);
  7520   001678  0EC7               	movlw	199
  7521   00167A  ECD9  F00B         	call	i2_DireccionaLCD
  7522                           
  7523                           ;Lab6.c: 754: EscribeLCD_c(1);
  7524   00167E  0E01               	movlw	1
  7525   001680  ECE4  F00B         	call	i2_EscribeLCD_c
  7526                           
  7527                           ;Lab6.c: 755: EscribeLCD_c(1);
  7528   001684  0E01               	movlw	1
  7529   001686  ECE4  F00B         	call	i2_EscribeLCD_c
  7530                           
  7531                           ;Lab6.c: 756: DireccionaLCD(0xC7);
  7532   00168A  0EC7               	movlw	199
  7533   00168C  ECD9  F00B         	call	i2_DireccionaLCD
  7534   001690  0012               	return		;funcret
  7535   001692                     __end_of_Borrar:
  7536                           	callstack 0
  7537                           
  7538 ;; *************** function i2_MostrarCursor *****************
  7539 ;; Defined at:
  7540 ;;		line 326 in file "LibLCDXC8.h"
  7541 ;; Parameters:    Size  Location     Type
  7542 ;;		None
  7543 ;; Auto vars:     Size  Location     Type
  7544 ;;		None
  7545 ;; Return value:  Size  Location     Type
  7546 ;;                  1    wreg      void 
  7547 ;; Registers used:
  7548 ;;		wreg, status,2, status,0, cstack
  7549 ;; Tracked objects:
  7550 ;;		On entry : 0/0
  7551 ;;		On exit  : 0/0
  7552 ;;		Unchanged: 0/0
  7553 ;; Data sizes:     COMRAM   BANK0   BANK1   BANK2   BANK3   BANK4   BANK5   BANK6   BANK7
  7554 ;;      Params:         0       0       0       0       0       0       0       0       0
  7555 ;;      Locals:         0       0       0       0       0       0       0       0       0
  7556 ;;      Temps:          0       0       0       0       0       0       0       0       0
  7557 ;;      Totals:         0       0       0       0       0       0       0       0       0
  7558 ;;Total ram usage:        0 bytes
  7559 ;; Hardware stack levels used: 1
  7560 ;; Hardware stack levels required when called: 5
  7561 ;; This function calls:
  7562 ;;		i2_ComandoLCD
  7563 ;; This function is called by:
  7564 ;;		_Borrar
  7565 ;; This function uses a non-reentrant model
  7566 ;;
  7567                           
  7568                           	psect	text46
  7569   0018B2                     __ptext46:
  7570                           	callstack 0
  7571   0018B2                     i2_MostrarCursor:
  7572                           	callstack 16
  7573                           
  7574                           ;LibLCDXC8.h: 327: ComandoLCD(0xF);
  7575                           
  7576                           ;incstack = 0
  7577   0018B2  0E0F               	movlw	15
  7578   0018B4  EC19  F00B         	call	i2_ComandoLCD
  7579   0018B8  0012               	return		;funcret
  7580   0018BA                     __end_ofi2_MostrarCursor:
  7581                           	callstack 0
  7582                           
  7583 ;; *************** function i2_ComandoLCD *****************
  7584 ;; Defined at:
  7585 ;;		line 127 in file "LibLCDXC8.h"
  7586 ;; Parameters:    Size  Location     Type
  7587 ;;  a               1    wreg     unsigned char 
  7588 ;; Auto vars:     Size  Location     Type
  7589 ;;  a               1    5[COMRAM] unsigned char 
  7590 ;; Return value:  Size  Location     Type
  7591 ;;                  1    wreg      void 
  7592 ;; Registers used:
  7593 ;;		wreg, status,2, status,0, cstack
  7594 ;; Tracked objects:
  7595 ;;		On entry : 0/0
  7596 ;;		On exit  : 0/0
  7597 ;;		Unchanged: 0/0
  7598 ;; Data sizes:     COMRAM   BANK0   BANK1   BANK2   BANK3   BANK4   BANK5   BANK6   BANK7
  7599 ;;      Params:         0       0       0       0       0       0       0       0       0
  7600 ;;      Locals:         1       0       0       0       0       0       0       0       0
  7601 ;;      Temps:          0       0       0       0       0       0       0       0       0
  7602 ;;      Totals:         1       0       0       0       0       0       0       0       0
  7603 ;;Total ram usage:        1 bytes
  7604 ;; Hardware stack levels used: 1
  7605 ;; Hardware stack levels required when called: 4
  7606 ;; This function calls:
  7607 ;;		i2_BorraLCD
  7608 ;;		i2_CursorAInicio
  7609 ;;		i2_EnviaDato
  7610 ;;		i2_HabilitaLCD
  7611 ;;		i2_RetardoLCD
  7612 ;; This function is called by:
  7613 ;;		i2_OcultarCursor
  7614 ;;		i2_MostrarCursor
  7615 ;; This function uses a non-reentrant model
  7616 ;;
  7617                           
  7618                           	psect	text47
  7619   001632                     __ptext47:
  7620                           	callstack 0
  7621   001632                     i2_ComandoLCD:
  7622                           	callstack 17
  7623                           
  7624                           ;incstack = 0
  7625                           ;i2ComandoLCD@a stored from wreg
  7626   001632  6E06               	movwf	i2ComandoLCD@a^0,c
  7627                           
  7628                           ;LibLCDXC8.h: 129: LATA4=0;
  7629   001634  9889               	bcf	3977,4,c	;volatile
  7630                           
  7631                           ;LibLCDXC8.h: 130: if(a==1)
  7632   001636  0406               	decf	i2ComandoLCD@a^0,w,c
  7633   001638  A4D8               	btfss	status,2,c
  7634   00163A  D003               	goto	i2l2899
  7635                           
  7636                           ;LibLCDXC8.h: 131: BorraLCD();
  7637   00163C  EC03  F00C         	call	i2_BorraLCD	;wreg free
  7638   001640  0012               	return	
  7639   001642                     i2l2899:
  7640                           
  7641                           ;LibLCDXC8.h: 132: else if((a&0b11111110)==2)
  7642   001642  5006               	movf	i2ComandoLCD@a^0,w,c
  7643   001644  0BFE               	andlw	254
  7644   001646  0A02               	xorlw	2
  7645   001648  A4D8               	btfss	status,2,c
  7646   00164A  D003               	goto	i2l2903
  7647                           
  7648                           ;LibLCDXC8.h: 133: CursorAInicio();
  7649   00164C  EC5D  F00C         	call	i2_CursorAInicio	;wreg free
  7650   001650  0012               	return	
  7651   001652                     i2l2903:
  7652                           
  7653                           ;LibLCDXC8.h: 134: else{;LibLCDXC8.h: 135: EnviaDato(a);
  7654   001652  5006               	movf	i2ComandoLCD@a^0,w,c
  7655   001654  EC80  F00A         	call	i2_EnviaDato
  7656                           
  7657                           ;LibLCDXC8.h: 136: HabilitaLCD();
  7658   001658  EC38  F00C         	call	i2_HabilitaLCD	;wreg free
  7659                           
  7660                           ;LibLCDXC8.h: 137: RetardoLCD(4);
  7661   00165C  0E04               	movlw	4
  7662   00165E  EC6E  F009         	call	i2_RetardoLCD
  7663   001662  0012               	return		;funcret
  7664   001664                     __end_ofi2_ComandoLCD:
  7665                           	callstack 0
  7666                           
  7667 ;; *************** function i2_CursorAInicio *****************
  7668 ;; Defined at:
  7669 ;;		line 121 in file "LibLCDXC8.h"
  7670 ;; Parameters:    Size  Location     Type
  7671 ;;		None
  7672 ;; Auto vars:     Size  Location     Type
  7673 ;;		None
  7674 ;; Return value:  Size  Location     Type
  7675 ;;                  1    wreg      void 
  7676 ;; Registers used:
  7677 ;;		wreg, status,2, status,0, cstack
  7678 ;; Tracked objects:
  7679 ;;		On entry : 0/0
  7680 ;;		On exit  : 0/0
  7681 ;;		Unchanged: 0/0
  7682 ;; Data sizes:     COMRAM   BANK0   BANK1   BANK2   BANK3   BANK4   BANK5   BANK6   BANK7
  7683 ;;      Params:         0       0       0       0       0       0       0       0       0
  7684 ;;      Locals:         0       0       0       0       0       0       0       0       0
  7685 ;;      Temps:          0       0       0       0       0       0       0       0       0
  7686 ;;      Totals:         0       0       0       0       0       0       0       0       0
  7687 ;;Total ram usage:        0 bytes
  7688 ;; Hardware stack levels used: 1
  7689 ;; Hardware stack levels required when called: 3
  7690 ;; This function calls:
  7691 ;;		i2_DireccionaLCD
  7692 ;; This function is called by:
  7693 ;;		i2_ComandoLCD
  7694 ;; This function uses a non-reentrant model
  7695 ;;
  7696                           
  7697                           	psect	text48
  7698   0018BA                     __ptext48:
  7699                           	callstack 0
  7700   0018BA                     i2_CursorAInicio:
  7701                           	callstack 17
  7702                           
  7703                           ;LibLCDXC8.h: 124: DireccionaLCD(0x80);
  7704                           
  7705                           ;incstack = 0
  7706   0018BA  0E80               	movlw	128
  7707   0018BC  ECD9  F00B         	call	i2_DireccionaLCD
  7708   0018C0  0012               	return		;funcret
  7709   0018C2                     __end_ofi2_CursorAInicio:
  7710                           	callstack 0
  7711                           
  7712 ;; *************** function i2_DireccionaLCD *****************
  7713 ;; Defined at:
  7714 ;;		line 245 in file "LibLCDXC8.h"
  7715 ;; Parameters:    Size  Location     Type
  7716 ;;  a               1    wreg     unsigned char 
  7717 ;; Auto vars:     Size  Location     Type
  7718 ;;  a               1    4[COMRAM] unsigned char 
  7719 ;; Return value:  Size  Location     Type
  7720 ;;                  1    wreg      void 
  7721 ;; Registers used:
  7722 ;;		wreg, status,2, status,0, cstack
  7723 ;; Tracked objects:
  7724 ;;		On entry : 0/0
  7725 ;;		On exit  : 0/0
  7726 ;;		Unchanged: 0/0
  7727 ;; Data sizes:     COMRAM   BANK0   BANK1   BANK2   BANK3   BANK4   BANK5   BANK6   BANK7
  7728 ;;      Params:         0       0       0       0       0       0       0       0       0
  7729 ;;      Locals:         1       0       0       0       0       0       0       0       0
  7730 ;;      Temps:          0       0       0       0       0       0       0       0       0
  7731 ;;      Totals:         1       0       0       0       0       0       0       0       0
  7732 ;;Total ram usage:        1 bytes
  7733 ;; Hardware stack levels used: 1
  7734 ;; Hardware stack levels required when called: 2
  7735 ;; This function calls:
  7736 ;;		i2_EnviaDato
  7737 ;;		i2_HabilitaLCD
  7738 ;;		i2_RetardoLCD
  7739 ;; This function is called by:
  7740 ;;		_ISR
  7741 ;;		_Borrar
  7742 ;;		i2_CursorAInicio
  7743 ;; This function uses a non-reentrant model
  7744 ;;
  7745                           
  7746                           	psect	text49
  7747   0017B2                     __ptext49:
  7748                           	callstack 0
  7749   0017B2                     i2_DireccionaLCD:
  7750                           	callstack 17
  7751                           
  7752                           ;incstack = 0
  7753                           ;i2DireccionaLCD@a stored from wreg
  7754   0017B2  6E05               	movwf	i2DireccionaLCD@a^0,c
  7755                           
  7756                           ;LibLCDXC8.h: 248: LATA4=0;
  7757   0017B4  9889               	bcf	3977,4,c	;volatile
  7758                           
  7759                           ;LibLCDXC8.h: 249: EnviaDato(a);
  7760   0017B6  5005               	movf	i2DireccionaLCD@a^0,w,c
  7761   0017B8  EC80  F00A         	call	i2_EnviaDato
  7762                           
  7763                           ;LibLCDXC8.h: 250: HabilitaLCD();
  7764   0017BC  EC38  F00C         	call	i2_HabilitaLCD	;wreg free
  7765                           
  7766                           ;LibLCDXC8.h: 251: RetardoLCD(4);
  7767   0017C0  0E04               	movlw	4
  7768   0017C2  EC6E  F009         	call	i2_RetardoLCD
  7769   0017C6  0012               	return		;funcret
  7770   0017C8                     __end_ofi2_DireccionaLCD:
  7771                           	callstack 0
  7772                           
  7773 ;; *************** function i2_BorraLCD *****************
  7774 ;; Defined at:
  7775 ;;		line 114 in file "LibLCDXC8.h"
  7776 ;; Parameters:    Size  Location     Type
  7777 ;;		None
  7778 ;; Auto vars:     Size  Location     Type
  7779 ;;		None
  7780 ;; Return value:  Size  Location     Type
  7781 ;;                  1    wreg      void 
  7782 ;; Registers used:
  7783 ;;		wreg, status,2, status,0, cstack
  7784 ;; Tracked objects:
  7785 ;;		On entry : 0/0
  7786 ;;		On exit  : 0/0
  7787 ;;		Unchanged: 0/0
  7788 ;; Data sizes:     COMRAM   BANK0   BANK1   BANK2   BANK3   BANK4   BANK5   BANK6   BANK7
  7789 ;;      Params:         0       0       0       0       0       0       0       0       0
  7790 ;;      Locals:         0       0       0       0       0       0       0       0       0
  7791 ;;      Temps:          0       0       0       0       0       0       0       0       0
  7792 ;;      Totals:         0       0       0       0       0       0       0       0       0
  7793 ;;Total ram usage:        0 bytes
  7794 ;; Hardware stack levels used: 1
  7795 ;; Hardware stack levels required when called: 2
  7796 ;; This function calls:
  7797 ;;		i2_EnviaDato
  7798 ;;		i2_HabilitaLCD
  7799 ;;		i2_RetardoLCD
  7800 ;; This function is called by:
  7801 ;;		_ISR
  7802 ;;		i2_ComandoLCD
  7803 ;; This function uses a non-reentrant model
  7804 ;;
  7805                           
  7806                           	psect	text50
  7807   001806                     __ptext50:
  7808                           	callstack 0
  7809   001806                     i2_BorraLCD:
  7810                           	callstack 18
  7811                           
  7812                           ;LibLCDXC8.h: 116: LATA4=0;
  7813                           
  7814                           ;incstack = 0
  7815   001806  9889               	bcf	3977,4,c	;volatile
  7816                           
  7817                           ;LibLCDXC8.h: 117: EnviaDato(0x01);
  7818   001808  0E01               	movlw	1
  7819   00180A  EC80  F00A         	call	i2_EnviaDato
  7820                           
  7821                           ;LibLCDXC8.h: 118: HabilitaLCD();
  7822   00180E  EC38  F00C         	call	i2_HabilitaLCD	;wreg free
  7823                           
  7824                           ;LibLCDXC8.h: 119: RetardoLCD(2);
  7825   001812  0E02               	movlw	2
  7826   001814  EC6E  F009         	call	i2_RetardoLCD
  7827   001818  0012               	return		;funcret
  7828   00181A                     __end_ofi2_BorraLCD:
  7829                           	callstack 0
  7830                           
  7831 ;; *************** function i2_EscribeLCD_c *****************
  7832 ;; Defined at:
  7833 ;;		line 140 in file "LibLCDXC8.h"
  7834 ;; Parameters:    Size  Location     Type
  7835 ;;  a               1    wreg     unsigned char 
  7836 ;; Auto vars:     Size  Location     Type
  7837 ;;  a               1    4[COMRAM] unsigned char 
  7838 ;; Return value:  Size  Location     Type
  7839 ;;                  1    wreg      void 
  7840 ;; Registers used:
  7841 ;;		wreg, status,2, status,0, cstack
  7842 ;; Tracked objects:
  7843 ;;		On entry : 0/0
  7844 ;;		On exit  : 0/0
  7845 ;;		Unchanged: 0/0
  7846 ;; Data sizes:     COMRAM   BANK0   BANK1   BANK2   BANK3   BANK4   BANK5   BANK6   BANK7
  7847 ;;      Params:         0       0       0       0       0       0       0       0       0
  7848 ;;      Locals:         1       0       0       0       0       0       0       0       0
  7849 ;;      Temps:          0       0       0       0       0       0       0       0       0
  7850 ;;      Totals:         1       0       0       0       0       0       0       0       0
  7851 ;;Total ram usage:        1 bytes
  7852 ;; Hardware stack levels used: 1
  7853 ;; Hardware stack levels required when called: 2
  7854 ;; This function calls:
  7855 ;;		i2_EnviaDato
  7856 ;;		i2_HabilitaLCD
  7857 ;;		i2_RetardoLCD
  7858 ;; This function is called by:
  7859 ;;		_Borrar
  7860 ;;		i2_MensajeLCD_Var
  7861 ;; This function uses a non-reentrant model
  7862 ;;
  7863                           
  7864                           	psect	text51
  7865   0017C8                     __ptext51:
  7866                           	callstack 0
  7867   0017C8                     i2_EscribeLCD_c:
  7868                           	callstack 19
  7869                           
  7870                           ;incstack = 0
  7871                           ;i2EscribeLCD_c@a stored from wreg
  7872   0017C8  6E05               	movwf	i2EscribeLCD_c@a^0,c
  7873                           
  7874                           ;LibLCDXC8.h: 144: LATA4=1;
  7875   0017CA  8889               	bsf	3977,4,c	;volatile
  7876                           
  7877                           ;LibLCDXC8.h: 145: EnviaDato(a);
  7878   0017CC  5005               	movf	i2EscribeLCD_c@a^0,w,c
  7879   0017CE  EC80  F00A         	call	i2_EnviaDato
  7880                           
  7881                           ;LibLCDXC8.h: 146: HabilitaLCD();
  7882   0017D2  EC38  F00C         	call	i2_HabilitaLCD	;wreg free
  7883                           
  7884                           ;LibLCDXC8.h: 147: RetardoLCD(4);
  7885   0017D6  0E04               	movlw	4
  7886   0017D8  EC6E  F009         	call	i2_RetardoLCD
  7887   0017DC  0012               	return		;funcret
  7888   0017DE                     __end_ofi2_EscribeLCD_c:
  7889                           	callstack 0
  7890                           
  7891 ;; *************** function i2_EnviaDato *****************
  7892 ;; Defined at:
  7893 ;;		line 61 in file "LibLCDXC8.h"
  7894 ;; Parameters:    Size  Location     Type
  7895 ;;  a               1    wreg     unsigned char 
  7896 ;; Auto vars:     Size  Location     Type
  7897 ;;  a               1    3[COMRAM] unsigned char 
  7898 ;; Return value:  Size  Location     Type
  7899 ;;                  1    wreg      void 
  7900 ;; Registers used:
  7901 ;;		wreg, status,2, status,0, cstack
  7902 ;; Tracked objects:
  7903 ;;		On entry : 0/0
  7904 ;;		On exit  : 0/0
  7905 ;;		Unchanged: 0/0
  7906 ;; Data sizes:     COMRAM   BANK0   BANK1   BANK2   BANK3   BANK4   BANK5   BANK6   BANK7
  7907 ;;      Params:         0       0       0       0       0       0       0       0       0
  7908 ;;      Locals:         1       0       0       0       0       0       0       0       0
  7909 ;;      Temps:          1       0       0       0       0       0       0       0       0
  7910 ;;      Totals:         2       0       0       0       0       0       0       0       0
  7911 ;;Total ram usage:        2 bytes
  7912 ;; Hardware stack levels used: 1
  7913 ;; Hardware stack levels required when called: 1
  7914 ;; This function calls:
  7915 ;;		i2_HabilitaLCD
  7916 ;;		i2_RetardoLCD
  7917 ;; This function is called by:
  7918 ;;		i2_BorraLCD
  7919 ;;		i2_ComandoLCD
  7920 ;;		i2_EscribeLCD_c
  7921 ;;		i2_EscribeLCD_n8
  7922 ;;		i2_DireccionaLCD
  7923 ;; This function uses a non-reentrant model
  7924 ;;
  7925                           
  7926                           	psect	text52
  7927   001500                     __ptext52:
  7928                           	callstack 0
  7929   001500                     i2_EnviaDato:
  7930                           	callstack 19
  7931                           
  7932                           ;incstack = 0
  7933                           ;i2EnviaDato@a stored from wreg
  7934   001500  6E04               	movwf	i2EnviaDato@a^0,c
  7935                           
  7936                           ;LibLCDXC8.h: 62: if(interfaz==4){
  7937   001502  0E04               	movlw	4
  7938   001504  183F               	xorwf	_interfaz^0,w,c
  7939   001506  A4D8               	btfss	status,2,c
  7940   001508  D017               	goto	i2l2829
  7941                           
  7942                           ;LibLCDXC8.h: 63: LATD=(LATD & 0b00001111) | (a & 0b11110000);
  7943   00150A  C004  F003         	movff	i2EnviaDato@a,??i2_EnviaDato
  7944   00150E  0EF0               	movlw	240
  7945   001510  1603               	andwf	??i2_EnviaDato^0,f,c
  7946   001512  508C               	movf	140,w,c	;volatile
  7947   001514  0B0F               	andlw	15
  7948   001516  1003               	iorwf	??i2_EnviaDato^0,w,c
  7949   001518  6E8C               	movwf	140,c	;volatile
  7950                           
  7951                           ;LibLCDXC8.h: 64: HabilitaLCD();
  7952   00151A  EC38  F00C         	call	i2_HabilitaLCD	;wreg free
  7953                           
  7954                           ;LibLCDXC8.h: 65: RetardoLCD(1);
  7955   00151E  0E01               	movlw	1
  7956   001520  EC6E  F009         	call	i2_RetardoLCD
  7957                           
  7958                           ;LibLCDXC8.h: 66: LATD=(LATD & 0b00001111) | (a<<4);
  7959   001524  C004  F003         	movff	i2EnviaDato@a,??i2_EnviaDato
  7960   001528  3A03               	swapf	??i2_EnviaDato^0,f,c
  7961   00152A  0EF0               	movlw	240
  7962   00152C  1603               	andwf	??i2_EnviaDato^0,f,c
  7963   00152E  508C               	movf	140,w,c	;volatile
  7964   001530  0B0F               	andlw	15
  7965   001532  1003               	iorwf	??i2_EnviaDato^0,w,c
  7966   001534  6E8C               	movwf	140,c	;volatile
  7967                           
  7968                           ;LibLCDXC8.h: 69: }else if(interfaz==8){
  7969   001536  0012               	return	
  7970   001538                     i2l2829:
  7971   001538  0E08               	movlw	8
  7972   00153A  183F               	xorwf	_interfaz^0,w,c
  7973   00153C  A4D8               	btfss	status,2,c
  7974   00153E  0012               	return	
  7975                           
  7976                           ;LibLCDXC8.h: 70: LATD=a;
  7977   001540  C004  FF8C         	movff	i2EnviaDato@a,3980	;volatile
  7978   001544  0012               	return		;funcret
  7979   001546                     __end_ofi2_EnviaDato:
  7980                           	callstack 0
  7981                           
  7982 ;; *************** function i2_RetardoLCD *****************
  7983 ;; Defined at:
  7984 ;;		line 290 in file "LibLCDXC8.h"
  7985 ;; Parameters:    Size  Location     Type
  7986 ;;  a               1    wreg     unsigned char 
  7987 ;; Auto vars:     Size  Location     Type
  7988 ;;  a               1    1[COMRAM] unsigned char 
  7989 ;; Return value:  Size  Location     Type
  7990 ;;                  1    wreg      void 
  7991 ;; Registers used:
  7992 ;;		wreg, status,2, status,0
  7993 ;; Tracked objects:
  7994 ;;		On entry : 0/0
  7995 ;;		On exit  : 0/0
  7996 ;;		Unchanged: 0/0
  7997 ;; Data sizes:     COMRAM   BANK0   BANK1   BANK2   BANK3   BANK4   BANK5   BANK6   BANK7
  7998 ;;      Params:         0       0       0       0       0       0       0       0       0
  7999 ;;      Locals:         1       0       0       0       0       0       0       0       0
  8000 ;;      Temps:          1       0       0       0       0       0       0       0       0
  8001 ;;      Totals:         2       0       0       0       0       0       0       0       0
  8002 ;;Total ram usage:        2 bytes
  8003 ;; Hardware stack levels used: 1
  8004 ;; This function calls:
  8005 ;;		Nothing
  8006 ;; This function is called by:
  8007 ;;		i2_EnviaDato
  8008 ;;		i2_BorraLCD
  8009 ;;		i2_ComandoLCD
  8010 ;;		i2_EscribeLCD_c
  8011 ;;		i2_EscribeLCD_n8
  8012 ;;		i2_DireccionaLCD
  8013 ;; This function uses a non-reentrant model
  8014 ;;
  8015                           
  8016                           	psect	text53
  8017   0012DC                     __ptext53:
  8018                           	callstack 0
  8019   0012DC                     i2_RetardoLCD:
  8020                           	callstack 20
  8021                           
  8022                           ;incstack = 0
  8023                           ;i2RetardoLCD@a stored from wreg
  8024   0012DC  6E02               	movwf	i2RetardoLCD@a^0,c
  8025                           
  8026                           ;LibLCDXC8.h: 291: switch(a){
  8027   0012DE  D01B               	goto	i2l2803
  8028   0012E0                     i2l2793:
  8029   0012E0  0E05               	movlw	5
  8030   0012E2  6E01               	movwf	??i2_RetardoLCD^0,c
  8031   0012E4  0EDE               	movlw	222
  8032   0012E6                     i2u453_47:
  8033   0012E6  2EE8               	decfsz	wreg,f,c
  8034   0012E8  D7FE               	bra	i2u453_47
  8035   0012EA  2E01               	decfsz	??i2_RetardoLCD^0,f,c
  8036   0012EC  D7FC               	bra	i2u453_47
  8037                           
  8038                           ;LibLCDXC8.h: 294: break;
  8039   0012EE  0012               	return	
  8040   0012F0                     i2l2795:
  8041   0012F0  0E53               	movlw	83
  8042   0012F2                     i2u454_47:
  8043   0012F2  2EE8               	decfsz	wreg,f,c
  8044   0012F4  D7FE               	bra	i2u454_47
  8045   0012F6  0000               	nop	
  8046                           
  8047                           ;LibLCDXC8.h: 296: _delay((unsigned long)((640)*(1000000/4000000.0)));
  8048   0012F8  0E35               	movlw	53
  8049   0012FA                     i2u455_47:
  8050   0012FA  2EE8               	decfsz	wreg,f,c
  8051   0012FC  D7FE               	bra	i2u455_47
  8052   0012FE  0000               	nop	
  8053                           
  8054                           ;LibLCDXC8.h: 298: break;
  8055   001300  0012               	return	
  8056   001302                     i2l2797:
  8057   001302  0E08               	movlw	8
  8058   001304                     i2u456_47:
  8059   001304  2EE8               	decfsz	wreg,f,c
  8060   001306  D7FE               	bra	i2u456_47
  8061   001308  0000               	nop	
  8062                           
  8063                           ;LibLCDXC8.h: 301: break;
  8064   00130A  0012               	return	
  8065   00130C                     i2l2799:
  8066   00130C  0E03               	movlw	3
  8067   00130E                     i2u457_47:
  8068   00130E  2EE8               	decfsz	wreg,f,c
  8069   001310  D7FE               	bra	i2u457_47
  8070   001312  0000               	nop	
  8071                           
  8072                           ;LibLCDXC8.h: 304: break;
  8073   001314  0012               	return	
  8074   001316                     i2l2803:
  8075   001316  5002               	movf	i2RetardoLCD@a^0,w,c
  8076                           
  8077                           ; Switch size 1, requested type "simple"
  8078                           ; Number of cases is 4, Range of values is 1 to 4
  8079                           ; switch strategies available:
  8080                           ; Name         Instructions Cycles
  8081                           ; simple_byte           13     7 (average)
  8082                           ;	Chosen strategy is simple_byte
  8083   001318  0A01               	xorlw	1	; case 1
  8084   00131A  B4D8               	btfsc	status,2,c
  8085   00131C  D7E1               	goto	i2l2793
  8086   00131E  0A03               	xorlw	3	; case 2
  8087   001320  B4D8               	btfsc	status,2,c
  8088   001322  D7E6               	goto	i2l2795
  8089   001324  0A01               	xorlw	1	; case 3
  8090   001326  B4D8               	btfsc	status,2,c
  8091   001328  D7EC               	goto	i2l2797
  8092   00132A  0A07               	xorlw	7	; case 4
  8093   00132C  A4D8               	btfss	status,2,c
  8094   00132E  0012               	return	
  8095   001330  D7ED               	goto	i2l2799
  8096   001332                     __end_ofi2_RetardoLCD:
  8097                           	callstack 0
  8098                           
  8099 ;; *************** function i2_HabilitaLCD *****************
  8100 ;; Defined at:
  8101 ;;		line 107 in file "LibLCDXC8.h"
  8102 ;; Parameters:    Size  Location     Type
  8103 ;;		None
  8104 ;; Auto vars:     Size  Location     Type
  8105 ;;		None
  8106 ;; Return value:  Size  Location     Type
  8107 ;;                  1    wreg      void 
  8108 ;; Registers used:
  8109 ;;		wreg
  8110 ;; Tracked objects:
  8111 ;;		On entry : 0/0
  8112 ;;		On exit  : 0/0
  8113 ;;		Unchanged: 0/0
  8114 ;; Data sizes:     COMRAM   BANK0   BANK1   BANK2   BANK3   BANK4   BANK5   BANK6   BANK7
  8115 ;;      Params:         0       0       0       0       0       0       0       0       0
  8116 ;;      Locals:         0       0       0       0       0       0       0       0       0
  8117 ;;      Temps:          0       0       0       0       0       0       0       0       0
  8118 ;;      Totals:         0       0       0       0       0       0       0       0       0
  8119 ;;Total ram usage:        0 bytes
  8120 ;; Hardware stack levels used: 1
  8121 ;; This function calls:
  8122 ;;		Nothing
  8123 ;; This function is called by:
  8124 ;;		i2_EnviaDato
  8125 ;;		i2_BorraLCD
  8126 ;;		i2_ComandoLCD
  8127 ;;		i2_EscribeLCD_c
  8128 ;;		i2_EscribeLCD_n8
  8129 ;;		i2_DireccionaLCD
  8130 ;; This function uses a non-reentrant model
  8131 ;;
  8132                           
  8133                           	psect	text54
  8134   001870                     __ptext54:
  8135                           	callstack 0
  8136   001870                     i2_HabilitaLCD:
  8137                           	callstack 20
  8138                           
  8139                           ;LibLCDXC8.h: 109: LATA5=1;
  8140                           
  8141                           ;incstack = 0
  8142   001870  8A89               	bsf	3977,5,c	;volatile
  8143                           
  8144                           ;LibLCDXC8.h: 110: _delay((unsigned long)((40)*(1000000/4000000.0)));
  8145   001872  0E03               	movlw	3
  8146   001874                     i2u458_47:
  8147   001874  2EE8               	decfsz	wreg,f,c
  8148   001876  D7FE               	bra	i2u458_47
  8149   001878  0000               	nop	
  8150                           
  8151                           ;LibLCDXC8.h: 112: LATA5=0;
  8152   00187A  9A89               	bcf	3977,5,c	;volatile
  8153   00187C  0012               	return		;funcret
  8154   00187E                     __end_ofi2_HabilitaLCD:
  8155                           	callstack 0
  8156                           
  8157                           	psect	rparam
  8158   000001                     ___rparam_used  equ	1
  8159   000000                     ___param_bank   equ	0
  8160   000000                     __Lparam        equ	__Lrparam
  8161   000000                     __Hparam        equ	__Hrparam
  8162                           
  8163                           	psect	temp
  8164   000040                     btemp:
  8165                           	callstack 0
  8166   000040                     	ds	1
  8167   000040                     int$flags       set	btemp
  8168   000041                     wtemp8          set	btemp+1
  8169   000041                     ttemp5          set	btemp+1
  8170   000044                     ttemp6          set	btemp+4
  8171   000048                     ttemp7          set	btemp+8
  8172                           
  8173                           	psect	idloc
  8174                           
  8175                           ;Config register IDLOC0 @ 0x200000
  8176                           ;	unspecified, using default values
  8177   200000                     	org	2097152
  8178   200000  FF                 	db	255
  8179                           
  8180                           ;Config register IDLOC1 @ 0x200001
  8181                           ;	unspecified, using default values
  8182   200001                     	org	2097153
  8183   200001  FF                 	db	255
  8184                           
  8185                           ;Config register IDLOC2 @ 0x200002
  8186                           ;	unspecified, using default values
  8187   200002                     	org	2097154
  8188   200002  FF                 	db	255
  8189                           
  8190                           ;Config register IDLOC3 @ 0x200003
  8191                           ;	unspecified, using default values
  8192   200003                     	org	2097155
  8193   200003  FF                 	db	255
  8194                           
  8195                           ;Config register IDLOC4 @ 0x200004
  8196                           ;	unspecified, using default values
  8197   200004                     	org	2097156
  8198   200004  FF                 	db	255
  8199                           
  8200                           ;Config register IDLOC5 @ 0x200005
  8201                           ;	unspecified, using default values
  8202   200005                     	org	2097157
  8203   200005  FF                 	db	255
  8204                           
  8205                           ;Config register IDLOC6 @ 0x200006
  8206                           ;	unspecified, using default values
  8207   200006                     	org	2097158
  8208   200006  FF                 	db	255
  8209                           
  8210                           ;Config register IDLOC7 @ 0x200007
  8211                           ;	unspecified, using default values
  8212   200007                     	org	2097159
  8213   200007  FF                 	db	255
  8214                           
  8215                           	psect	config
  8216                           
  8217                           ;Config register CONFIG1L @ 0x300000
  8218                           ;	unspecified, using default values
  8219                           ;	PLL Prescaler Selection bits
  8220                           ;	PLLDIV = 0x0, unprogrammed default
  8221                           ;	System Clock Postscaler Selection bits
  8222                           ;	CPUDIV = 0x0, unprogrammed default
  8223                           ;	USB Clock Selection bit (used in Full-Speed USB mode only; UCFG:FSEN = 1)
  8224                           ;	USBDIV = 0x0, unprogrammed default
  8225   300000                     	org	3145728
  8226   300000  00                 	db	0
  8227                           
  8228                           ;Config register CONFIG1H @ 0x300001
  8229                           ;	Oscillator Selection bits
  8230                           ;	FOSC = INTOSC_EC, Internal oscillator, CLKO function on RA6, EC used by USB (INTCKO)
  8231                           ;	Fail-Safe Clock Monitor Enable bit
  8232                           ;	FCMEN = 0x0, unprogrammed default
  8233                           ;	Internal/External Oscillator Switchover bit
  8234                           ;	IESO = 0x0, unprogrammed default
  8235   300001                     	org	3145729
  8236   300001  09                 	db	9
  8237                           
  8238                           ;Config register CONFIG2L @ 0x300002
  8239                           ;	unspecified, using default values
  8240                           ;	Power-up Timer Enable bit
  8241                           ;	PWRT = 0x1, unprogrammed default
  8242                           ;	Brown-out Reset Enable bits
  8243                           ;	BOR = 0x3, unprogrammed default
  8244                           ;	Brown-out Reset Voltage bits
  8245                           ;	BORV = 0x3, unprogrammed default
  8246                           ;	USB Voltage Regulator Enable bit
  8247                           ;	VREGEN = 0x0, unprogrammed default
  8248   300002                     	org	3145730
  8249   300002  1F                 	db	31
  8250                           
  8251                           ;Config register CONFIG2H @ 0x300003
  8252                           ;	Watchdog Timer Enable bit
  8253                           ;	WDT = OFF, WDT disabled (control is placed on the SWDTEN bit)
  8254                           ;	Watchdog Timer Postscale Select bits
  8255                           ;	WDTPS = 0xF, unprogrammed default
  8256   300003                     	org	3145731
  8257   300003  1E                 	db	30
  8258                           
  8259                           ; Padding undefined space
  8260   300004                     	org	3145732
  8261   300004  FF                 	db	255
  8262                           
  8263                           ;Config register CONFIG3H @ 0x300005
  8264                           ;	unspecified, using default values
  8265                           ;	CCP2 MUX bit
  8266                           ;	CCP2MX = 0x1, unprogrammed default
  8267                           ;	PORTB A/D Enable bit
  8268                           ;	PBADEN = 0x1, unprogrammed default
  8269                           ;	Low-Power Timer 1 Oscillator Enable bit
  8270                           ;	LPT1OSC = 0x0, unprogrammed default
  8271                           ;	MCLR Pin Enable bit
  8272                           ;	MCLRE = 0x1, unprogrammed default
  8273   300005                     	org	3145733
  8274   300005  83                 	db	131
  8275                           
  8276                           ;Config register CONFIG4L @ 0x300006
  8277                           ;	Stack Full/Underflow Reset Enable bit
  8278                           ;	STVREN = 0x1, unprogrammed default
  8279                           ;	Single-Supply ICSP Enable bit
  8280                           ;	LVP = OFF, Single-Supply ICSP disabled
  8281                           ;	Dedicated In-Circuit Debug/Programming Port (ICPORT) Enable bit
  8282                           ;	ICPRT = 0x0, unprogrammed default
  8283                           ;	Extended Instruction Set Enable bit
  8284                           ;	XINST = 0x0, unprogrammed default
  8285                           ;	Background Debugger Enable bit
  8286                           ;	DEBUG = 0x1, unprogrammed default
  8287   300006                     	org	3145734
  8288   300006  81                 	db	129
  8289                           
  8290                           ; Padding undefined space
  8291   300007                     	org	3145735
  8292   300007  FF                 	db	255
  8293                           
  8294                           ;Config register CONFIG5L @ 0x300008
  8295                           ;	unspecified, using default values
  8296                           ;	Code Protection bit
  8297                           ;	CP0 = 0x1, unprogrammed default
  8298                           ;	Code Protection bit
  8299                           ;	CP1 = 0x1, unprogrammed default
  8300                           ;	Code Protection bit
  8301                           ;	CP2 = 0x1, unprogrammed default
  8302                           ;	Code Protection bit
  8303                           ;	CP3 = 0x1, unprogrammed default
  8304   300008                     	org	3145736
  8305   300008  0F                 	db	15
  8306                           
  8307                           ;Config register CONFIG5H @ 0x300009
  8308                           ;	unspecified, using default values
  8309                           ;	Boot Block Code Protection bit
  8310                           ;	CPB = 0x1, unprogrammed default
  8311                           ;	Data EEPROM Code Protection bit
  8312                           ;	CPD = 0x1, unprogrammed default
  8313   300009                     	org	3145737
  8314   300009  C0                 	db	192
  8315                           
  8316                           ;Config register CONFIG6L @ 0x30000A
  8317                           ;	unspecified, using default values
  8318                           ;	Write Protection bit
  8319                           ;	WRT0 = 0x1, unprogrammed default
  8320                           ;	Write Protection bit
  8321                           ;	WRT1 = 0x1, unprogrammed default
  8322                           ;	Write Protection bit
  8323                           ;	WRT2 = 0x1, unprogrammed default
  8324                           ;	Write Protection bit
  8325                           ;	WRT3 = 0x1, unprogrammed default
  8326   30000A                     	org	3145738
  8327   30000A  0F                 	db	15
  8328                           
  8329                           ;Config register CONFIG6H @ 0x30000B
  8330                           ;	unspecified, using default values
  8331                           ;	Configuration Register Write Protection bit
  8332                           ;	WRTC = 0x1, unprogrammed default
  8333                           ;	Boot Block Write Protection bit
  8334                           ;	WRTB = 0x1, unprogrammed default
  8335                           ;	Data EEPROM Write Protection bit
  8336                           ;	WRTD = 0x1, unprogrammed default
  8337   30000B                     	org	3145739
  8338   30000B  E0                 	db	224
  8339                           
  8340                           ;Config register CONFIG7L @ 0x30000C
  8341                           ;	unspecified, using default values
  8342                           ;	Table Read Protection bit
  8343                           ;	EBTR0 = 0x1, unprogrammed default
  8344                           ;	Table Read Protection bit
  8345                           ;	EBTR1 = 0x1, unprogrammed default
  8346                           ;	Table Read Protection bit
  8347                           ;	EBTR2 = 0x1, unprogrammed default
  8348                           ;	Table Read Protection bit
  8349                           ;	EBTR3 = 0x1, unprogrammed default
  8350   30000C                     	org	3145740
  8351   30000C  0F                 	db	15
  8352                           
  8353                           ;Config register CONFIG7H @ 0x30000D
  8354                           ;	unspecified, using default values
  8355                           ;	Boot Block Table Read Protection bit
  8356                           ;	EBTRB = 0x1, unprogrammed default
  8357   30000D                     	org	3145741
  8358   30000D  40                 	db	64
  8359                           tosu	equ	0xFFF
  8360                           tosh	equ	0xFFE
  8361                           tosl	equ	0xFFD
  8362                           stkptr	equ	0xFFC
  8363                           pclatu	equ	0xFFB
  8364                           pclath	equ	0xFFA
  8365                           pcl	equ	0xFF9
  8366                           tblptru	equ	0xFF8
  8367                           tblptrh	equ	0xFF7
  8368                           tblptrl	equ	0xFF6
  8369                           tablat	equ	0xFF5
  8370                           prodh	equ	0xFF4
  8371                           prodl	equ	0xFF3
  8372                           indf0	equ	0xFEF
  8373                           postinc0	equ	0xFEE
  8374                           postdec0	equ	0xFED
  8375                           preinc0	equ	0xFEC
  8376                           plusw0	equ	0xFEB
  8377                           fsr0h	equ	0xFEA
  8378                           fsr0l	equ	0xFE9
  8379                           wreg	equ	0xFE8
  8380                           indf1	equ	0xFE7
  8381                           postinc1	equ	0xFE6
  8382                           postdec1	equ	0xFE5
  8383                           preinc1	equ	0xFE4
  8384                           plusw1	equ	0xFE3
  8385                           fsr1h	equ	0xFE2
  8386                           fsr1l	equ	0xFE1
  8387                           bsr	equ	0xFE0
  8388                           indf2	equ	0xFDF
  8389                           postinc2	equ	0xFDE
  8390                           postdec2	equ	0xFDD
  8391                           preinc2	equ	0xFDC
  8392                           plusw2	equ	0xFDB
  8393                           fsr2h	equ	0xFDA
  8394                           fsr2l	equ	0xFD9
  8395                           status	equ	0xFD8

Data Sizes:
    Strings     308
    Constant    10
    Data        17
    BSS         25
    Persistent  1
    Stack       0

Auto Spaces:
    Space          Size  Autos    Used
    COMRAM           94     36      63
    BANK0           160     27      43
    BANK1           256      0       0
    BANK2           256      0       0
    BANK3           256      0       0
    BANK4           256      0       0
    BANK5           256      0       0
    BANK6           256      0       0
    BANK7           256      0       0

Pointer List with Targets:

    CrearCaracter@arreglo	PTR unsigned char  size(1) Largest target is 8
		 -> Corazon(BANK0[8]), RayaAlPiso(BANK0[8]), 

    MensajeLCD_Var@a	PTR unsigned char  size(2) Largest target is 20
		 -> STR_1(CODE[18]), STR_10(CODE[11]), STR_13(CODE[16]), STR_14(CODE[15]), 
		 -> STR_15(CODE[13]), STR_16(CODE[14]), STR_17(CODE[13]), STR_18(CODE[14]), 
		 -> STR_19(CODE[15]), STR_2(CODE[11]), STR_20(CODE[12]), STR_21(CODE[17]), 
		 -> STR_22(CODE[13]), STR_23(CODE[14]), STR_24(CODE[14]), STR_3(CODE[19]), 
		 -> STR_4(CODE[20]), STR_5(CODE[13]), STR_6(CODE[13]), STR_9(CODE[12]), 

    printf@ap	PTR void [1] size(1) Largest target is 2
		 -> ?_printf(BANK0[2]), 

    printf@f	PTR const unsigned char  size(2) Largest target is 26
		 -> STR_11(CODE[22]), STR_12(CODE[26]), STR_7(CODE[22]), STR_8(CODE[26]), 


Critical Paths under _main in COMRAM

    _main->_DireccionaLCD
    _main->___lwmod
    _printf->___lwmod
    ___lwmod->___lwdiv
    ___lldiv->___lmul
    _PreguntaAlUsuario->_DireccionaLCD
    _PreguntaAlUsuario->_EscribeLCD_c
    _EscribeLCD_n8->___lbdiv
    ___lbdiv->___lbmod
    _Bienvenida->_DireccionaLCD
    _Bienvenida->_EscribeLCD_c
    _CursorAInicio->_DireccionaLCD
    _MensajeLCD_Var->_EscribeLCD_c
    _EscribeLCD_c->_EnviaDato
    _InicializaLCD->_EnviaDato
    _BorraLCD->_EnviaDato
    _DesplazaPantallaD->_EnviaDato
    _CrearCaracter->_DireccionaLCD
    _DireccionaLCD->_EnviaDato
    _EnviaDato->_RetardoLCD

Critical Paths under _ISR in COMRAM

    _ISR->_ConfigPregunta
    i2_MensajeLCD_Var->i2_EscribeLCD_c
    _ConfigPregunta->i2_EscribeLCD_n8
    i2_OcultarCursor->i2_ComandoLCD
    i2_EscribeLCD_n8->i2___lbdiv
    i2___lbdiv->i2___lbmod
    i2_MostrarCursor->i2_ComandoLCD
    i2_CursorAInicio->i2_DireccionaLCD
    i2_DireccionaLCD->i2_EnviaDato
    i2_BorraLCD->i2_EnviaDato
    i2_EscribeLCD_c->i2_EnviaDato
    i2_EnviaDato->i2_RetardoLCD

Critical Paths under _main in BANK0

    _main->___lldiv
    _printf->___lwmod
    ___lwmod->___lwdiv
    ___lldiv->___lmul
    _PreguntaAlUsuario->_MensajeLCD_Var
    _MostrarCursor->_ComandoLCD
    _EscribeLCD_n8->___lbdiv
    _Bienvenida->_MensajeLCD_Var
    _OcultarCursor->_ComandoLCD

Critical Paths under _ISR in BANK0

    None.

Critical Paths under _main in BANK1

    None.

Critical Paths under _ISR in BANK1

    None.

Critical Paths under _main in BANK2

    None.

Critical Paths under _ISR in BANK2

    None.

Critical Paths under _main in BANK3

    None.

Critical Paths under _ISR in BANK3

    None.

Critical Paths under _main in BANK4

    None.

Critical Paths under _ISR in BANK4

    None.

Critical Paths under _main in BANK5

    None.

Critical Paths under _ISR in BANK5

    None.

Critical Paths under _main in BANK6

    None.

Critical Paths under _ISR in BANK6

    None.

Critical Paths under _main in BANK7

    None.

Critical Paths under _ISR in BANK7

    None.

Call Graph Tables:

 ---------------------------------------------------------------------------------
 (Depth) Function   	        Calls       Base Space   Used Autos Params    Refs
 ---------------------------------------------------------------------------------
 (0) _main                                                 6     6      0   12835
                                             21 BANK0      6     6      0
                         _Bienvenida
                           _BorraLCD
                    _ConfigVariables
                  _ConfigurarCaptura
                      _ConfigurarPWM
                         _Conversion
                      _DireccionaLCD
                      _EscribeLCD_n8
                      _GuardarEEPROM
                         _LeerEEPROM
                     _MensajeLCD_Var
                      _OcultarCursor
                  _PreguntaAlUsuario
                 _TriggerUltrasonido
                            ___lldiv
                             ___lmul
                            ___lwdiv
                            ___lwmod
                             _printf
 ---------------------------------------------------------------------------------
 (1) _printf                                              19    15      4    1132
                                              7 BANK0     11     7      4
                            ___lwdiv
                            ___lwmod
                              _putch
 ---------------------------------------------------------------------------------
 (2) _putch                                                1     1      0      29
                                             31 COMRAM     1     1      0
 ---------------------------------------------------------------------------------
 (2) ___lwmod                                              5     1      4     244
                                             35 COMRAM     1     1      0
                                              3 BANK0      4     0      4
                            ___lwdiv (ARG)
 ---------------------------------------------------------------------------------
 (2) ___lwdiv                                              7     3      4     253
                                             31 COMRAM     4     0      4
                                              0 BANK0      3     3      0
 ---------------------------------------------------------------------------------
 (1) ___lmul                                              12     4      8     160
                                             31 COMRAM     4     4      0
                                              0 BANK0      8     0      8
 ---------------------------------------------------------------------------------
 (1) ___lldiv                                             13     5      8     265
                                              8 BANK0     13     5      8
                             ___lmul (ARG)
 ---------------------------------------------------------------------------------
 (1) _TriggerUltrasonido                                   0     0      0       0
 ---------------------------------------------------------------------------------
 (1) _PreguntaAlUsuario                                    2     2      0    3735
                                              6 BANK0      2     2      0
                           _BorraLCD
                      _CrearCaracter
                      _DireccionaLCD
                       _EscribeLCD_c
                     _MensajeLCD_Var
                      _MostrarCursor
                      _OcultarCursor
 ---------------------------------------------------------------------------------
 (2) _MostrarCursor                                        0     0      0     893
                         _ComandoLCD
 ---------------------------------------------------------------------------------
 (1) _LeerEEPROM                                           2     0      2      34
                                             31 COMRAM     2     0      2
 ---------------------------------------------------------------------------------
 (1) _GuardarEEPROM                                        3     0      3      86
                                             31 COMRAM     3     0      3
 ---------------------------------------------------------------------------------
 (1) _EscribeLCD_n8                                        5     4      1    1296
                                              3 BANK0      5     4      1
                          _EnviaDato
                        _HabilitaLCD
                         _RetardoLCD
                            ___lbdiv
                            ___lbmod
 ---------------------------------------------------------------------------------
 (2) ___lbmod                                              4     3      1     266
                                             31 COMRAM     4     3      1
 ---------------------------------------------------------------------------------
 (2) ___lbdiv                                              4     3      1     269
                                             35 COMRAM     1     0      1
                                              0 BANK0      3     3      0
                            ___lbmod (ARG)
 ---------------------------------------------------------------------------------
 (1) _Conversion                                           3     1      2      47
                                             31 COMRAM     3     1      2
 ---------------------------------------------------------------------------------
 (1) _ConfigurarPWM                                        0     0      0       0
 ---------------------------------------------------------------------------------
 (1) _ConfigurarCaptura                                    0     0      0       0
 ---------------------------------------------------------------------------------
 (1) _ConfigVariables                                      0     0      0       0
 ---------------------------------------------------------------------------------
 (1) _Bienvenida                                           4     4      0    3521
                                              6 BANK0      4     4      0
                       _ConfiguraLCD
                      _CrearCaracter
                  _DesplazaPantallaD
                      _DireccionaLCD
                       _EscribeLCD_c
                      _InicializaLCD
                     _MensajeLCD_Var
                      _OcultarCursor
 ---------------------------------------------------------------------------------
 (2) _OcultarCursor                                        0     0      0     893
                         _ComandoLCD
 ---------------------------------------------------------------------------------
 (3) _ComandoLCD                                           1     1      0     893
                                              0 BANK0      1     1      0
                           _BorraLCD
                      _CursorAInicio
                          _EnviaDato
                        _HabilitaLCD
                         _RetardoLCD
 ---------------------------------------------------------------------------------
 (4) _CursorAInicio                                        0     0      0     282
                      _DireccionaLCD
 ---------------------------------------------------------------------------------
 (2) _MensajeLCD_Var                                       6     4      2     460
                                              0 BANK0      6     4      2
                       _EscribeLCD_c
 ---------------------------------------------------------------------------------
 (3) _EscribeLCD_c                                         1     1      0     282
                                             35 COMRAM     1     1      0
                          _EnviaDato
                        _HabilitaLCD
                         _RetardoLCD
 ---------------------------------------------------------------------------------
 (2) _InicializaLCD                                        0     0      0     470
                           _BorraLCD
                          _EnviaDato
                        _HabilitaLCD
                         _RetardoLCD
 ---------------------------------------------------------------------------------
 (4) _BorraLCD                                             0     0      0     235
                          _EnviaDato
                        _HabilitaLCD
                         _RetardoLCD
 ---------------------------------------------------------------------------------
 (2) _DesplazaPantallaD                                    0     0      0     235
                          _EnviaDato
                        _HabilitaLCD
                         _RetardoLCD
 ---------------------------------------------------------------------------------
 (2) _CrearCaracter                                        4     2      2     690
                                              0 BANK0      4     2      2
                      _DireccionaLCD
                          _EnviaDato
                        _HabilitaLCD
                         _RetardoLCD
 ---------------------------------------------------------------------------------
 (5) _DireccionaLCD                                        1     1      0     282
                                             35 COMRAM     1     1      0
                          _EnviaDato
                        _HabilitaLCD
                         _RetardoLCD
 ---------------------------------------------------------------------------------
 (4) _EnviaDato                                            2     2      0     188
                                             33 COMRAM     2     2      0
                        _HabilitaLCD
                         _RetardoLCD
 ---------------------------------------------------------------------------------
 (4) _RetardoLCD                                           2     2      0      47
                                             31 COMRAM     2     2      0
 ---------------------------------------------------------------------------------
 (4) _HabilitaLCD                                          0     0      0       0
 ---------------------------------------------------------------------------------
 (2) _ConfiguraLCD                                         1     1      0     141
                                             31 COMRAM     1     1      0
 ---------------------------------------------------------------------------------
 Estimated maximum stack depth 5
 ---------------------------------------------------------------------------------
 (Depth) Function   	        Calls       Base Space   Used Autos Params    Refs
 ---------------------------------------------------------------------------------
 (8) _ISR                                                 16    16      0    4666
                                             15 COMRAM    16    16      0
                             _Borrar
                     _ConfigPregunta
                         i2_BorraLCD
                    i2_ConfigurarPWM
                    i2_DireccionaLCD
                    i2_EscribeLCD_n8
                    i2_GuardarEEPROM
                   i2_MensajeLCD_Var
                    i2_OcultarCursor
                          i2___lldiv
                          i2___lwdiv
 ---------------------------------------------------------------------------------
 (9) i2___lwdiv                                            7     3      4     164
                                              0 COMRAM     7     3      4
 ---------------------------------------------------------------------------------
 (9) i2___lldiv                                           13     5      8     164
                                              0 COMRAM    13     5      8
 ---------------------------------------------------------------------------------
 (9) i2_MensajeLCD_Var                                     6     4      2     268
                                              5 COMRAM     6     4      2
                     i2_EscribeLCD_c
 ---------------------------------------------------------------------------------
 (9) i2_GuardarEEPROM                                      3     0      3      48
                                              0 COMRAM     3     0      3
 ---------------------------------------------------------------------------------
 (9) i2_ConfigurarPWM                                      0     0      0       0
 ---------------------------------------------------------------------------------
 (9) _ConfigPregunta                                       2     2      0    1379
                                             13 COMRAM     2     2      0
                    i2_EscribeLCD_n8
                    i2_OcultarCursor
 ---------------------------------------------------------------------------------
 (9) i2_OcultarCursor                                      0     0      0     551
                       i2_ComandoLCD
 ---------------------------------------------------------------------------------
 (9) i2_EscribeLCD_n8                                      5     4      1     828
                                              8 COMRAM     5     4      1
                        i2_EnviaDato
                      i2_HabilitaLCD
                       i2_RetardoLCD
                          i2___lbdiv
                          i2___lbmod
 ---------------------------------------------------------------------------------
 (10) i2___lbmod                                           4     3      1     172
                                              0 COMRAM     4     3      1
 ---------------------------------------------------------------------------------
 (10) i2___lbdiv                                           4     3      1     173
                                              4 COMRAM     4     3      1
                          i2___lbmod (ARG)
 ---------------------------------------------------------------------------------
 (9) _Borrar                                               0     0      0     899
                    i2_DireccionaLCD
                     i2_EscribeLCD_c
                    i2_MostrarCursor
 ---------------------------------------------------------------------------------
 (10) i2_MostrarCursor                                     0     0      0     551
                       i2_ComandoLCD
 ---------------------------------------------------------------------------------
 (10) i2_ComandoLCD                                        1     1      0     551
                                              5 COMRAM     1     1      0
                         i2_BorraLCD
                    i2_CursorAInicio
                        i2_EnviaDato
                      i2_HabilitaLCD
                       i2_RetardoLCD
 ---------------------------------------------------------------------------------
 (11) i2_CursorAInicio                                     0     0      0     174
                    i2_DireccionaLCD
 ---------------------------------------------------------------------------------
 (12) i2_DireccionaLCD                                     1     1      0     174
                                              4 COMRAM     1     1      0
                        i2_EnviaDato
                      i2_HabilitaLCD
                       i2_RetardoLCD
 ---------------------------------------------------------------------------------
 (11) i2_BorraLCD                                          0     0      0     145
                        i2_EnviaDato
                      i2_HabilitaLCD
                       i2_RetardoLCD
 ---------------------------------------------------------------------------------
 (10) i2_EscribeLCD_c                                      1     1      0     174
                                              4 COMRAM     1     1      0
                        i2_EnviaDato
                      i2_HabilitaLCD
                       i2_RetardoLCD
 ---------------------------------------------------------------------------------
 (11) i2_EnviaDato                                         2     2      0     116
                                              2 COMRAM     2     2      0
                      i2_HabilitaLCD
                       i2_RetardoLCD
 ---------------------------------------------------------------------------------
 (11) i2_RetardoLCD                                        2     2      0      29
                                              0 COMRAM     2     2      0
 ---------------------------------------------------------------------------------
 (11) i2_HabilitaLCD                                       0     0      0       0
 ---------------------------------------------------------------------------------
 Estimated maximum stack depth 12
 ---------------------------------------------------------------------------------

 Call Graph Graphs:

 _main (ROOT)
   _Bienvenida
     _ConfiguraLCD
     _CrearCaracter
       _DireccionaLCD
         _EnviaDato
           _HabilitaLCD
           _RetardoLCD
         _HabilitaLCD
         _RetardoLCD
       _EnviaDato
       _HabilitaLCD
       _RetardoLCD
     _DesplazaPantallaD
       _EnviaDato
       _HabilitaLCD
       _RetardoLCD
     _DireccionaLCD
     _EscribeLCD_c
       _EnviaDato
       _HabilitaLCD
       _RetardoLCD
     _InicializaLCD
       _BorraLCD
         _EnviaDato
         _HabilitaLCD
         _RetardoLCD
       _EnviaDato
       _HabilitaLCD
       _RetardoLCD
     _MensajeLCD_Var
       _EscribeLCD_c
     _OcultarCursor
       _ComandoLCD
         _BorraLCD
         _CursorAInicio
           _DireccionaLCD
         _EnviaDato
         _HabilitaLCD
         _RetardoLCD
   _BorraLCD
   _ConfigVariables
   _ConfigurarCaptura
   _ConfigurarPWM
   _Conversion
   _DireccionaLCD
   _EscribeLCD_n8
     _EnviaDato
     _HabilitaLCD
     _RetardoLCD
     ___lbdiv
       ___lbmod (ARG)
     ___lbmod
   _GuardarEEPROM
   _LeerEEPROM
   _MensajeLCD_Var
   _OcultarCursor
   _PreguntaAlUsuario
     _BorraLCD
     _CrearCaracter
     _DireccionaLCD
     _EscribeLCD_c
     _MensajeLCD_Var
     _MostrarCursor
       _ComandoLCD
     _OcultarCursor
   _TriggerUltrasonido
   ___lldiv
     ___lmul (ARG)
   ___lmul
   ___lwdiv
   ___lwmod
     ___lwdiv (ARG)
   _printf
     ___lwdiv
     ___lwmod
     _putch

 _ISR (ROOT)
   _Borrar
     i2_DireccionaLCD
       i2_EnviaDato
         i2_HabilitaLCD
         i2_RetardoLCD
       i2_HabilitaLCD
       i2_RetardoLCD
     i2_EscribeLCD_c
       i2_EnviaDato
       i2_HabilitaLCD
       i2_RetardoLCD
     i2_MostrarCursor
       i2_ComandoLCD
         i2_BorraLCD
           i2_EnviaDato
           i2_HabilitaLCD
           i2_RetardoLCD
         i2_CursorAInicio
           i2_DireccionaLCD
         i2_EnviaDato
         i2_HabilitaLCD
         i2_RetardoLCD
   _ConfigPregunta
     i2_EscribeLCD_n8
       i2_EnviaDato
       i2_HabilitaLCD
       i2_RetardoLCD
       i2___lbdiv
         i2___lbmod (ARG)
       i2___lbmod
     i2_OcultarCursor
       i2_ComandoLCD
   i2_BorraLCD
   i2_ConfigurarPWM
   i2_DireccionaLCD
   i2_EscribeLCD_n8
   i2_GuardarEEPROM
   i2_MensajeLCD_Var
     i2_EscribeLCD_c
   i2_OcultarCursor
   i2___lldiv
   i2___lwdiv

Address spaces:
Name               Size   Autos  Total    Usage
BIGRAM            2047      0       0      0.0%
BITBANK7           256      0       0      0.0%
BANK7              256      0       0      0.0%
BITBANK6           256      0       0      0.0%
BANK6              256      0       0      0.0%
BITBANK5           256      0       0      0.0%
BANK5              256      0       0      0.0%
BITBANK4           256      0       0      0.0%
BANK4              256      0       0      0.0%
BITBANK3           256      0       0      0.0%
BANK3              256      0       0      0.0%
BITBANK2           256      0       0      0.0%
BANK2              256      0       0      0.0%
BITBANK1           256      0       0      0.0%
BANK1              256      0       0      0.0%
BITBANK0           160      0       0      0.0%
BANK0              160     27      43     26.9%
BITCOMRAM           94      0       0      0.0%
COMRAM              94     36      63     67.0%
BITBIGSFRh          82      0       0      0.0%
BITBIGSFRllh        36      0       0      0.0%
BITBIGSFRlll        33      0       0      0.0%
BITBIGSFRlh          6      0       0      0.0%
STACK                0      0       0      0.0%
DATA                 0      0     105      0.0%


Microchip Technology PIC18 Macro Assembler V2.50 build 20240725155939 
Symbol Table                                                                                   Thu Dec 04 12:11:25 2025

          i2DireccionaLCD@a 0005            i2EscribeLCD_n8@a 000D            i2EscribeLCD_n8@b 0009  
                EnviaDato@a 0023          i2___lwdiv@dividend 0001               _InicializaLCD 0FD6  
                       l424 1726                         l408 0730                         l543 0E3C  
                       l631 10E2                         l545 0DBA                         l562 1760  
                       l399 06E8                         l584 0B60                         _GIE 7F97  
                       _RB4 7C0C                         _RB5 7C0D                         _RB6 7C0E  
                       _RB7 7C0F                         _PR2 0FCB                         _ISR 0008  
                       _POR 7E81                         wreg 0FE8               _pwm_duty_perc 0035  
                      ?_ISR 0001            ??i2_EscribeLCD_c 0005                        l1083 137C  
                      l1093 157E                        l4215 1610                        l5031 06C0  
                      l5023 06A6                        l4171 12B6                        l4243 0FE8  
                      l4219 1620                        l5035 06CE                        l5027 06B2  
                      l5019 069A                        l4165 128A                        l4325 11A0  
                      l4253 1006                        l4341 1880                        l5053 0732  
                      l4167 129A                        l4175 12C0                        l4263 1024  
                      l4511 0FA6                        l4351 159C                        l4407 1372  
                      l4423 1574                        l4415 1554                        l5039 06DE  
                      l4169 12AC                        l4417 155C                        l5049 0712  
                      l4187 14F2                        l4283 105C                        l4363 15B8  
                      l4355 15A2                        l4435 0C90                        l4293 142E  
                      l4445 0CDA                        l4429 0C6E                        l4461 0D44  
                      l4605 0D9E                        l4541 0B64                        l4367 15C0  
                      l4383 16DE                        l4375 16C6                        l4297 1450  
                      l4545 0B6C                        l4537 0B50                        l4643 1254  
                      l4395 134A                        l4563 0BB8                        l4547 0B92  
                      l4653 1094                        l4397 1352                        l4581 0C42  
                      l4557 0BB4                        l4821 017C                        l4813 0162  
                      l4655 10A0                        l4639 1240                        l4575 0BF4  
                      l4903 03D6                        l4665 10D4                        l4577 0BFA  
                      l4825 018A                        l4817 016E                        l4833 01A8  
                      l4923 0426                        l4829 019A                        l4837 01C2  
                      l4871 026C                        l4855 0222                        l4955 0590  
                      l4939 04D6                        l4981 0602                        l4949 0560  
                      l4869 026A                        l4797 0100                        l4887 031C  
                      l4977 05F6                        l4897 03A6                        _ADON 7E10  
                      STR_1 7F22            ?i2_OcultarCursor 0001                        STR_2 7FF4  
                      STR_3 7F0F                        STR_4 7EFB                        STR_5 7FB7  
                      STR_6 7FC4                        STR_7 7EE5                        STR_8 7ECB  
                      STR_9 7FD1                        _LATB 0F8A                        u4000 0394  
                      _LATD 0F8C                        _LATE 0F8D                        u4100 047E  
                      u4020 03A0                        u4015 0396                        u4120 0488  
                      u4210 0612                        u4115 0480                        u4035 03A2  
                      u4220 0622                        u4140 054E                        u3510 11CE  
                      u4070 0436                        u4135 048A                        u4320 0722  
                      u4160 055A                        u3450 1780                        u3610 1560  
                      u4330 0730                        u4155 0550                        u3540 15A6  
                      u4085 0438                        u3630 0FD4                        u3710 0C4C  
                      u4407 0686                        u4175 055C                        u4417 0708  
                      u4507 12B8                        u4427 0DE8                        _PEIE 7F96  
                      u3580 1356                        u4517 1858                        u4437 0E28  
                      u4357 00A4                        u3750 0DBA                        u4447 0F90  
                      u4367 0214                        _RBIE 7F93                        u3840 010E  
                      _RBIF 7F90                        u4457 0FB2                        u4377 025C  
                      u3690 0BE2                        u3930 027C                        u4467 1290  
                      u4387 05AC                        _RCIE 7CED                        _RCIF 7CF5  
                      u4477 129C                        u4397 065A                        u3790 10A4  
                      u4487 12A4                        u3960 02C4                        u4497 12AE  
                      u3945 027E                        u3980 02CE                        u3975 02C6  
                      u3995 02D0                        _RBPU 7F8F                        _TMR0 0FD6  
                      _TMR1 0FCE                        _TRMT 7D61              ??_EscribeLCD_c 0024  
                      _main 0012                 main@val_reg 0077          i2___lwdiv@quotient 0005  
                      fsr2h 0FDA                        indf2 0FDF                        fsr1l 0FE1  
                      fsr2l 0FD9                        btemp 0040                  _Bienvenida 0F2E  
                      prodh 0FF4                        prodl 0FF3                        start 000E  
             _GuardarEEPROM 170E              CrearCaracter@i 0062                ___param_bank 0000  
                     ??_ISR 0010             i2_DireccionaLCD 17B2           ??i2_EscribeLCD_n8 000A  
            ?_InicializaLCD 0001                       _DC1B0 7DEC                       _DC1B1 7DED  
                     ?_main 0001             __end_of___lbdiv 15C4                       _ADRES 0FC3  
                     _EEADR 0FA9                       STR_10 7FE9                       STR_11 7EE5  
                     STR_12 7ECB                       STR_20 7FDD                       STR_13 7F45  
                     STR_21 7F34                       STR_22 7F9D                       STR_14 7F64  
                     STR_15 7FAA                       STR_23 7F81                       STR_16 7F8F  
                     STR_24 7F73                       STR_17 7FAA                       STR_18 7F8F  
                     STR_19 7F55                  _ComandoLCD 15FC               EscribeLCD_c@a 0024  
           __end_of___lbmod 16E6             i2_MostrarCursor 18B2             __end_of___lldiv 10F4  
                     _T0CON 0FD5                       _T1CON 0FCD                       _T2CON 0FCA  
                     _LATA1 7C49                       _LATA2 7C4A                       _LATA3 7C4B  
                     _LATA4 7C4C                       _LATC0 7C58                       _LATA5 7C4D  
                     _T3CON 0FB1                       _LATC2 7C5A                  _LeerEEPROM 182A  
           __end_of___lwdiv 1386             __end_of___lwmod 1588                       i2l501 09E8  
                     i2l503 09F0                       i2l424 1748                       i2l520 0B04  
                     i2l512 0A5C                       i2l505 09F8                       i2l514 0B0A  
                     i2l506 0B1A                       i2l451 0806                       i2l509 0A54  
                     i2l631 1164                       i2l528 0B2E                       i2l490 099A  
                     i2l482 0974                       i2l466 0842                       i2l492 09A2  
                     i2l484 097C                       i2l494 09AA                       i2l486 0984  
                     i2l497 09DA                       _RCREG 0FAE                       _RCSTA 0FAB  
                     _TMR3H 0FB3                       _TMR3L 0FB2                       _SPBRG 0FAF  
                     _PORTB 0F81                       _TRISB 0F93                       _TRISD 0F95  
                     _TRISE 0F96                       _TXREG 0FAD                       _TXSTA 0FAC  
       ___lmul@multiplicand 0064             ??_EscribeLCD_n8 0025                       _Tecla 003A  
   __end_of_ConfigVariables 16BE             __end_of_dpowers 7ECB                 ?i2_BorraLCD 0001  
                     _salir 003B                       _putch 187E         i2GuardarEEPROM@dato 0003  
                     tablat 0FF5                  _Conversion 1752                 _HabilitaLCD 1854  
                     ttemp5 0041                       ttemp6 0044                       ttemp7 0048  
                     status 0FD8                       wtemp8 0041               i2___lbmod@rem 0004  
             _Supercontador 0031             ___lbdiv@divisor 0024             ___lbdiv@counter 0061  
            ?_GuardarEEPROM 0020            __end_of_BorraLCD 17F2             __initialization 13D8  
         i2___lldiv@divisor 0005                __end_of_main 0742           i2___lldiv@counter 000D  
             _CursorAInicio 18A2            i2_MensajeLCD_Var 1470                      ??_main 0075  
      __end_of_ConfiguraLCD 1786               __activetblptr 0002                  _RayaAlPiso 007B  
     __end_of_CrearCaracter 11D6                      _ADCON0 0FC2                      _ADCON1 0FC1  
                    _ADCON2 0FC0                      _CCP2M0 7DD0                      _CCP2IE 7D00  
                    _CCP2IF 7D08                      _EEDATA 0FA8                      _CCPR2H 0FBC  
            DireccionaLCD@a 0024                      _CCPR1L 0FBE                      _CCPR2L 0FBB  
                    _EECON1 0FA6                      _EECON2 0FA7              EscribeLCD_n8@a 0067  
            EscribeLCD_n8@b 0063                      ?_putch 0001                      i2l1083 13CE  
                    i2l4101 0A02                      i2l4005 0928                      i2l3153 0E4E  
                    i2l3401 122C                      i2l4041 096E                      i2l4141 0AEA  
                    i2l4133 0ACE                      i2l4053 098E                      i2l4029 0954  
                    i2l3159 0E6E                      i2l3169 0EB4                      i2l3185 0F18  
                    i2l4145 0AFA                      i2l4137 0ADC                      i2l4129 0AC2  
                    i2l4153 0B1E                      i2l2803 1316                      i2l3507 13C4  
                    i2l4083 09DC                      i2l3453 147A                      i2l2903 1652  
                    i2l3391 11F4                      i2l3457 149A                      i2l3473 1116  
                    i2l2915 15D4                      i2l2931 15F8                      i2l3475 1122  
                    i2l2829 1538                      i2l3485 1156                      i2l2927 15F0  
                    i2l2919 15DA                      i2l3495 139C                      i2l2793 12E0  
                    i2l3497 13A4                      i2l3913 077C                      i2l2795 12F0  
                    i2l2947 1706                      i2l2939 16EE                      i2l3931 07C4  
                    i2l2797 1302                      i2l3925 07AC                      i2l2799 130C  
                    i2l3943 07F6                      i2l3919 0794                      i2l3937 07DC  
                    i2l2899 1642                      i2l3965 0844                      i2l3981 089C  
                    i2l3989 08AC                      i2l3999 0916                      _OSCCON 0FD3  
            ISR@captura_raw 001E                      _TMR0IE 7F95                      _TMR0IF 7F92  
                    _TMR1IE 7CE8                      _TMR1IF 7CF0                      _TMR0ON 7EAF  
                    _TMR1ON 7E68                      _TRISA1 7C91                      _TRISA2 7C92  
                    _TRISA3 7C93                      _TRISA4 7C94                      _TRISC0 7CA0  
                    _TRISC1 7CA1                      _TRISA5 7C95                      _TRISC2 7CA2  
                    _TRISC6 7CA6                      _TRISC7 7CA7       __end_of_DireccionaLCD 17B2  
                _RetardoLCD 1286                 ?_Bienvenida 0001                      _Borrar 1664  
   __end_ofi2_DireccionaLCD 17C8       __end_of_MostrarCursor 189A             i2_ConfigurarPWM 1862  
      EscribeLCD_n8@centena 0064              ?_CursorAInicio 0001                      ___lmul 1230  
   __end_ofi2_MostrarCursor 18BA      GuardarEEPROM@direccion 0020                   ??___lbdiv 0025  
                 ??___lbmod 0021                   ??___lldiv 0024                      _editor 003C  
                 ??___lwdiv 0024                   ??___lwmod 0024             ??_InicializaLCD 0024  
                    clear_0 1410                      isa$std 0001                      _printf 0B4A  
      __end_of_EscribeLCD_c 179C                 ?_ComandoLCD 0001                 ?_LeerEEPROM 0020  
              ?i2_EnviaDato 0001                __pdataCOMRAM 003F           __end_ofi2___lbdiv 15FC  
         __end_ofi2___lbmod 170E           __end_ofi2___lldiv 1176           __end_ofi2___lwdiv 13D8  
              __mediumconst 7EC0                      tblptrh 0FF7                      tblptrl 0FF6  
                    tblptru 0FF8            ?_ConfigVariables 0001                 _Inactividad 0039  
         ??i2_GuardarEEPROM 0004            ___lbdiv@dividend 0060                 ?_Conversion 0020  
           ___lbmod@divisor 0020       __end_ofi2_HabilitaLCD 187E                  __accesstop 0060  
   __end_of__initialization 1416             ___lbmod@counter 0022             ??_GuardarEEPROM 0023  
             ___rparam_used 0001             ISR@calculo_temp 001A  CrearCaracter@posicionCGRAM 0061  
            __pcstackCOMRAM 0001          i2___lldiv@dividend 0001                __pidataBANK0 181A  
         __end_of_EnviaDato 1500               __end_of_putch 188A            ___lbdiv@quotient 0062  
                 ?_BorraLCD 0001              _MensajeLCD_Var 1424                     ??_putch 0020  
        i2___lldiv@quotient 0009       __end_of_ConfigurarPWM 1846             MensajeLCD_Var@a 0060  
           MensajeLCD_Var@i 0064           ??i2_CursorAInicio 0006     __end_ofi2_ConfigurarPWM 1870  
                __pnvCOMRAM 003E                 ?_RetardoLCD 0001                 RetardoLCD@a 0021  
                _datoSerial 0038                     ?_Borrar 0001             i2_EscribeLCD_n8 0E48  
           ??_CursorAInicio 0025            ?i2_DireccionaLCD 0001        CrearCaracter@arreglo 0060  
                   ?___lmul 0060            ?i2_MostrarCursor 0001                     _CCP1CON 0FBD  
                   _CCP2CON 0FBA                     _BAUDCON 0FB8              ___lmul@product 0020  
                   ?_printf 0067                     _GO_DONE 7E11      __end_of_MensajeLCD_Var 1470  
              ??i2_BorraLCD 0005                  ??_BorraLCD 0024               _OcultarCursor 189A  
  __end_ofi2_MensajeLCD_Var 14BA                ?_HabilitaLCD 0001                _ConfiguraLCD 176E  
                   _Corazon 0083                     __Hparam 0000       i2EscribeLCD_n8@decena 000B  
                   __Lparam 0000                     _Pulsado 003E                     ___lbdiv 1588  
                   ___lbmod 16BE                     ___lldiv 1072       i2EscribeLCD_n8@unidad 000C  
                   ___lwdiv 1332                     ___lwmod 1546           GuardarEEPROM@dato 0022  
        __end_ofi2_BorraLCD 181A                     __pcinit 13D8                     __ramtop 0800  
                   __ptext0 0012                     __ptext1 0B4A                     __ptext2 187E  
                   __ptext3 1546                     __ptext4 1332                     __ptext5 1230  
                   __ptext6 1072                     __ptext7 188A                     __ptext8 0D5C  
                   __ptext9 1892               ?i2_ComandoLCD 0001                     _dpowers 7EC1  
           ?_MensajeLCD_Var 0060              ?_OcultarCursor 0001       __end_of_EscribeLCD_n8 0D5C  
            __pintcode_body 0742        end_of_initialization 1416     __end_ofi2_EscribeLCD_n8 0F2E  
           Conversion@canal 0022               __Lmediumconst 7EC0                     int_func 0742  
          ?i2_ConfigurarPWM 0001                _EscribeLCD_c 1786          _control_manual_pwm 0034  
              ??_Bienvenida 0066             ___lldiv@divisor 006C             ___lldiv@counter 0074  
                   printf@c 0071                     printf@f 0067                     postdec1 0FE5  
                   postdec2 0FDD                     postinc0 0FEE                     postinc2 0FDE  
                _tiempo_eco 0027             i2_GuardarEEPROM 1730              ??i2_ComandoLCD 0006  
              ??_ComandoLCD 0025                ??_LeerEEPROM 0022              _ConfigPregunta 11D6  
          ___lbmod@dividend 0021          __end_of_Bienvenida 0FD6             i2EscribeLCD_c@a 0005  
                 i2___lbdiv 15C4                   i2___lbmod 16E6           i2___lwdiv@divisor 0003  
                 i2___lldiv 10F4                   i2___lwdiv 1386           i2___lwdiv@counter 0007  
              ??_Conversion 0022                 ___lbmod@rem 0023               i2ComandoLCD@a 0006  
             ?i2_RetardoLCD 0001          __end_of_ComandoLCD 1632          __end_of_LeerEEPROM 1838  
         _ConfigurarCaptura 1846              __end_of_Borrar 1692          ?_ConfigurarCaptura 0001  
            __end_of___lmul 1286           ??i2_OcultarCursor 0007               __pidataCOMRAM 18C2  
     __end_of_InicializaLCD 1072         LeerEEPROM@direccion 0020      __end_of_ConfigPregunta 1230  
        __end_of_Conversion 176E         ??_ConfigurarCaptura 0020                   _EnviaDato 14BA  
            __end_of_printf 0C68             i2_CursorAInicio 18BA             ??_OcultarCursor 0025  
       start_initialization 13D8                 __end_of_ISR 0B4A                  ?i2___lbdiv 0005  
                ?i2___lbmod 0001                  ?i2___lldiv 0001                  ?i2___lwdiv 0001  
          ?i2_EscribeLCD_n8 0009              ??i2_RetardoLCD 0001                ??_RetardoLCD 0020  
 __end_of_ConfigurarCaptura 1854          i2___lbdiv@dividend 0006    i2GuardarEEPROM@direccion 0001  
                  ??_Borrar 0007       __end_of_GuardarEEPROM 1730         EscribeLCD_n8@decena 0065  
   __end_ofi2_GuardarEEPROM 1752                    ??___lmul 0020                 __pdataBANK0 007B  
       EscribeLCD_n8@unidad 0066                    ??_printf 006B             ?_ConfigPregunta 0001  
__end_of_TriggerUltrasonido 1892                  ?_EnviaDato 0001                 __pbssCOMRAM 0025  
        __end_of_RetardoLCD 12DC               __pcstackBANK0 0060               _CrearCaracter 1176  
        i2___lbdiv@quotient 0008           ?i2_MensajeLCD_Var 0006        __end_ofi2_ComandoLCD 1664  
        ??i2_MensajeLCD_Var 0008               _DireccionaLCD 179C              i2_EscribeLCD_c 17C8  
          ___lwdiv@dividend 0020               _MostrarCursor 1892       __end_of_CursorAInicio 18AA  
                 __pintcode 0008               __pmediumconst 7EC0                    ?___lbdiv 0024  
                  ?___lbmod 0020                    ?___lldiv 0068     __end_ofi2_CursorAInicio 18C2  
                  ?___lwdiv 0020                    ?___lwmod 0063                   _distancia 0025  
          ??_MensajeLCD_Var 0062              ?_CrearCaracter 0060            ___lwdiv@quotient 0061  
               ??i2___lbdiv 0006           _PreguntaAlUsuario 0D5C                 ??i2___lbmod 0002  
               ??i2___lldiv 0009                 ??i2___lwdiv 0005          ?_PreguntaAlUsuario 0001  
             i2_HabilitaLCD 1870              ?_DireccionaLCD 0001      __end_ofi2_EscribeLCD_c 17DE  
                  i2u300_40 0804                    i2u230_40 13A8                    i2u302_40 0816  
       ??_PreguntaAlUsuario 0066                    i2u305_40 085A                    i2u227_40 1126  
                  i2u180_40 15DE                    i2u308_45 08C6                    i2u338_40 0B16  
                  i2u290_40 078C                    i2u339_45 0B18                    i2u292_40 07A4  
            ?_MostrarCursor 0001                    i2u452_47 0B24                    i2u453_47 12E6  
                  i2u294_40 07BC                    i2u454_47 12F2                    i2u455_47 12FA  
                  i2u296_40 07D4                    i2u288_40 0774                    i2u456_47 1304  
                  i2u457_47 130E                    i2u298_40 07EC                    i2u458_47 1874  
          ?i2_GuardarEEPROM 0001           ??_ConfigVariables 0020                 _contadorRGB 002D  
             ??i2_EnviaDato 0003        __end_ofi2_RetardoLCD 1332                 ??_EnviaDato 0022  
                printf@flag 006D                  printf@prec 006E           _conteo_recuperado 0033  
 __end_of_PreguntaAlUsuario 0E48                    _BorraLCD 17DE           ___lmul@multiplier 0060  
                 copy_data0 13EC               _ConfigurarPWM 1838              ?i2_HabilitaLCD 0001  
                  _Objetivo 002B           _DesplazaPantallaD 17F2             ?i2_EscribeLCD_c 0001  
                _EECON1bits 0FA6             i2_OcultarCursor 18AA                    __Hrparam 0000  
        ?_DesplazaPantallaD 0001           i2___lbdiv@divisor 0005               _flag_imprimir 0036  
    i2EscribeLCD_n8@centena 000A                 Bienvenida@i 0068           i2___lbdiv@counter 0007  
                  __Lrparam 0000            ?i2_CursorAInicio 0001         ??_DesplazaPantallaD 0024  
              i2EnviaDato@a 0004             ??_CrearCaracter 0025               ConfiguraLCD@a 0020  
         ??i2_DireccionaLCD 0005             ___lwdiv@divisor 0022             ___lwdiv@counter 0060  
                  __ptext10 182A                    __ptext11 170E                    __ptext20 189A  
                  __ptext12 0C68                    __ptext21 15FC                    __ptext13 16BE  
                  __ptext30 14BA                    __ptext22 18A2                    __ptext14 1588  
                  __ptext31 1286                    __ptext23 1424                    __ptext15 1752  
                  __ptext40 11D6                    __ptext32 1854                    __ptext24 1786  
                  __ptext16 1838                    __ptext41 18AA                    __ptext33 176E  
                  __ptext25 0FD6                    __ptext17 1846                    __ptext50 1806  
                  __ptext42 0E48                    __ptext26 17DE                    __ptext18 1692  
                  __ptext51 17C8                    __ptext43 16E6                    __ptext35 1386  
                  __ptext27 17F2                    __ptext19 0F2E                    __ptext52 1500  
                  __ptext44 15C4                    __ptext36 10F4                    __ptext28 1176  
                  __ptext53 12DC                    __ptext45 1664                    __ptext37 1470  
                  __ptext29 179C                    __ptext54 1870                    __ptext46 18B2  
                  __ptext38 1730                    __ptext47 1632                    __ptext39 1862  
                  __ptext48 18BA                    __ptext49 17B2         __end_ofi2_EnviaDato 1546  
         ??i2_MostrarCursor 0007                    _contador 002F              ?_ConfigurarPWM 0001  
        i2___lbmod@dividend 0002             main@val_reg_302 0079             ??_DireccionaLCD 0024  
 __end_of_DesplazaPantallaD 1806                    _interfaz 003F             ??_MostrarCursor 0025  
                  _valorADC 0029                    isa$xinst 0000                    _posicion 003D  
          ??_ConfigPregunta 000E                    int$flags 0040                   printf@val 006F  
              i2_ComandoLCD 1632                   putch@data 0020       __end_of_OcultarCursor 18A2  
             _EscribeLCD_n8 0C68     __end_ofi2_OcultarCursor 18B2             ??i2_HabilitaLCD 0001  
                  intlevel2 0000               ??_HabilitaLCD 0020          _TriggerUltrasonido 188A  
               ComandoLCD@a 0060            ___lwmod@dividend 0063            ___lldiv@dividend 0068  
             ?_ConfiguraLCD 0001           i2___lbmod@divisor 0001           i2___lbmod@counter 0003  
             i2RetardoLCD@a 0002         ?_TriggerUltrasonido 0001                    printf@ap 006C  
         _flag_timer0_event 0037           ??i2_ConfigurarPWM 0001                 i2_EnviaDato 1500  
          ___lldiv@quotient 0070             ___lwmod@divisor 0065        ??_TriggerUltrasonido 0020  
           ___lwmod@counter 0024              ?_EscribeLCD_n8 0063             ??_ConfigurarPWM 0020  
                i2_BorraLCD 1806              ??_ConfiguraLCD 0020               ?_EscribeLCD_c 0001  
           _ConfigVariables 1692           i2MensajeLCD_Var@a 0006           i2MensajeLCD_Var@i 000A  
              i2_RetardoLCD 12DC         __end_of_HabilitaLCD 1862  
